Sample ID	Assay Accepted Droplets	Assay Amplification Method	Assay Control, Internal	Assay Control, Internal Concentration (CN/Rxn)	Assay Control, Internal Result (CN/L)	Assay Control, Process	Assay Control, Process Concentration (CN/Rxn)	Assay Control, Process Result (CN/L)	Assay Control, Process Spike-In (CN/L)	Assay Date	Assay Droplet Quantification Method	Assay Experiment Type	Assay Lot ID	Assay Machine	Assay Name	Assay Plate Comment	Assay Plate ID	Assay Plate Location	Assay Run by	Assay Target 1	Assay Target 1 Concentration (CN/Rxn)	Assay Target 1 PCR NC Result (CN/Rxn)	Assay Target 1 PCR PC Result (CN/Rxn)	Assay Target 1 Result (CN/L)	Assay Target 2	Assay Target 2 Concentration (CN/Rxn)	Assay Target 2 PCR NC Result (CN/Rxn)	Assay Target 2 PCR PC Result (CN/Rxn)	Assay Target 2 Result (CN/L)	Assay Target 3	Assay Target 3 Concentration (CN/Rxn)	Assay Target 3 PCR NC Result (CN/Rxn)	Assay Target 3 PCR PC Result (CN/Rxn)	Assay Target 3 Result (CN/L)	Assay Target 4	Assay Target 4 Concentration (CN/Rxn)	Assay Target 4 PCR NC Result (CN/Rxn)	Assay Target 4 PCR PC Result (CN/Rxn)	Assay Target 4 Result (CN/L)	Assay Target 5	Assay Target 5 Concentration (CN/Rxn)	Assay Target 5 PCR NC Result (CN/Rxn)	Assay Target 5 PCR PC Result (CN/Rxn)	Assay Target 5 Result (CN/L)	Assay Target 6	Assay Target 6 Concentration (CN/Rxn)	Assay Target 6 PCR NC Result (CN/Rxn)	Assay Target 6 PCR PC Result (CN/Rxn)	Assay Target 6 Result (CN/L)	Assay Target 7	Assay Target 7 Concentration (CN/Rxn)	Assay Target 7 PCR NC Result (CN/Rxn)	Assay Target 7 PCR PC Result (CN/Rxn)	Assay Target 7 Result (CN/L)	Assay Target 8	Assay Target 8 Concentration (CN/Rxn)	Assay Target 8 PCR NC Result (CN/Rxn)	Assay Target 8 PCR PC Result (CN/Rxn)	Assay Target 8 Result (CN/L)	Assay Target 9	Assay Target 9 Concentration (CN/Rxn)	Assay Target 9 PCR NC Result (CN/Rxn)	Assay Target 9 PCR PC Result (CN/Rxn)	Assay Target 9 Result (CN/L)	Assay Type	Assay Volume (mL)	Category	Comments	Concentration Date	Concentration Input Volume (mL)	Concentration Lot ID	Concentration Machine	Concentration Method	Concentration Output Volume (mL)	Concentration Plate Comment	Concentration Plate ID	Concentration Plate Location	Concentration Run by	Department	Description	Extraction Date	Extraction Input Volume (mL)	Extraction Lot ID	Extraction Machine	Extraction Method	Extraction Output Volume (mL)	Extraction Plate Comment	Extraction Plate ID	Extraction Plate Location	Extraction Run by	Location	Sample Collection By	Sample Collection Date/Time	Sample Collection Method	Sample Composite End	Sample Composite Start	Sample Flow (MGD)	Sample ID	Sample QC Check	Sample Received By	Sample Received Date	Sample pH (Lab)	Site	Status: NWSS	Status: WaTCH
A02-0031	13987	OneStep RT-ddPCR	Human RNase P	975.8476257	1036838.102					8/27/21	Manual	DQ	58477036	QX One	CDC nCov-2 Triplex	C1	AP0005	A02	JL	SARS-CoV-2 N1	9.342662692	0	2615.09491	9926.57911	SARS-CoV-2 N2	82.66587257	0	2786.116028	87832.48961																																				CDC N1/N2/RP Triplex	0.005	Sample		8/27/21	10	NT04155	Kookaburra	Ceres Nanotrap	0.425		CP0005	B03	JL	WVU Morgantown	Sample	8/27/21	0.4	2102028	Kookaburra	Thermo Magmax Microbiome Ultra Nucleic Acid Isolation Kit	0.05	C1	EP0005	A09	JL	NorthHighSt-02 (MUB)	EL	8/23/21 9:55	Grab	8/23/21 9:55	8/23/21 9:55			Pass	JL	8/23/21	8.46	Monongalia	Processing	Complete
A03-0173																																																																																											NorthES-01												Monongalia		
A02-0207	15080	OneStep RT-ddPCR	Human RNase P	6.242051125	6632.17932	None				11/4/21	Manual	DQ	58477038	QX 200	CDC nCov-2 Triplex	K5	AP0016	F05	JL	SARS-CoV-2 N1	0	0	1040.980072	0	SARS-CoV-2 N2	1.560357511	0	1205.935364	1657.879855																																					0.005	Sample		11/3/21	10	NT04474	Halcyon	Ceres Nanotrap	0.425		CP0032	D03	JL	WVU Morgantown	Sample	11/3/21	0.4	21108255	Kookaburra	Thermo Magmax Microbiome Ultra Nucleic Acid Isolation Kit	0.05	K5	EP0032	B09	JL	CollegePark-02	CA	11/3/21 11:30	Composite	11/3/21 11:31	11/1/21 11:31			Pass	JL	11/3/21	7.12	Monongalia	Processing	Complete
A0249	10132	OneStep RT-ddPCR	Human RNase P		61628.4					11/17/20	Manual	DQ			CDC nCov-2 Triplex					SARS-CoV-2 N1				151837.2	SARS-CoV-2 N2				132824.4																																				CDC N1/N2/RP Triplex	0.005	Sample		11/13/20	100			PEG Precipitation	3.4				MS	WWTP	Sample	11/17/20	0.2			Qiagen QiaAMP Viral Mini-RNA Kit	0.06				MS	StarCityWWTP-01	GS	11/11/20 0:00	Composite	11/11/20 23:59	11/11/20 0:00	6.790		Pass	TD	11/13/20		Monongalia	Processing	Complete
A01-0087																																																																			Sample		11/12/21	10	NT04474	Kookaburra	Ceres Nanotrap	0.425		CP0035	C02	AJ	WWTP	Sample	11/12/21	0.4	2108255	Kookaburra	Thermo Magmax Microbiome Ultra Nucleic Acid Isolation Kit	0.05	H2	EP0035	B02	AJ	StarCityWWTP-01	GG	11/11/21 23:55	Composite	11/11/21 23:55	11/11/21 0:00			Pass	JL	11/12/21	7.01	Monongalia	Processing	Processing
F01-0021	12585	OneStep RT-ddPCR	Human RNase P	7.479745746	7947.229855					9/29/21	Manual	DQ	58477037	QX 200	CDC nCov-2 Triplex	B2	AP0010	D02	JL	SARS-CoV-2 N1	118.083086	0	1097.667847	125463.2789	SARS-CoV-2 N2	22.44637728	0	1200.682373	23849.27586																																				CDC N1/N2/RP Triplex	0.005	Sample	NO METADATA 	9/29/21	10	NT04474	Halcyon	Ceres Nanotrap	0.425		CP0018	A02	JL	WWTP	Sample	9/29/21	0.4	2105049	Halcyon	Thermo Magmax Microbiome Ultra Nucleic Acid Isolation Kit	0.05	B2	EP0018	A02	JL	WestonWWTP-01	--		Composite					Fail: Missing Required Data	JL	9/27/21	6.87	Lewis	Rejected	Rejected
L01-0027																																																																																											WestUnionWWTP-01												Doddridge		
J01-0013																																																																															WWTP												AlpineLakeWWTP-01												Preston		
A02-0191	16607	OneStep RT-ddPCR	Human RNase P	34.02868271	36155.47538	None				11/22/21	Manual	DQ	58477038	QX 200	CDC nCov-2 Triplex	NAB14 B6	AP0021	E03	JL	SARS-CoV-2 N1	200.6269264	1109.141006	0	213166.1093	SARS-CoV-2 N2	180.6298447	1229.36615	0	191919.21																																					0.005	Sample		10/28/21	10	NT04474	Halcyon	Ceres Nanotrap	0.425		CP0030	C03	JL	WVU Morgantown	Sample	10/28/21	0.4	2108255	Halcyon	Thermo Magmax Microbiome Ultra Nucleic Acid Isolation Kit	0.05	B7	EP0030	B07	JL	HonorsSummit-01 (MUB)	EL	10/27/21 9:55	Composite	10/27/21 9:55	10/25/21 10:16			Pass	JL	10/27/21		Monongalia	Processing	Complete
G01-0050																																																																															WWTP												KeyserWWTP-01	-	11/30/2021 09:20 AM	Composite	11/30/2021 08:00 AM	11/29/2021 09:00 AM			Pass	AJ	12/02/2021	7.31	Mineral		
A03-0198																																																																																											MountainviewES-01												Monongalia		
A02-0007																																																																			Sample												WVU Morgantown	Sample											Evansdale-01	EL	8/12/21 9:14	Composite	8/12/21 9:00	8/11/21 9:00			Pass	JL	8/12/21		Monongalia	Processing	Confirming
A03-0056	14281	OneStep RT-ddPCR	Human RNase P	36.27520323	38542.40343	None				11/8/21	Manual	DQ	58477038	QX 200	CDC nCov-2 Triplex	B4	AP0017	B04	AJ	SARS-CoV-2 N1	255.108757	0	560.2787018	271053.0543	SARS-CoV-2 N2	248.4474564	0	653.7683868	263975.4224																																					0.005	Sample		11/5/21	10	NT04474	Kookaburra	Ceres Nanotrap	0.425		CP00033	B06	JL	K-12	Sample	11/5/21	0.4	21108255	Kookaburra	Thermo Magmax Microbiome Ultra Nucleic Acid Isolation Kit	0.05	B4	EP0033	B04	JL	NorthES-01	BL	10/28/21 10:40	Composite	10/27/21 14:00	10/27/21 6:00			Pass	JL	11/1/21	7.61	Monongalia	Processing	Complete
A1008	11651	OneStep RT-ddPCR	Human RNase P		74217.6					3/22/21	Manual	DQ		QX 200	CDC nCov-2 Triplex					SARS-CoV-2 N1				0	SARS-CoV-2 N2				0																																				CDC N1/N2/RP Triplex	0.005	Sample		3/19/21	100			PEG Precipitation	3.6				TD	WWTP	Sample	3/21/21	0.2			Qiagen QiaAMP Viral Mini-RNA Kit	0.06				TD	StarCityWWTP-01	GG	3/17/21 11:59	Composite	3/17/21 11:59	3/17/21 12:01	8.151		Pass	JL	3/19/21		Monongalia	Processing	Complete
J01-0034																																																																															WWTP												AlpineLakeWWTP-01												Preston		
A02-0259																																																																																											WVU-Morgantown												Monongalia		
H01-0076																																																																															WWTP												MoundsvilleWWTP-01	-	11/29/2021 08:15 AM	Composite	11/29/2021 08:00 AM	11/28/2021 08:00 AM			Pass	AJ	12/03/2021	6.96	Marshall		
A1015	8511	OneStep RT-ddPCR	Human RNase P		119568					3/30/21	Manual	DQ		QX 200	CDC nCov-2 Triplex					SARS-CoV-2 N1				33192	SARS-CoV-2 N2				19920																																				CDC N1/N2/RP Triplex	0.005	Sample		3/26/21	100			PEG Precipitation	4				MVS	WWTP	Sample	3/29/21	0.2			Qiagen QiaAMP Viral Mini-RNA Kit	0.06				MVS	StarCityWWTP-01	EL	3/26/21 10:55	Composite	3/25/21 12:00	3/25/21 12:00	8.288		Pass	MVS	3/26/21		Monongalia	Processing	Complete
A03-0035	15054	OneStep RT-ddPCR	Human RNase P	12.28637815	13054.27678					10/11/21	Manual	DQ	58477037	QX One	CDC nCov-2 Triplex	I8	AP0012	H03	JL	SARS-CoV-2 N1	31.60509348	0	1593.187866	33580.41182	SARS-CoV-2 N2	26.33495331	0	2077.493896	27980.88789																																				CDC N1/N2/RP Triplex	0.005	Sample		10/7/21	10	NT04474	Halcyon	Ceres Nanotrap	0.425		CP0021	D04	JL	K-12	Sample	10/7/21	0.4	2108052	Halcyon	Thermo Magmax Microbiome Ultra Nucleic Acid Isolation Kit	0.05	I8	EP0021	B08	JL	CheatLakeES-01	BL	9/30/21 12:00	Grab	9/30/21 12:00	9/30/21 12:00			Pass	JL	10/6/21	8.56	Monongalia	Processing	Complete
A02-0199	14869	OneStep RT-ddPCR	Human RNase P	42.76138306	45433.9695					10/11/21	Manual	DQ	58477037	QX One	CDC nCov-2 Triplex	K5	AP0012	E04	JL	SARS-CoV-2 N1	1.473141611	0	1593.187866	1565.212961	SARS-CoV-2 N2	17.68424153	0	2077.493896	18789.50663																																				CDC N1/N2/RP Triplex	0.005	Sample		10/8/21	10	NT04474	Halcyon	Ceres Nanotrap	0.425		CP0022	A05	JL	WVU Morgantown	Sample	10/8/21	0.4	2108052	Halcyon	Thermo Magmax Microbiome Ultra Nucleic Acid Isolation Kit	0.05	K5	EP0022	A05	JL	CollegePark-02	EL	10/8/21 10:00	Composite	10/8/21 10:00	10/6/21 10:00			Pass	JL	10/8/21	7.29	Monongalia	Processing	Complete
L01-0022																																																																																											WestUnionWWTP-01												Doddridge		
A02-0113	13429	OneStep RT-ddPCR	Human RNase P	12.26813793	13034.89655					9/20/21	Manual	DQ	58477037	QX 200	CDC nCov-2 Triplex	G4	AP0008	E04	JL	SARS-CoV-2 N1	17.52786994	0	1320.22522	18623.36181	SARS-CoV-2 N2	15.7744956	0	1524.019623	16760.40158																																				CDC N1/N2/RP Triplex	0.005	Sample		9/17/21	10	NT04155	Halcyon	Ceres Nanotrap	0.425		CP0013	C04	JL	WVU Morgantown	Sample	9/17/21	0.4	2105033	Halcyon	Thermo Magmax Microbiome Ultra Nucleic Acid Isolation Kit	0.05	G4	EP0012	A12	JL	NorthHighSt-02 (MUB)	EL	9/17/21 10:39	Composite	9/17/21 10:39	9/15/21 10:39			Pass	JL	9/17/21	7.07	Monongalia	Processing	Complete
A03-0024	10896	OneStep RT-ddPCR	Human RNase P	4.319304526	4589.261059					9/29/21	Manual	DQ	58477037	QX 200	CDC nCov-2 Triplex	K7	AP0010	A07	JL	SARS-CoV-2 N1	0	0	1097.667847	0	SARS-CoV-2 N2	0	0	1200.682373	0																																				CDC N1/N2/RP Triplex	0.005	Sample		9/27/21	10	NT04474	Halcyon	Ceres Nanotrap	0.425		CP0017	B01	JL	K-12	Sample	9/27/21	0.4	2105049	Halcyon	Thermo Magmax Microbiome Ultra Nucleic Acid Isolation Kit	0.05	K7	EP0017	A07	JL	NorthES-01	BL	9/23/21 11:15	Composite	9/22/21 14:00	9/22/21 6:00			Pass	JL	9/24/21	6.97	Monongalia	Processing	Complete
K01-0026																																																																																											ParkersburgWWTP-01												Wood		
A0027	10133	OneStep RT-ddPCR	Human RNase P		42362.4					12/14/20	Manual	DQ			CDC nCov-2 Triplex					SARS-CoV-2 N1				15891.6	SARS-CoV-2 N2				15891.6																																				CDC N1/N2/RP Triplex	0.005	Sample		12/4/20	100			PEG Precipitation	3.8				MS	WWTP	Sample	12/7/20	0.2			Qiagen QiaAMP Viral Mini-RNA Kit	0.06				MS	StarCityWWTP-01	GG	11/25/20 0:00	Composite	11/25/20 23:59	11/25/20 0:00	7.450		Pass	TD	11/30/20		Monongalia	Processing	Complete
A02-0056	11965	OneStep RT-ddPCR	Human RNase P	0	0					9/2/21	Manual	DQ		QX One	BRSV Triplex	G3	AP000000	C02	JL	SARS-CoV-2 N1	29.38838005	0	3138.026123	31225.1538	SARS-CoV-2 N2	13.70998979	0	3336.080627	14566.86415																																				CDC N1/N2/RP Triplex	0.005	Sample		9/2/21	10	 NT04155	Kookaburra	Ceres Nanotrap	0.425		CP0007	B05	JL	WVU Morgantown	Sample	9/2/21	0.4	2102028	Halcyon	Thermo Magmax Microbiome Ultra Nucleic Acid Isolation Kit	0.05	G3	EP0007	A11	JL	NorthHighSt-02 (MUB)	EL	8/27/21 10:39	Composite	8/27/21 9:49	8/25/21 9:49			Pass	JL	8/27/21	7.17	Monongalia	Processing	Complete
A1069	13142	OneStep RT-ddPCR		156.28		BRSV		371165		7/7/21	Manual	DQ			BRSV Triplex					SARS-CoV-2 N1	0			0	SARS-CoV-2 N2	0			0																																				N1/N2/BRSV Triplex	0.005	Sample		7/7/21	10			Ceres Nanotrap	0.95	pH - 6.42				WWTP	Sample	7/7/21	0.4			Thermo Magmax Microbiome Ultra Nucleic Acid Isolation Kit	0.05				JL	StarCityWWTP-01	EL	6/13/21 23:55	Composite	6/13/21 23:55	6/13/21 0:00	8.646		Pass	JL	6/18/21	6.42	Monongalia	Processing	Complete
A03-0188																																																																																											MorgantownHS-01												Monongalia		
A02-0277																																																																																											WVU-Morgantown												Monongalia		
A02-0341																																																																																											WVU-Morgantown												Monongalia		
H01-0099																																																																															WWTP												MoundsvilleWWTP-01												Marshall		
H01-0060																																																																															WWTP												MoundsvilleWWTP-01												Marshall		
A02-0230	9524	OneStep RT-ddPCR	Human RNase P	7.41278409957886	13204.0216773748	None				2021-12-03	Manual	DQ	58477038	QX 200	CDC nCov-2 Triplex	E3	AP0023	A03	JL	SARS-CoV-2 N1	0	0	1030.21682739258	0	SARS-CoV-2 N2	9.88423109054566	0	1109.43168640137	17606.2866300345																																					0.005			2021-11-29	10	NT04474	Halcyon	Ceres Nanotrap	0.475		CP0040	A03	AJ	WVU Morgantown		2021-11-29	0.4	2108255	Halcyon	Thermo Magmax Microbiome Ultra Nucleic Acid Isolation Kit	0.075	E3	EP0040	A03	AJ	OaklandE-02	CA	11/22/21 9:57	Composite	11/22/21 9:57	11/20/21 9:57			Pass	AJ	11/19/21	7.16	Monongalia	Processing	Complete
H01-0097																																																																															WWTP												MoundsvilleWWTP-01												Marshall		
A03-0194																																																																																											MountainviewES-01												Monongalia		
A02-0175	10160	OneStep RT-ddPCR	Human RNase P	37.0833993	39401.11175	None				10/20/21	Manual	DQ	58477038	QX One	CDC nCov-2 Triplex	H7	AP0014	G04	JL	SARS-CoV-2 N1	2.316000909	0	2152.007294	2460.750965	SARS-CoV-2 N2	18.5343945	0	2493.552246	19692.79416																																					0.005	Sample		10/18/21	10	NT04474	Halcyon	Ceres Nanotrap	0.425		CP0026	B03	JL	WVU Morgantown	Sample	10/18/21	0.4	2108255	Halcyon	Thermo Magmax Microbiome Ultra Nucleic Acid Isolation Kit	0.05	H7	EP0026	A07	JL	NorthHighSt-02 (MUB)	EL	10/18/21 9:58	Composite	10/18/21 9:00	10/16/21 9:00			Pass	JL	10/18/21		Monongalia	Processing	Complete
J01-0010																																																																															WWTP												AlpineLakeWWTP-01												Preston		
A02-0107	12293	OneStep RT-ddPCR	Human RNase P	163.2592964	173463.0024					9/20/21	Manual	DQ	58477037	QX 200	CDC nCov-2 Triplex	D6	AP0008	C06	JL	SARS-CoV-2 N1	47.89996147	0	1320.22522	50893.70906	SARS-CoV-2 N2	32.56136179	0	1524.019623	34596.4469																																				CDC N1/N2/RP Triplex	0.005	Sample		9/15/21	10	NT04155	Kookaburra	Ceres Nanotrap	0.425		CP0012	A06	JL	WVU Morgantown	Sample	9/15/21	0.4	2105033	Halcyon	Thermo Magmax Microbiome Ultra Nucleic Acid Isolation Kit	0.05	D6	EP0012	A06	JL	HonorsSummit-01 (MUB)	EL	9/15/21 9:45	Composite	9/15/21 9:45	9/13/21 9:50			Pass	JL	9/15/21	7.1	Monongalia	Processing	Complete
A02-0242																																																																															WVU Morgantown												CollegePark-02	GZ	12/03/2021 10:07 AM	Composite	12/03/2021 09:00 AM	12/01/2021 09:00 AM			Pass	AJ	12/01/2021	7.86	Monongalia		
A1048	15163	OneStep RT-ddPCR	Human RNase P		39102					5/17/21	Manual	DQ		QX 200	CDC nCov-2 Triplex					SARS-CoV-2 N1				6510	SARS-CoV-2 N2				6510																																				CDC N1/N2/RP Triplex	0.005	Sample		5/14/21	100			PEG Precipitation	7				MVS	WWTP	Sample	5/17/21	0.2			Qiagen QiaAMP Viral Mini-RNA Kit	0.06				MVS	StarCityWWTP-01	EL	5/14/21 10:54	Composite	5/13/21 11:59	5/13/21 12:00	9.878		Pass	MVS	5/14/21		Monongalia	Processing	Complete
H01-0040	10201	OneStep RT-ddPCR	Human RNase P	4.61360991	8217.992652	None				11/29/21	Manual	DQ	58477038	QX 200	CDC nCov-2 Triplex	C4	AP0022	C04	JL	SARS-CoV-2 N1	16.15159392	0	1092.976303	28770.02668	SARS-CoV-2 N2	27.69524097	0	1279.930573	49332.14799																																					0.005	Sample		2021-11-22	10	NT04474	Halcyon	Ceres Nanotrap	0.475		CP0039	A04	AJ	WWTP	Sample	2021-11-22	0.4	2108255	Halcyon	Ultra 2.0 Microbiome (Thermo)	0.075	C4	EP0039	A04	AJ	MoundsvilleWWTP-01	-	11/15/21 8:15	Composite	11/15/21 8:00	11/14/21 8:00			Pass	AJ	11/19/21	6.98	Marshall	Processing	Complete
A02-0081																																																																			Sample		9/3/21	10	NT04155	Halcyon	Ceres Nanotrap	0.425		CP0008	B05	JL	WVU Morgantown	Sample	9/3/21	0.4	2102028	Halcyon	Thermo Magmax Microbiome Ultra Nucleic Acid Isolation Kit	0.05	J3	EP0008	A11	JL	CollegePark-02	EL	9/3/21 10:46	Grab	9/3/21 10:46	9/3/21 10:46			Pass	JL	9/3/21	8.22	Monongalia	Processing	Confirming
K01-0033																																																																																											ParkersburgWWTP-01												Wood		
A0239	10568	OneStep RT-ddPCR	Human RNase P		13350					3/11/21	Manual	DQ			CDC nCov-2 Triplex					SARS-CoV-2 N1				86880	SARS-CoV-2 N2				106950																																				CDC N1/N2/RP Triplex	0.005	Sample		2/22/21	100			PEG Precipitation	5				AT	WWTP	Sample	2/24/21	0.2			Qiagen QiaAMP Viral Mini-RNA Kit	0.06				AT	StarCityWWTP-01	GG	2/10/21 8:00	Composite	2/10/21 11:55	2/10/21 12:00	8.969		Pass	TD	2/11/21		Monongalia	Processing	Complete
A03-0175																																																																																											SuncrestES-01												Monongalia		
A02-0357																																																																																											WVU-Morgantown												Monongalia		
H01-0006	3500	OneStep RT-ddPCR	Human RNase P	0	0	None				10/20/21	Manual	DQ	58477038	QX One	CDC nCov-2 Triplex	I4	AP0014	D05	JL	SARS-CoV-2 N1	0	0	2152.007294	0	SARS-CoV-2 N2	0	0	2493.552246	0																																				CDC N1/N2/RP Triplex	0.005	Sample		10/18/21	10	NT04474	Halcyon	Ceres Nanotrap	0.425		CP0026	C04	JL	WWTP	Sample	10/18/21	0.4	2108255	Halcyon	Thermo Magmax Microbiome Ultra Nucleic Acid Isolation Kit	0.05	I4	EP0026	B04	JL	MoundsvilleWWTP-01	DRC	10/4/21 8:15	Composite	10/4/21 8:00	10/3/21 8:00			Pass	JL	10/8/21	6.93	Marshall	Processing	Confirming
A02-0141	14636	OneStep RT-ddPCR	Human RNase P	22.63067007	24045.08695					10/11/21	Manual	DQ	58477037	QX One	CDC nCov-2 Triplex	F4	AP0012	D01	JL	SARS-CoV-2 N1	1.507989615	0	1593.187866	1602.238966	SARS-CoV-2 N2	4.524278045	0	2077.493896	4807.045422																																				CDC N1/N2/RP Triplex	0.005	Sample		10/5/21	10	NT04474	Halcyon	Ceres Nanotrap	0.425		CP0020	A04	JL	WVU Morgantown	Sample	10/5/21	0.4	2108052	Halcyon	Thermo Magmax Microbiome Ultra Nucleic Acid Isolation Kit	0.05	F4	EP0020	A04	JL	NorthHighSt-02 (MUB)	EL	10/4/21 9:56	Composite	10/4/21 9:00	10/2/21 9:56			Pass	JL	10/4/21	7.76	Monongalia	Processing	Complete
C01-0041	12731	OneStep RT-ddPCR	Human RNase P	29.5897698402404	52706.7775279282	None				2021-12-03	Manual	DQ	58477038	QX 200	CDC nCov-2 Triplex	E8	AP0023	A08	JL	SARS-CoV-2 N1	72.1903610229492	0	1030.21682739258	128589.080572128	SARS-CoV-2 N2	33.2911086082458	0	1109.43168640137	59299.7872084378																																					0.005			2021-11-29	10	NT04474	Halcyon	Ceres Nanotrap	0.475		CP0040	B04	AJ	WWTP		2021-11-29	0.4	2108255	Halcyon	Thermo Magmax Microbiome Ultra Nucleic Acid Isolation Kit	0.075	E8	EP0040	A08	AJ	WheelingWWTP-01	-	11/18/21 7:00	Composite	11/18/21 7:00	11/17/21 7:00			Pass	AJ	11/23/21	6.18	Ohio	Processing	Complete
A03-0146																																																																																											MountainviewES-01												Monongalia		
A02-0178	16471	OneStep RT-ddPCR	Human RNase P	0	0	None				10/20/21	Manual	DQ	58477038	QX One	CDC nCov-2 Triplex	L3	AP0014	C07	JL	SARS-CoV-2 N1	0	0	2152.007294	0	SARS-CoV-2 N2	0	0	2493.552246	0																																					0.005	Sample		10/20/21	10	NT04474	Halcyon	Ceres Nanotrap	0.425		CP0027	C03	JL	WVU Morgantown	Sample	10/20/21	0.4	2108255	Halcyon	Thermo Magmax Microbiome Ultra Nucleic Acid Isolation Kit	0.05	L3	EP0027	B03	JL	HonorsSummit-01 (MUB)	CA	10/20/21 9:40	Composite	10/20/21 9:40	10/18/21 9:49			Pass	JL	10/20/21		Monongalia	Processing	Complete
A0025	12472	OneStep RT-ddPCR	Human RNase P		27158.4					12/14/20	Manual	DQ			CDC nCov-2 Triplex					SARS-CoV-2 N1				103305.6	SARS-CoV-2 N2				70675.2																																				CDC N1/N2/RP Triplex	0.005	Sample		12/4/20	100			PEG Precipitation	4.8				MS	WWTP	Sample	12/7/20	0.2			Qiagen QiaAMP Viral Mini-RNA Kit	0.06				MS	StarCityWWTP-01	GG	11/24/20 0:00	Composite	11/24/20 23:59	11/24/20 0:00	8.122		Pass	TD	11/30/20		Monongalia	Processing	Complete
G01-0051	11994	OneStep RT-ddPCR	Human RNase P	21.58931971	22938.65219	None				10/20/21	Manual	DQ	58477038	QX One	CDC nCov-2 Triplex	E5	AP0014	E01	JL	SARS-CoV-2 N1	94.35365677	0	2152.007294	100250.7603	SARS-CoV-2 N2	56.96007729	0	2493.552246	60520.08212																																					0.005	Sample		10/15/21	10	NT04474	Halcyon	Ceres Nanotrap	0.425		CP0025	A05	JL	WWTP	Sample	10/15/21	0.4	2108255	Halcyon	Thermo Magmax Microbiome Ultra Nucleic Acid Isolation Kit	0.05	E5	EP0025	A05	JL	KeyserWWTP-01	GP	10/12/21 9:00	Composite	10/12/21 9:00	10/11/21 9:00			Pass	JL	10/15/21	7.24	Mineral	Processing	Complete
C01-0024	51.5	OneStep RT-ddPCR	Human RNase P			None				11/1/21	OK	ABS	58477038	QX 200	CDC nCov-2 Triplex	D8	AP0015	D08	JL	SARS-CoV-2 N1					SARS-CoV-2 N2																																									0.005	Sample		10/27/21	10	NT04474	Kookaburra	Ceres Nanotrap	0.425		CP0029	B04	JL	WWTP	Sample	10/27/21	0.4	2108255	Halcyon	Thermo Magmax Microbiome Ultra Nucleic Acid Isolation Kit	0.05	D8	EP0029	A08	JL	WheelingWWTP-01	OR	10/19/21 7:00	Composite	10/19/21 7:00	10/18/21 7:00			Pass	JL	10/27/21	6.74	Ohio	Processing	Confirming
A02-0336																																																																																											WVU-Morgantown												Monongalia		
A02-0030	17182	OneStep RT-ddPCR	Human RNase P	17.45125413	18541.95751					8/23/21	CHECK	DQ	58477036	QX One	CDC nCov-2 Triplex	I6	AP0004	F01	JL	SARS-CoV-2 N1	190.769062	-20	2835.271912	202692.1284	SARS-CoV-2 N2	150.4138565	-20	3151.898499	159814.7225																																				CDC N1/N2/RP Triplex	0.005	Sample		8/23/21	10	NT04155	Kookaburra	Ceres Nanotrap	0.425		CP000002	A06	JL	WVU Morgantown	Sample	8/23/21	0.4	2102028	Kookaburra	Thermo Magmax Microbiome Ultra Nucleic Acid Isolation Kit	0.05		EP000002	A06	JL	NorthHighSt-02 (MUB)	EL	8/23/21 9:55	Composite	8/23/21 9:00	8/21/21 9:00			Pass	JL	8/23/21	7.28	Monongalia	Processing	Complete
A1037	10058	OneStep RT-ddPCR	Human RNase P		42138					5/3/21	Manual	DQ		QX 200	CDC nCov-2 Triplex					SARS-CoV-2 N1				4212	SARS-CoV-2 N2				0																																				CDC N1/N2/RP Triplex	0.005	Sample		4/30/21	100			PEG Precipitation	3				KED	WWTP	Sample	5/3/21	0.2			Qiagen QiaAMP Viral Mini-RNA Kit	0.06				KED	StarCityWWTP-01	EL	4/30/21 11:07	Composite	4/26/21 11:59	4/26/21 12:00	10.049		Pass	MVS	4/30/21		Monongalia	Processing	Complete
K01-0041																																																																																											ParkersburgWWTP-01												Wood		
A02-0152 c	13540	OneStep RT-ddPCR	Human RNase P		18774					3/11/21	Manual	DQ		QX 200	CDC nCov-2 Triplex					SARS-CoV-2 N1				25038	SARS-CoV-2 N2				40680																																				CDC N1/N2/RP Triplex	0.005	Sample	Was A05-0004		100			PEG Precipitation	3					WWTP	Sample		0.2			Qiagen QiaAMP Viral Mini-RNA Kit	0.06					StarCityWWTP-01	EL	2/21/21 12:00	Composite	2/21/21 12:00	2/21/21 12:00	9.628		Pass				Monongalia	Rejected	Test
A01-0014	9330	OneStep RT-ddPCR	Human RNase P	23.82697105	25316.15674					8/27/21	Manual	DQ	58477036	QX One	CDC nCov-2 Triplex	E1	AP0005	A04	JL	SARS-CoV-2 N1	115.8988857	0	2615.09491	123142.5661	SARS-CoV-2 N2	150.0674725	0	2786.116028	159446.6895																																				CDC N1/N2/RP Triplex	0.005	Sample		8/27/21	10	XXXXXX	Halcyon	Ceres Nanotrap	0.425		CP000000	A01	JL	WWTP	Sample	8/30/21	0.4	2102028	Kookaburra	Thermo Magmax Microbiome Ultra Nucleic Acid Isolation Kit	0.05	E1	EP0006	A01	JL	StarCityWWTP-01	GG	8/24/21 23:55	Composite	8/24/21 23:55	8/24/21 0:00	9.811		Pass	JL	8/27/21	7.16	Monongalia	Processing	Complete
B01-0009		OneStep RT-ddPCR	Human RNase P	3.280195892	3485.208135	None				11/1/21	CHECK	ABS	58477038	QX 200	CDC nCov-2 Triplex	B5	AP0015	B05	JL	SARS-CoV-2 N1	26.25101328	0	1707.766876	27891.70161	SARS-CoV-2 N2	44.31112289	0	1836.244965	47080.56808																																				CDC N1/N2/RP Triplex	0.005	Sample		10/25/21	10	NT04474	Halcyon	Ceres Nanotrap	0.425	C3	CP0028	C01	JL	WWTP	Sample	10/25/21	0.4	2108255	Halcyon	Thermo Magmax Microbiome Ultra Nucleic Acid Isolation Kit	0.05	B5	EP0028	B05	JL	CharlestonWWTP-01	KM	9/28/21 8:00	Composite	9/28/21 7:00	9/27/21 7:00			Pass	JL	9/30/21		Kanawha	Processing	Complete
K01-0030																																																																																											ParkersburgWWTP-01												Wood		
C01-0002	15419	OneStep RT-ddPCR	Human RNase P	1.526050568	1621.428728					9/24/21	Manual	DQ	XXXXXX	QX 200	CDC nCov-2 Triplex	H2	AP0009	A02	JL	SARS-CoV-2 N1	15.26496172	0	878.4640503	16219.02183	SARS-CoV-2 N2	18.31914425	0	968.4371185	19464.09076																																				CDC N1/N2/RP Triplex	0.005	Sample	Water was very dirty with solid matter; water was colored black essentially when unsettled.	9/17/21	10	NT04155	Halcyon	Ceres Nanotrap	0.425		CP0013	B02	JL	WWTP	Sample	9/17/21	0.4	2105033	Halcyon	Thermo Magmax Microbiome Ultra Nucleic Acid Isolation Kit	0.05	F6	EP0012	A06	JL	WheelingWWTP-01	MVC	9/14/21 7:00	Composite	9/14/21 7:00	9/13/21 7:00			Pass	JL	9/17/21	6.07	Ohio	Processing	Complete
A1077	14191	OneStep RT-ddPCR		61.43		BRSV		145896.25		7/7/21	Manual	DQ			BRSV Triplex					SARS-CoV-2 N1	0			0	SARS-CoV-2 N2	1.66			3942.5																																				N1/N2/BRSV Triplex	0.005	Sample		7/7/21	10			Ceres Nanotrap	0.95	pH - 6.42				WWTP	Sample	7/7/21	0.4			Thermo Magmax Microbiome Ultra Nucleic Acid Isolation Kit	0.05					StarCityWWTP-01	EL	6/23/21 23:55	Composite	6/23/21 23:55	6/23/21 0:00	11.82		Pass	JL	6/25/21	6.42	Monongalia	Processing	Complete
A02-0136	11359	OneStep RT-ddPCR	Human RNase P	83.65310669	88881.42586					10/5/21	Manual	DQ	58477037	QX One	CDC nCov-2 Triplex	D3	AP0011	C02	JL	SARS-CoV-2 N1	4.175654352	1355.395355	0	4436.632749	SARS-CoV-2 N2	20.88562727	1548.404388	0	22190.97897																																				CDC N1/N2/RP Triplex	0.005	Sample		10/1/21	10	NT04474	Halcyon	Ceres Nanotrap	0.425	D3	CP0019	B05	JL	WVU Morgantown	Sample	10/1/21	0.4	2108052	Halcyon	Thermo Magmax Microbiome Ultra Nucleic Acid Isolation Kit	0.05	D3	EP0019	B03	JL	HonorsSummit-01 (MUB)	EL	10/1/21 10:02	Composite	10/1/21 10:02	9/29/21 10:02			Pass	JL	10/1/21		Monongalia	Processing	Complete
A03-0007	13221	OneStep RT-ddPCR	Human RNase P	114.1773605	121313.4456					9/20/21	Manual	DQ	58477037	QX 200	CDC nCov-2 Triplex	F4	AP0008	D04	JL	SARS-CoV-2 N1	5.339705348	0	1320.22522	5673.436932	SARS-CoV-2 N2	16.02275252	0	1524.019623	17024.17456																																				CDC N1/N2/RP Triplex	0.005	Sample		9/17/21	10	NT04155	Halcyon	Ceres Nanotrap	0.425		CP0013	A04	JL	K-12	Sample	9/17/21	0.4	2105033	Halcyon	Thermo Magmax Microbiome Ultra Nucleic Acid Isolation Kit	0.05	F4	EP0012	A04	JL	UniversityHS-01	TD	9/20/21 17:15	Composite	9/15/21 14:00	9/15/21 6:00			Pass	TD	9/16/21	7.99	Monongalia	Processing	Complete
A02-0270																																																																																											WVU-Morgantown												Monongalia		
A02-0267																																																																																											WVU-Morgantown												Monongalia		
A01-0055	15213	OneStep RT-ddPCR	Human RNase P	216.2626457	229779.0611					10/14/21	Manual	DQ	58477038	QX One	CDC nCov-2 Triplex	NAB_11 G2	AP0013	A04	JL	SARS-CoV-2 N1	103.48382	0	1707.766876	109951.5587	SARS-CoV-2 N2	135.6477165	0	1836.244965	144125.6988																																				CDC N1/N2/RP Triplex	0.005	Sample		10/5/21	10	NT04474	Halcyon	Ceres Nanotrap	0.425		CP0020	B04	JL	WWTP	Sample	10/5/21	0.4	2108052	Halcyon	Thermo Magmax Microbiome Ultra Nucleic Acid Isolation Kit	0.05		EP0020	A10	JL	StarCityWWTP-01	GG	10/4/21 23:55	Composite	10/4/21 23:55	10/4/21 0:00	8.904		Pass	JL	10/5/21	7.38	Monongalia	Processing	Complete
A02-0339																																																																																											WVU-Morgantown												Monongalia		
A1045	14509	OneStep RT-ddPCR	Human RNase P		38940					5/7/21	Manual	DQ		QX 200	CDC nCov-2 Triplex					SARS-CoV-2 N1				9720	SARS-CoV-2 N2				9720																																				CDC N1/N2/RP Triplex	0.005	Sample	Reconc vol estimated	5/7/21	100			PEG Precipitation	5					WWTP	Sample		0.2			Qiagen QiaAMP Viral Mini-RNA Kit	0.06					StarCityWWTP-01	GG	5/6/21 23:55	Composite	5/6/21 23:55	5/6/21 0:00	12.281		Pass	Josh Lambert	5/7/21		Monongalia	Processing	Complete
A02-0243																																																																															WVU Morgantown												OaklandE-02	GZ	12/06/2021 09:25 AM	Composite	12/06/2021 09:00 AM	12/04/2021 09:00 AM			Pass	AJ	12/06/2021	7.80	Monongalia		
G02-0021																																																																			Sample	2 DAY COMPOSITE	11/12/21	10	NT04474	Kookaburra	Ceres Nanotrap	0.425		CP0035	D04	AJ	WVU Keyser	Sample	11/12/21	0.4	2108255	Kookaburra	Thermo Magmax Microbiome Ultra Nucleic Acid Isolation Kit	0.05	H8	EP0035	B08	AJ	PotomacState-01	S	11/8/21 11:30	Composite	11/7/21 11:30	11/5/21 10:30			Pass	JL	11/12/21	7.03	Mineral	Processing	Processing
A1106	18310	OneStep RT-ddPCR				BRSV	492.1482468	522907.5122		8/13/21	Manual	DQ		QX 200	BRSV Triplex		AP000000	A02	JL	SARS-CoV-2 N1	8.997125626	0	2236.361694	9559.445977	SARS-CoV-2 N2	11.56836629	0	2276.707153	12291.38918																																				N1/N2/BRSV Triplex	0.005	Sample		8/13/21	10	NT04155	Kookaburra	Ceres Nanotrap	0.425		CP000000	A02	JL		Sample	8/13/21	0.4	2102028	Kookaburra	Thermo Magmax Microbiome Ultra Nucleic Acid Isolation Kit	0.05		EP000000	A02	JL									Fail					Rejected	Rejected
A02-0320																																																																																											WVU-Morgantown												Monongalia		
A02-0093	11195	OneStep RT-ddPCR	Human RNase P	50.49683571	53652.88794					9/20/21	Manual	DQ	58477037	QX 200	CDC nCov-2 Triplex	A6	AP0008	A06	JL	SARS-CoV-2 N1	67.35322475	0	1320.22522	71562.8013	SARS-CoV-2 N2	52.60322571	0	1524.019623	55890.92731																																				CDC N1/N2/RP Triplex	0.005	Sample		9/13/21	10	NT04155	Halcyon	Ceres Nanotrap	0.425		CP0011	A06	JL	WVU Morgantown	Sample	9/13/21	0.4	2105033	Halcyon	Thermo Magmax Microbiome Ultra Nucleic Acid Isolation Kit	0.05	A6	EP0011	A06	JL	HonorsSummit-01 (MUB)	EL	9/10/21 9:30	Composite	9/10/21 9:30	9/8/21 9:30			Pass	JL	9/13/21	7.08	Monongalia	Processing	Complete
A0032	10476	OneStep RT-ddPCR	Human RNase P		28299.6					12/14/20	Manual	DQ			CDC nCov-2 Triplex					SARS-CoV-2 N1				443142	SARS-CoV-2 N2				408920.4																																				CDC N1/N2/RP Triplex	0.005	Sample		12/4/20	100			PEG Precipitation	4.2				MS	WWTP	Sample	12/7/20	0.2			Qiagen QiaAMP Viral Mini-RNA Kit	0.06				MS	StarCityWWTP-01	GG	12/2/20 0:00	Composite	12/2/20 23:59	12/2/20 0:00	10.819 		Pass	TD	12/4/20		Monongalia	Processing	Complete
E01-0009	16063	OneStep RT-ddPCR	Human RNase P	7.325242162	13048.0876	None				11/29/21	Manual	DQ	58477038	QX 200	CDC nCov-2 Triplex	D4	AP0022	D04	JL	SARS-CoV-2 N1	35.18198013	0	1092.976303	62667.90211	SARS-CoV-2 N2	33.71501446	0	1279.930573	60054.8695																																					0.005	Sample		2021-11-22	10	NT04474	Halcyon	Ceres Nanotrap	0.475		CP0039	C04	AJ	WWTP	Sample	2021-11-22	0.4	2108255	Halcyon	Ultra 2.0 Microbiome (Thermo)	0.075	D4	EP0039	B04	AJ	PrincetonWWTP-01	-	11/17/21 8:00	Composite	11/17/21 8:00	11/16/21 8:00			Pass	AJ	11/19/21	6.85	Mercer	Processing	Complete
H01-0008	21356	OneStep RT-ddPCR	Human RNase P	2.775782049	2949.268427					10/11/21	Manual	DQ	58477037	QX One	CDC nCov-2 Triplex	A2	AP0012	B06	JL	SARS-CoV-2 N1	341.9828033	0	1593.187866	363356.7286	SARS-CoV-2 N2	220.0916862	0	2077.493896	233847.4166																																				CDC N1/N2/RP Triplex	0.005	Sample		10/8/21	10	NT04474	Halcyon	Ceres Nanotrap	0.425		CP0022	C06	JL	WWTP	Sample	10/8/21	0.4	2108052	Halcyon	Thermo Magmax Microbiome Ultra Nucleic Acid Isolation Kit	0.05	A2	EP0022	C02	JL	MoundsvilleWWTP-01	DRC	10/6/21 8:15	Composite	10/6/21 8:00	10/5/21 8:00			Pass	JL	10/8/21	7	Marshall	Processing	Complete
E02-0010	15890	OneStep RT-ddPCR	Human RNase P	5.923819542	10551.80356	None				11/29/21	Manual	DQ	58477038	QX 200	CDC nCov-2 Triplex	D1	AP0022	D01	JL	SARS-CoV-2 N1	35.56530952	0	1092.976303	63350.70759	SARS-CoV-2 N2	32.59948015	0	1279.930573	58067.82402																																					0.005	Sample		2021-11-22	10	NT04474	Halcyon	Ceres Nanotrap	0.475		CP0039	C01	AJ	WWTP	Sample	2021-11-22	0.4	2108255	Halcyon	Ultra 2.0 Microbiome (Thermo)	0.075	D1	EP0039	B01	AJ	AthensWWTP-01	-	11/17/21 8:00	Composite	11/17/21 8:00	11/16/21 8:00			Pass	AJ	11/19/21	7.13	Mercer	Processing	Complete
H01-0021		OneStep RT-ddPCR	Human RNase P			None				11/1/21	CHECK	ABS	58477038	QX 200	CDC nCov-2 Triplex	C6	AP0015	C06	JL	SARS-CoV-2 N1					SARS-CoV-2 N2																																									0.005	Sample		10/25/21	10	NT04474	Halcyon	Ceres Nanotrap	0.425		CP0028	D04	JL	WWTP	Sample	10/25/21	0.4	2108255	Halcyon	Thermo Magmax Microbiome Ultra Nucleic Acid Isolation Kit	0.05	C6	EP0028	C06	JL	MoundsvilleWWTP-01	DRC	10/19/21 8:15	Composite	10/19/21 8:00	10/18/21 8:00			Pass	JL	10/25/21	7.06	Marshall	Processing	Processing
A0102	11130	OneStep RT-ddPCR	Human RNase P		38821.2					11/10/20	Manual	DQ		QX 200	CDC nCov-2 Triplex					SARS-CoV-2 N1				12933.6	SARS-CoV-2 N2				21562.8																																				CDC N1/N2/RP Triplex	0.005	Sample		11/9/20	100			PEG Precipitation	3.4				MS	WWTP	Sample	11/10/20	0.2			Qiagen QiaAMP Viral Mini-RNA Kit	0.06				MS	StarCityWWTP-01	GS	11/3/20 0:00	Composite	11/3/20 23:59	11/3/20 0:00	6.967		Pass	TD	11/9/20		Monongalia	Processing	Complete
A1078	10954	OneStep RT-ddPCR		40.85		BRSV		97018.75		7/9/21	Manual	DQ			BRSV Triplex					SARS-CoV-2 N1	0			0	SARS-CoV-2 N2	0			0																																				N1/N2/BRSV Triplex	0.005	Sample		7/9/21	10			Ceres Nanotrap	0.95	pH - 6.39				WWTP	Sample	7/9/21	0.4			Thermo Magmax Microbiome Ultra Nucleic Acid Isolation Kit	0.05				JL	StarCityWWTP-01	EL	6/24/21 23:55	Composite	6/24/21 23:55	6/24/21 0:00	7.935		Pass	JL	7/9/21	6.39	Monongalia	Processing	Complete
A02-0154 c	9990	OneStep RT-ddPCR	Human RNase P		16956					3/15/21	Manual	DQ		QX 200	CDC nCov-2 Triplex					SARS-CoV-2 N1				25452	SARS-CoV-2 N2				8496																																				CDC N1/N2/RP Triplex	0.005	Sample	Was A06-0017		100			PEG Precipitation	6					WWTP	Sample		0.2			Qiagen QiaAMP Viral Mini-RNA Kit	0.06					StarCityWWTP-01	EL	2/23/21 12:00	Composite	2/23/21 12:00	2/23/21 12:00	12.341		Pass				Monongalia	Rejected	Test
A0101	13937	OneStep RT-ddPCR	Human RNase P		17010					11/10/20	Manual	DQ		QX 200	CDC nCov-2 Triplex					SARS-CoV-2 N1				8517.6	SARS-CoV-2 N2				12776.4																																				CDC N1/N2/RP Triplex	0.005	Sample		11/9/20	100			PEG Precipitation	4.2				MS	WWTP	Sample	11/10/20	0.2			Qiagen QiaAMP Viral Mini-RNA Kit	0.06				MS	StarCityWWTP-01	GS	11/2/20 0:00	Composite	11/2/20 23:59	11/2/20 0:00	7.406		Pass	TD	11/9/20		Monongalia	Processing	Complete
A03-0129																																																																															K-12												NorthES-01	GZ	12/03/2021 02:02 PM	Composite	12/03/2021 02:00 PM	12/03/2021 06:00 AM							Monongalia		
A01-0119																																																																																											StarCityWWTP-01												Monongalia		
A0229	13863	OneStep RT-ddPCR	Human RNase P		0					2/22/21	Manual	DQ			CDC nCov-2 Triplex					SARS-CoV-2 N1				61140	SARS-CoV-2 N2				50940																																				CDC N1/N2/RP Triplex	0.005	Sample		2/5/21	100			PEG Precipitation	5				MS	WWTP	Sample	2/19/21	0.2			Qiagen QiaAMP Viral Mini-RNA Kit	0.06				MS	StarCityWWTP-01	GS	1/27/21 0:00	Composite	1/27/21 23:59	1/27/21 0:00	9.352		Pass	TD	1/29/21		Monongalia	Processing	Complete
A02-0123	16385	OneStep RT-ddPCR	Human RNase P	11.49107456	12209.26672					9/24/21	Manual	DQ		QX 200	CDC nCov-2 Triplex	J4	AP0009	C04	JL	SARS-CoV-2 N1	2.87224263	0	878.4640503	3051.757794	SARS-CoV-2 N2	4.308495522	0	968.4371185	4577.776492																																				CDC N1/N2/RP Triplex	0.005	Sample		9/24/21	10		Halcyon	Ceres Nanotrap	0.425		CP0016	D02	JL	WVU Morgantown	Sample	9/24/21	0.4	XXXXXX	Halcyon	Thermo Magmax Microbiome Ultra Nucleic Acid Isolation Kit	0.05	J4	EP0016	B08	JL	CollegePark-02	EL	9/22/21 10:22	Composite	9/22/21 10:22	9/20/21 10:22			Pass	JL	9/22/21	7.27	Monongalia	Processing	Complete
G02-0012																																																																			Sample												WVU Keyser	Sample											PotomacState-01	Z	10/27/21 11:30	Composite	10/27/21 11:30	10/26/21 10:30			Pass	JL	11/2/21	7	Mineral	Processing	Processing
A0232	16039	OneStep RT-ddPCR	Human RNase P		0					2/22/21	Manual	DQ			CDC nCov-2 Triplex					SARS-CoV-2 N1				39630	SARS-CoV-2 N2				26400																																				CDC N1/N2/RP Triplex	0.005	Sample		2/5/21	100			PEG Precipitation	5				MS	WWTP	Sample	2/19/21	0.2			Qiagen QiaAMP Viral Mini-RNA Kit	0.06				MS	StarCityWWTP-01	GS	2/1/21 0:00	Composite	2/1/21 23:59	2/1/21 0:00	11.395		Pass	TD	2/4/21		Monongalia	Processing	Complete
A03-0177																																																																																											NorthES-01												Monongalia		
L01-0003																																																																																											WestUnionWWTP-01												Doddridge		
J01-0008																																																																															WWTP												AlpineLakeWWTP-01												Preston		
A01-0073	15317	OneStep RT-ddPCR	Human RNase P	26.12927675	27762.35655	None				11/4/21	Manual	DQ	58477038	QX 200	CDC nCov-2 Triplex	F4	AP0016	A04	JL	SARS-CoV-2 N1	118.5828781	0	1040.980072	125994.308	SARS-CoV-2 N2	92.35078812	0	1205.935364	98122.71237																																					0.005	Sample		11/2/21	10	NT04474	Kookaburra	Ceres Nanotrap	0.425		CP0031	D01	JL	WWTP	Sample	11/2/21	0.4	21108255	Kookaburra	Thermo Magmax Microbiome Ultra Nucleic Acid Isolation Kit	0.05	F4	EP0031	A04	JL	StarCityWWTP-01	GG	10/26/21 23:55	Composite	10/26/21 23:55	10/26/21 0:00	8.475 		Pass	JL	10/29/21	6.93	Monongalia	Processing	Complete
A03-0032	15226	OneStep RT-ddPCR	Human RNase P	26.17877007	27814.94319					10/11/21	Manual	DQ	58477037	QX One	CDC nCov-2 Triplex	I1	AP0012	A03	JL	SARS-CoV-2 N1	0	0	1593.187866	0	SARS-CoV-2 N2	157.5391388	0	2077.493896	167385.335																																				CDC N1/N2/RP Triplex	0.005	Sample		10/7/21	10	NT04474	Halcyon	Ceres Nanotrap	0.425		CP0021	C01	JL	K-12	Sample	10/7/21	0.4	2108052	Halcyon	Thermo Magmax Microbiome Ultra Nucleic Acid Isolation Kit	0.05	I1	EP0021	B01	JL	BrookhavenES-01	BL	9/30/21 10:50	Grab	9/30/21 10:50	9/30/21 10:50			Pass	JL	10/6/21	8.45	Monongalia	Processing	Complete
A02-0131	10318	OneStep RT-ddPCR	Human RNase P	15.96838236	16966.40626					9/29/21	Manual	DQ	58477037	QX 200	CDC nCov-2 Triplex	B4	AP0010	D04	JL	SARS-CoV-2 N1	0	0	1097.667847	0	SARS-CoV-2 N2	0	0	1200.682373	0																																				CDC N1/N2/RP Triplex	0.005	Sample		9/29/21	10	NT04474	Halcyon	Ceres Nanotrap	0.425		CP0018	A04	JL	WVU Morgantown	Sample	9/29/21	0.4	2105049	Halcyon	Thermo Magmax Microbiome Ultra Nucleic Acid Isolation Kit	0.05	B4	EP0018	A04	JL	HonorsSummit-01 (MUB)	EL	9/29/21 9:58	Composite	9/29/21 9:59	9/27/21 9:59			Pass	Josh Lambert	9/29/21	7.48	Monongalia	Processing	Complete
A01-0135																																																																																											StarCityWWTP-01												Monongalia		
J01-0009																																																																															WWTP												AlpineLakeWWTP-01												Preston		
A02-0049	14492	OneStep RT-ddPCR	Human RNase P	288.9755249	307036.4952					8/25/21	CHECK	DQ	58477036	QX One	CDC nCov-2 Triplex	A2 NAB_9	AP0004	B04	JL	SARS-CoV-2 N1	1.434933841	-20	2835.271912	1524.617206	SARS-CoV-2 N2	11.48224473	-20	3151.898499	12199.88503																																				CDC N1/N2/RP Triplex	0.005	Sample		8/25/21	10	NT04155	Kookaburra	Ceres Nanotrap	0.425		CP0004	B04	JL	WVU Morgantown	Sample	8/25/21	0.4	2102028	Kookaburra	Thermo Magmax Microbiome Ultra Nucleic Acid Isolation Kit	0.05	A2_NAB_9	EP0004	A10	JL	CollegePark-02	EL	8/25/21 10:04	Grab	8/25/21 10:04	8/25/21 10:04			Pass	JL	8/25/21	7.55	Monongalia	Processing	Complete
A03-0152																																																																																											MorgantownHS-01												Monongalia		
A02-0241																																																																															WWTP												WVU-Morgantown	-	12/01/2021 09:15 AM	Composite	12/01/2021 09:00 AM	11/29/2021 09:00 AM			Pass	AJ	12/02/2021	7.97	Monongalia		
C01-0033	15473	OneStep RT-ddPCR	Human RNase P	3.041547537	3231.644258	None				11/8/21	Manual	DQ	58477038	QX 200	CDC nCov-2 Triplex	C8	AP0017	C08	AJ	SARS-CoV-2 N1	6.083487868	0	560.2787018	6463.70586	SARS-CoV-2 N2	7.604606152	0	653.7683868	8079.894036																																					0.005	Sample		11/5/21	10	NT04474	Kookaburra	Ceres Nanotrap	0.425		CP00033	D06	JL	WWTP	Sample	11/5/21	0.4	21108255	Kookaburra	Thermo Magmax Microbiome Ultra Nucleic Acid Isolation Kit	0.05	C8	EP0033	C08	JL	WheelingWWTP-01	GZ	11/4/21 7:00	Composite	11/4/21 7:00	11/3/21 7:00			Pass	JL	11/5/21	6.51	Ohio	Processing	Complete
A01-0102		OneStep RT-ddPCR	Human RNase P			None				11/1/21	CHECK	ABS	58477038	QX 200	CDC nCov-2 Triplex	A4	AP0015	E04	JL	SARS-CoV-2 N1					SARS-CoV-2 N2																																									0.005			10/28/21	10	NT04474	Halcyon	Ceres Nanotrap	0.425		CP0030	A04	LW		Sample	10/28/21	0.4	2108255	Halcyon	Thermo Magmax Microbiome Ultra Nucleic Acid Isolation Kit	0.05	A4	EP0030	A04	LW															
C01-0029	14211	OneStep RT-ddPCR	Human RNase P	11.59288287	12317.43805	None				11/4/21	Manual	DQ	58477038	QX 200	CDC nCov-2 Triplex	H3	AP0016	C03	JL	SARS-CoV-2 N1	38.11236858	0	1040.980072	40494.39162	SARS-CoV-2 N2	33.13768625	0	1205.935364	35208.79164																																					0.005	Sample		11/2/21	10	NT04474	Kookaburra	Ceres Nanotrap	0.425		CP0031	C05	JL	WWTP	Sample	11/2/21	0.4	21108255	Kookaburra	Thermo Magmax Microbiome Ultra Nucleic Acid Isolation Kit	0.05	H3	EP0031	C03	JL	WheelingWWTP-01	GZ	10/28/21 7:00	Composite	10/28/21 7:00	10/27/21 7:00			Pass	JL	10/29/21	6.99	Ohio	Processing	Complete
A1072	11428	OneStep RT-ddPCR		84.57		BRSV		200853.75		7/7/21	Manual	DQ			BRSV Triplex					SARS-CoV-2 N1	0			0	SARS-CoV-2 N2	0			0																																				N1/N2/BRSV Triplex	0.005	Sample		7/7/21	10			Ceres Nanotrap	0.95	pH - 6.35				WWTP	Sample	7/7/21	0.4			Thermo Magmax Microbiome Ultra Nucleic Acid Isolation Kit	0.05				JL	StarCityWWTP-01	EL	6/16/21 23:55	Composite	6/16/21 23:55	6/16/21 0:00	9.596		Pass	JL	6/18/21	6.35	Monongalia	Processing	Complete
A01-0126																																																																																											StarCityWWTP-01												Monongalia		
A01-0021																																																																			Sample													Sample																									Unknown
A01-0046	16779	OneStep RT-ddPCR	Human RNase P	27.44614124	29161.52507					9/3/21	Manual	DQ		QX One	BRSV Triplex	I3	AP000000	B04	JL	SARS-CoV-2 N1	80.69766045	0	3138.026123	85741.26422	SARS-CoV-2 N2	72.10204124	0	3336.080627	76608.41882																																				CDC N1/N2/RP Triplex	0.005	Sample		9/3/21	10	NT04155	Halcyon	Ceres Nanotrap	0.425		CP0008	A03	JL	WWTP	Sample	9/3/21	0.4	2102028	Halcyon	Thermo Magmax Microbiome Ultra Nucleic Acid Isolation Kit	0.05	I3	EP0008	A03	JL	StarCityWWTP-01	JT	9/2/21 23:55	Composite	9/2/21 23:55	9/2/21 0:00	11.413		Pass	JL	9/2/21	6.74	Monongalia	Processing	Complete
B01-0059	3666	OneStep RT-ddPCR	Human RNase P	0	0	None				2021-12-03	Manual	DQ	58477038	QX 200	CDC nCov-2 Triplex	H7	AP0023	D07	JL	SARS-CoV-2 N1	0	0	1030.21682739258	0	SARS-CoV-2 N2	0	0	1109.43168640137	0																																					0.005	Sample		2021-11-30	10	NT04474	Halcyon	Ceres Nanotrap	0.475		CP0041	C03	AJ	WWTP	Sample	2021-11-30	0.4	2108255	Halcyon	Thermo Magmax Microbiome Ultra Nucleic Acid Isolation Kit	0.075	H7	EP0041	B07	AJ	CharlestonWWTP-01	-	11/25/2021 07:15 AM	Composite	11/25/2021 07:00 AM	11/24/2021 07:00 AM			Pass	AJ	11/30/2021	7.25	Kanawha	Processing	Unknown
A03-0171																																																																																											SuncrestES-01												Monongalia		
A02-0297																																																																																											WVU-Morgantown												Monongalia		
A01-0088	13295	OneStep RT-ddPCR	Human RNase P	24.79017258	26339.55836	None				11/22/21	Manual	DQ	58477038	QX 200	CDC nCov-2 Triplex	K2	AP0021	C02	JL	SARS-CoV-2 N1	24.79017258	1109.141006	0	26339.55836	SARS-CoV-2 N2	10.62116027	1229.36615	0	11284.98279																																					0.005	Sample	NO FLOW	11/17/21	10	NT04474	Halcyon	Ceres Nanotrap	0.425		CP0037	A02	JL	WWTP	Sample	11/17/21	0.4	2108255	Halcyon	Thermo Magmax Microbiome Ultra Nucleic Acid Isolation Kit	0.05	K2	EP0037	A02	JL	StarCityWWTP-01	-	11/13/21 23:55	Composite	11/13/21 23:55	11/13/21 0:00			Pass	JL	11/16/21	7.08	Monongalia	Processing	Complete
A02-0161	19481	OneStep RT-ddPCR	Human RNase P	320.9541702	341013.8059					10/14/21	Manual	DQ	58477038	QX One	CDC nCov-2 Triplex	B3	AP0013	C01	JL	SARS-CoV-2 N1	9.981848001	0	1707.766876	10605.7135	SARS-CoV-2 N2	13.30981493	0	1836.244965	14141.67836																																				CDC N1/N2/RP Triplex	0.005	Sample		10/11/21	10	NT04474	Halcyon	Ceres Nanotrap	0.425		CP0023	A03	JL	WVU Morgantown	Sample	10/11/21	0.4	2108255	Halcyon	Thermo Magmax Microbiome Ultra Nucleic Acid Isolation Kit	0.05	B3	EP0023	A03	JL	HonorsSummit-01 (MUB)	EL	10/11/21 9:31	Composite	10/11/21 9:00	10/9/21 9:00			Pass	JL	10/11/21	6.79	Monongalia	Processing	Complete
A1047	13275	OneStep RT-ddPCR	Human RNase P		0					5/19/21	Manual	DQ		QX 200	CDC nCov-2 Triplex					SARS-CoV-2 N1				0	SARS-CoV-2 N2				4779																																				CDC N1/N2/RP Triplex	0.005	Sample		5/18/21	100			PEG Precipitation	4.5				KD	WWTP	Sample	5/19/21	0.2			Qiagen QiaAMP Viral Mini-RNA Kit	0.06				KD	StarCityWWTP-01	EL	5/17/21 9:18	Composite	5/12/21 11:59	5/12/21 12:00	10.836		Pass	MVS	5/18/21		Monongalia	Processing	Complete
A02-0074	18056	OneStep RT-ddPCR	Human RNase P	58.7142849	62383.9277					9/9/21	Manual	DQ	58477037	QX 200	CDC nCov-2 Triplex	I4	AP0007	B06	JL	SARS-CoV-2 N1	36.51610851	0	1303.838043	38798.36529	SARS-CoV-2 N2	44.34836864	0	1366.207123	47120.14169																																				CDC N1/N2/RP Triplex	0.005	Sample		9/3/21	10	NT04155	Halcyon	Ceres Nanotrap	0.425		CP0008	A04	JL	WVU Morgantown	Sample	9/3/21	0.4	2102028	Halcyon	Thermo Magmax Microbiome Ultra Nucleic Acid Isolation Kit	0.05	I4	EP0008	A04	JL	Evansdale-01	EL	9/3/21 9:30	Composite	9/3/21 9:08	9/1/21 9:08			Pass	JL	9/3/21	6.81	Monongalia	Processing	Complete
A03-0030	15709	OneStep RT-ddPCR	Human RNase P	5.992082953	6366.588138					9/24/21	Manual	DQ	XXXXXX	QX 200	CDC nCov-2 Triplex	I7	AP0009	B07	JL	SARS-CoV-2 N1	14.9830699	0	878.4640503	15919.51177	SARS-CoV-2 N2	32.97535658	0	968.4371185	35036.31637																																				CDC N1/N2/RP Triplex	0.005	Sample		9/24/21	10		Halcyon	Ceres Nanotrap	0.425		CP0016	C03	JL	K-12	Sample	9/24/21	0.4	XXXXXX	Halcyon	Thermo Magmax Microbiome Ultra Nucleic Acid Isolation Kit	0.05	I7	EP0016	B03	JL	BrookhavenES-01	BL	9/20/21 10:20	Composite	9/17/21 14:00	9/17/21 6:00			Pass	TD	9/21/21	7.94	Monongalia	Processing	Complete
F01-0010	20839	OneStep RT-ddPCR	Human RNase P	12.00466752	12754.95924					10/14/21	Manual	DQ	58477038	QX One	CDC nCov-2 Triplex	B8	AP0013	H01	JL	SARS-CoV-2 N1	272.7396393	0	1707.766876	289785.8667	SARS-CoV-2 N2	275.7666779	0	1836.244965	293002.0952																																				CDC N1/N2/RP Triplex	0.005	Sample		10/11/21	10	NT04474	Halcyon	Ceres Nanotrap	0.425		CP0023	B04	JL	WWTP	Sample	10/11/21	0.4	2108255	Halcyon	Thermo Magmax Microbiome Ultra Nucleic Acid Isolation Kit	0.05	B8	EP0023	A08	JL	WestonWWTP-01	BP	10/8/21 13:30	Composite	10/8/21 10:00	10/7/21 10:00			Pass	JL	10/11/21	6.82	Lewis	Processing	Complete
A02-0061	14447	OneStep RT-ddPCR	Human RNase P	563.6185837	598844.7452					8/30/21	Manual	DQ	58477036	QX One	CDC nCov-2 Triplex	E3	AP0005	C04	JL	SARS-CoV-2 N1	228.0658913	0	2615.09491	242320.0095	SARS-CoV-2 N2	280.7928276	0	2786.116028	298342.3793																																				CDC N1/N2/RP Triplex	0.005	Sample		8/27/21	10	XXXXXX	Halcyon	Ceres Nanotrap	0.425		CP000000	A03	JL	WVU Morgantown	Sample	8/30/21	0.4	2102028	Kookaburra	Thermo Magmax Microbiome Ultra Nucleic Acid Isolation Kit	0.05	E3	EP0006	A03	JL	OaklandE-02	EL	8/30/21 9:46	Grab	8/30/21 9:46	8/30/21 9:46			Pass	JL	8/30/21	8.13	Monongalia	Processing	Complete
L01-0040																																																																																											WestUnionWWTP-01												Doddridge		
H01-0032	16636	OneStep RT-ddPCR	Human RNase P	21.2	22525					11/18/21	Manual	DQ	58477038	QX 200	CDC nCov-2 Triplex	G4	AP0020	D04	JL	SARS-CoV-2 N1	43.8	0	1193.4	46537.5	SARS-CoV-2 N2	29.8	0	1245	31662.5																																					0.005	Sample		11/12/21	10	NT04474	Kookaburra	Ceres Nanotrap	0.425		CP0035	A04	AJ	WWTP	Sample	11/12/21	0.4	2108255	Kookaburra	Thermo Magmax Microbiome Ultra Nucleic Acid Isolation Kit	0.05	G4	EP0035	A04	AJ	MoundsvilleWWTP-01	-	11/10/21 8:15	Composite	11/10/21 8:00	11/9/21 8:00			Pass	AJ	11/11/21	6.79	Marshall	Processing	Complete
A03-0165																																																																																											NorthES-01												Monongalia		
A02-0155	18494	OneStep RT-ddPCR				BRSV	1238.125916	1315508.785		8/13/21	Manual	DQ		QX 200	BRSV Triplex		AP000000	B01	JL	SARS-CoV-2 N1	3.817127943	0	2236.361694	4055.69844	SARS-CoV-2 N2	6.362224221	0	2276.707153	6759.86311																																				CDC N1/N2/RP Triplex	0.005	Sample	Was A07-0012	8/13/21	10	NT04155	Kookaburra	Ceres Nanotrap	0.425		CP000000	B03	JL	WVU Morgantown	Sample	8/13/21	0.4	2102028	Kookaburra	Thermo Magmax Microbiome Ultra Nucleic Acid Isolation Kit	0.05		EP000000	B03	JL	OaklandE-02	EL	8/11/21 9:19	Composite	8/11/21 9:00	8/10/21 9:00			Pass	JL	8/11/21	7.13	Monongalia	Processing	Complete
L01-0002																																																																																											WestUnionWWTP-01												Doddridge		
L01-0043																																																																																											WestUnionWWTP-01												Doddridge		
A02-0332																																																																																											WVU-Morgantown												Monongalia		
A02-0234	13843	OneStep RT-ddPCR	Human RNase P	80.0234031677246	142541.686892509	None				2021-12-03	Manual	DQ	58477038	QX 200	CDC nCov-2 Triplex	F6	AP0023	B06	JL	SARS-CoV-2 N1	1.69979497790337	0	1030.21682739258	3027.75980439037	SARS-CoV-2 N2	3.39971244335174	0	1109.43168640137	6055.73778972029																																					0.005			2021-11-29	10	NT04474	Halcyon	Ceres Nanotrap	0.475		CP0040	D02	AJ	WVU Morgantown		2021-11-29	0.4	2108255	Halcyon	Thermo Magmax Microbiome Ultra Nucleic Acid Isolation Kit	0.075	F6	EP0040	B06	AJ	HonorsSummit-01 (MUB)	JL	11/29/21 10:25	Composite	11/29/21 9:00	11/27/21 9:00			Pass	JL	11/29/21	7.54	Monongalia	Processing	Complete
L01-0005																																																																																											WestUnionWWTP-01												Doddridge		
J01-0050																																																																															WWTP												AlpineLakeWWTP-01												Preston		
A01-0011	17755	OneStep RT-ddPCR	Human RNase P	15.12162089	16066.7222					8/24/21	CHECK	DQ	58477036	QX One	CDC nCov-2 Triplex	K1	AP0004	F03	JL	SARS-CoV-2 N1	48.75270367	-20	2835.271912	51799.74765	SARS-CoV-2 N2	21.84480429	-20	3151.898499	23210.10455																																				CDC N1/N2/RP Triplex	0.005	Sample		8/24/21	10	NT04155	Halcyon	Ceres Nanotrap	0.425		CP0003	A01	JL	WWTP	Sample	8/24/21	0.4	2102028	Halcyon	Thermo Magmax Microbiome Ultra Nucleic Acid Isolation Kit	0.05	K1	EP0003	A01	JL	StarCityWWTP-01	GG	8/21/21 23:59	Composite	8/21/21 23:59	8/21/21 0:00	10.554		Pass	JL	8/24/21	7.23	Monongalia	Processing	Complete
E01-0013																																																																															WWTP												PrincetonWWTP-01	TT	12/01/2021 08:00 AM	Composite	12/01/2021 08:00 AM	11/30/2021 08:00 AM			Pass	AJ	12/02/2021	7.35	Mercer		
A01-0101	10936	OneStep RT-ddPCR	Human RNase P	2.151653916	2286.132285	None				10/20/21	Manual	DQ	58477038	QX One	CDC nCov-2 Triplex	K1	AP0014	A06	JL	SARS-CoV-2 N1	0	0	2152.007294	0	SARS-CoV-2 N2	0	0	2493.552246	0																																					0.005	Sample		10/20/21	10	NT04474	Halcyon	Ceres Nanotrap	0.425		CP0027	A01	JL	WWTP	Sample	10/20/21	0.4	2108255	Halcyon	Thermo Magmax Microbiome Ultra Nucleic Acid Isolation Kit	0.05	K1	EP0027	A01	JL	StarCityWWTP-01	GG	10/12/21 23:55	Composite	10/12/21 23:55	10/12/21 0:00	7.076 		Pass	JL	10/20/21		Monongalia	Processing	Complete
A1050	12110	OneStep RT-ddPCR		114.92		BRSV		272935		7/7/21	Manual	DQ			BRSV Triplex					SARS-CoV-2 N1	0			0	SARS-CoV-2 N2	0			0																																				N1/N2/BRSV Triplex	0.005	Sample		7/7/21	10			Ceres Nanotrap	0.95	pH - 6.98				WWTP	Sample	7/7/21	0.4			Thermo Magmax Microbiome Ultra Nucleic Acid Isolation Kit	0.05				JL	StarCityWWTP-01	EL	5/17/21 23:55	Composite	5/17/21 23:55	5/17/21 0:00	7.923		Pass	JL	5/21/21	6.98	Monongalia	Processing	Complete
H01-0082																																																																															WWTP												MoundsvilleWWTP-01												Marshall		
A0049	16890	OneStep RT-ddPCR	Human RNase P		26736					2/22/21	Manual	DQ			CDC nCov-2 Triplex					SARS-CoV-2 N1				60192	SARS-CoV-2 N2				33456																																				CDC N1/N2/RP Triplex	0.005	Sample		1/3/21	100			PEG Precipitation	8				MS	WWTP	Sample	2/17/21	0.2			Qiagen QiaAMP Viral Mini-RNA Kit	0.06				MS	StarCityWWTP-01	GG	12/28/20 0:00	Composite	12/28/20 11:59	12/28/20 12:00	11.750		Pass	TD	1/14/21		Monongalia	Processing	Complete
L01-0012																																																																																											WestUnionWWTP-01												Doddridge		
A0230	14435	OneStep RT-ddPCR	Human RNase P		4890					3/22/21	Manual	DQ			CDC nCov-2 Triplex					SARS-CoV-2 N1				156660	SARS-CoV-2 N2				176250																																				CDC N1/N2/RP Triplex	0.005	Sample		2/5/21	100			PEG Precipitation	5				MS	WWTP	Sample	2/19/21	0.2			Qiagen QiaAMP Viral Mini-RNA Kit	0.06				MS	StarCityWWTP-01	GS	1/28/21 0:00	Composite	1/28/21 23:59	1/28/21 0:00	8.148		Pass	TD	1/29/21		Monongalia	Processing	Complete
H01-0085																																																																															WWTP												MoundsvilleWWTP-01												Marshall		
A02-0217	16179	OneStep RT-ddPCR	Human RNase P	34.92954493	37112.64148	None				11/29/21	Manual	DQ	58477038	QX 200	CDC nCov-2 Triplex	J3	AP0022	A03	JL	SARS-CoV-2 N1	4.363358617	0	1092.976303	4636.06853	SARS-CoV-2 N2	16.00293875	0	1279.930573	17003.12242																																					0.005	Sample		2021-11-19	10	NT04474	Halcyon	Ceres Nanotrap	0.475		CP0038	A03	AJ	WVU Morgantown	Sample	2021-11-19	0.4	2108255	Halcyon	Ultra 2.0 Microbiome (Thermo)	0.075	J3	EP0038	A03	AJ	HonorsSummit-01 (MUB)	CA	11/12/21 10:30	Composite	11/12/21 9:58	11/10/21 9:58			Pass	JL	11/12/21	7.28	Monongalia	Processing	Complete
A1071	14407	OneStep RT-ddPCR		104.76		BRSV		248805		7/7/21	Manual	DQ			BRSV Triplex					SARS-CoV-2 N1	0			0	SARS-CoV-2 N2	1.63			3871.25																																				N1/N2/BRSV Triplex	0.005	Sample		7/7/21	10			Ceres Nanotrap	0.95	pH - 6.38				WWTP	Sample	7/7/21	0.4			Thermo Magmax Microbiome Ultra Nucleic Acid Isolation Kit	0.05				JL	StarCityWWTP-01	EL	6/15/21 23:55	Composite	6/15/21 23:55	6/15/21 0:00	11.758		Pass	JL	6/18/21	6.38	Monongalia	Processing	Complete
A01-0099	7813	OneStep RT-ddPCR	Human RNase P	0	0	None				2021-12-03	Manual	DQ	58477038	QX 200	CDC nCov-2 Triplex	H3	AP0023	D03	JL	SARS-CoV-2 N1	48.2345533370972	0	1030.21682739258	85917.7981317044	SARS-CoV-2 N2	12.0493721961975	0	1109.43168640137	21462.9442244768																																					0.005			2021-11-30	10	NT04474	Halcyon	Ceres Nanotrap	0.475		CP0041	B05	AJ	WWTP		2021-11-30	0.4	2108255	Halcyon	Thermo Magmax Microbiome Ultra Nucleic Acid Isolation Kit	0.075	H3	EP0041	B03	AJ	StarCityWWTP-01	-	11/26/2021 12:00 AM	Composite	11/26/2021 12:00 AM	11/25/2021 12:00 AM			Pass	AJ	11/30/2021	7.02	Monongalia	Processing	Confirming
A03-0102	15801	OneStep RT-ddPCR	Human RNase P	5.95719039440156	10611.2453900278	None				2021-12-03	Manual	DQ	58477038	QX 200	CDC nCov-2 Triplex	E3	AP0023	E03	JL	SARS-CoV-2 N1	4.46775138378144	0	1030.21682739258	7958.18215236069	SARS-CoV-2 N2	5.95719039440156	0	1109.43168640137	10611.2453900278																																					0.005	Sample		2021-12-02	10	NT04474	Kookaburra	Ceres Nanotrap	0.475		CP0042	A03	LW	K-12	Sample	2021-12-02	0.4	2108255	Kookaburra	Thermo Magmax Microbiome Ultra Nucleic Acid Isolation Kit	0.075	E3	EP0042	A03	LW	MorgantownHS-01	BL	10/21/21 13:55	Composite	10/20/21 14:00	10/20/21 6:00			Pass	JL	10/22/21		Monongalia	Processing	Complete
A02-0129	13382	OneStep RT-ddPCR	Human RNase P	5.275455713	5605.171695					9/29/21	Manual	DQ	58477037	QX 200	CDC nCov-2 Triplex	NAB_11 A1	AP0010	C01	JL	SARS-CoV-2 N1	14.07051206	0	1097.667847	14949.91906	SARS-CoV-2 N2	3.516839147	0	1200.682373	3736.641593																																				CDC N1/N2/RP Triplex	0.005	Sample		9/27/21	10	NT04474	Halcyon	Ceres Nanotrap	0.425		CP0017	C05	JL	WVU Morgantown	Sample	9/27/21	0.4	2105049	Halcyon	Thermo Magmax Microbiome Ultra Nucleic Acid Isolation Kit	0.05	NAB_11 A1	EP0017	B05	JL	NorthHighSt-02 (MUB)	EL	9/27/21 10:06	Composite	9/27/21 10:06	9/25/21 10:06			Pass	JL	9/27/21	6.57	Monongalia	Processing	Complete
A02-0110	9613	OneStep RT-ddPCR	Human RNase P	14.69057918	15608.74037					9/20/21	Manual	DQ	58477037	QX 200	CDC nCov-2 Triplex	G1	AP0008	E01	JL	SARS-CoV-2 N1	4.895840883	0	1320.22522	5201.830938	SARS-CoV-2 N2	2.447793186	0	1524.019623	2600.78026																																				CDC N1/N2/RP Triplex	0.005	Sample		9/17/21	10	NT04155	Halcyon	Ceres Nanotrap	0.425		CP0013	C01	JL	WVU Morgantown	Sample	9/17/21	0.4	2105033	Halcyon	Thermo Magmax Microbiome Ultra Nucleic Acid Isolation Kit	0.05	G1	EP0012	A09	JL	Evansdale-01	EL	9/17/21 9:30	Composite	9/17/21 9:30	9/15/21 9:30			Pass	JL	9/17/21	6.4	Monongalia	Processing	Complete
K01-0036																																																																																											ParkersburgWWTP-01												Wood		
A02-0285																																																																																											WVU-Morgantown												Monongalia		
C01-0016	15230	OneStep RT-ddPCR	Human RNase P	20.2657795	21532.39071					10/14/21	Manual	DQ	58477038	QX One	CDC nCov-2 Triplex	NAB_12 A7	AP0013	B04	JL	SARS-CoV-2 N1	33.30363035	0	1707.766876	35385.10725	SARS-CoV-2 N2	62.30428219	0	1836.244965	66198.29983																																				CDC N1/N2/RP Triplex	0.005	Sample		10/8/21	10	NT04474	Halcyon	Ceres Nanotrap	0.425		CP0022	D05	JL	WWTP	Sample	10/8/21	0.4	2108052	Halcyon	Thermo Magmax Microbiome Ultra Nucleic Acid Isolation Kit	0.05	A7	EP0022	C07	JL	WheelingWWTP-01	MVC	10/7/21 7:05	Composite	10/7/21 7:00	10/6/21 7:00			Pass	JL	10/8/21	6.53	Ohio	Processing	Complete
J01-0041																																																																															WWTP												AlpineLakeWWTP-01												Preston		
A03-0041	10647	OneStep RT-ddPCR	Human RNase P	0	0	None				10/20/21	Manual	DQ	58477038	QX One	CDC nCov-2 Triplex	H3	AP0014	C04	JL	SARS-CoV-2 N1	0	0	2152.007294	0	SARS-CoV-2 N2	0	0	2493.552246	0																																					0.005	Sample		10/18/21	10	NT04474	Halcyon	Ceres Nanotrap	0.425		CP0026	A03	JL	K-12	Sample	10/18/21	0.4	2108255	Halcyon	Thermo Magmax Microbiome Ultra Nucleic Acid Isolation Kit	0.05	H3	EP0026	A03	JL	NorthES-01	BL	10/14/21 11:00	Composite	10/11/21 14:00	10/11/21 6:00			Pass	JL	10/18/21		Monongalia	Processing	Complete
H01-0003	11714	OneStep RT-ddPCR	Human RNase P	9.676582813	10281.36924					10/5/21	Manual	DQ	58477037	QX One	CDC nCov-2 Triplex	D8	AP0011	H02	JL	SARS-CoV-2 N1	75.58712959	1355.395355	0	80311.32519	SARS-CoV-2 N2	21.29393816	1548.404388	0	22624.80929																																				CDC N1/N2/RP Triplex	0.005	Sample		10/1/21	10	NT04474	Halcyon	Ceres Nanotrap	0.425	D8	CP0019	C04	JL	WWTP	Sample	10/1/21	0.4	2108052	Halcyon	Thermo Magmax Microbiome Ultra Nucleic Acid Isolation Kit	0.05	D8	EP0019	B08	JL	MoundsvilleWWTP-01	DRC	9/30/21 8:10	Composite	9/30/21 8:00	9/29/21 8:00			Pass	JL	10/1/21		Marshall	Processing	Complete
A02-0196	13786	OneStep RT-ddPCR	Human RNase P	35.86931467	38111.14684	None				11/4/21	Manual	DQ	58477038	QX 200	CDC nCov-2 Triplex	G1	AP0016	B01	JL	SARS-CoV-2 N1	5.120841265	0	1040.980072	5440.893844	SARS-CoV-2 N2	8.535354137	0	1205.935364	9068.813771																																					0.005	Sample		11/2/21	10	NT04474	Kookaburra	Ceres Nanotrap	0.425		CP0031	A03	JL	WVU Morgantown	Sample	11/2/21	0.4	21108255	Kookaburra	Thermo Magmax Microbiome Ultra Nucleic Acid Isolation Kit	0.05	G1	EP0031	B01	JL	HonorsSummit-01 (MUB)	CA	10/29/21 11:55	Composite	10/29/21 9:55	10/27/21 9:55			Pass	JL	10/29/21	7.05	Monongalia	Processing	Complete
K01-0020																																																																																											ParkersburgWWTP-01												Wood		
F01-0011	15272	OneStep RT-ddPCR	Human RNase P	0	0					10/5/21	Manual	DQ	58477037	QX One	CDC nCov-2 Triplex	E6	AP0011	F03	JL	SARS-CoV-2 N1	76.9123745	1355.395355	0	81719.3979	SARS-CoV-2 N2	62.38012791	1548.404388	0	66278.8859																																				CDC N1/N2/RP Triplex	0.005	Sample		10/1/21	10	NT04474	Halcyon	Ceres Nanotrap	0.425	E6	CP0019	D04	JL	WWTP	Sample	10/1/21	0.4	2108052	Halcyon	Thermo Magmax Microbiome Ultra Nucleic Acid Isolation Kit	0.05	E6	EP0019	C06	JL	WestonWWTP-01	BP	9/28/21 11:00	Composite	9/28/21 10:00	9/27/21 10:00			Pass	JL	9/30/21		Lewis	Processing	Complete
A01-0063	10085	OneStep RT-ddPCR	Human RNase P	7.000370026	7437.893152	None				10/20/21	Manual	DQ	58477038	QX One	CDC nCov-2 Triplex	K3	AP0014	C06	JL	SARS-CoV-2 N1	46.70852184	0	2152.007294	49627.80446	SARS-CoV-2 N2	16.33743882	0	2493.552246	17358.52875																																					0.005	Sample		10/20/21	10	NT04474	Halcyon	Ceres Nanotrap	0.425		CP0027	A03	JL	WWTP	Sample	10/20/21	0.4	2108255	Halcyon	Thermo Magmax Microbiome Ultra Nucleic Acid Isolation Kit	0.05	K3	EP0027	A03	JL	StarCityWWTP-01	GG	10/14/21 23:55	Composite	10/14/21 23:55	10/14/21 0:00	6.950 		Pass	JL	10/20/21		Monongalia	Processing	Complete
H01-0081																																																																															WWTP												MoundsvilleWWTP-01												Marshall		
J01-0025																																																																															WWTP												AlpineLakeWWTP-01												Preston		
H01-0019		OneStep RT-ddPCR	Human RNase P			None				11/1/21	CHECK	ABS	58477038	QX 200	CDC nCov-2 Triplex	C5	AP0015	C05	JL	SARS-CoV-2 N1					SARS-CoV-2 N2																																									0.005	Sample		10/25/21	10	NT04474	Halcyon	Ceres Nanotrap	0.425		CP0028	D03	JL	WWTP	Sample	10/25/21	0.4	2108255	Halcyon	Thermo Magmax Microbiome Ultra Nucleic Acid Isolation Kit	0.05	C5	EP0028	C05	JL	MoundsvilleWWTP-01	DRC	10/18/21 8:15	Composite	10/18/21 8:00	10/17/21 8:00			Pass	JL	10/25/21	7.07	Marshall	Processing	Processing
H01-0017		OneStep RT-ddPCR	Human RNase P			None				11/1/21	CHECK	ABS	58477038	QX 200	CDC nCov-2 Triplex	C2	AP0015	C02	JL	SARS-CoV-2 N1					SARS-CoV-2 N2																																									0.005	Sample		10/25/21	10	NT04474	Halcyon	Ceres Nanotrap	0.425		CP0028	C06	JL	WWTP	Sample	10/25/21	0.4	2108255	Halcyon	Thermo Magmax Microbiome Ultra Nucleic Acid Isolation Kit	0.05	C2	EP0028	C02	JL	MoundsvilleWWTP-01	DRC	10/15/21 8:15	Composite	10/15/21 8:00	10/14/21 8:00			Pass	JL	10/25/21	7.1	Marshall	Processing	Processing
C01-0027	16804	OneStep RT-ddPCR	Human RNase P	11.20448112	11904.7612	None				11/4/21	Manual	DQ	58477038	QX 200	CDC nCov-2 Triplex	H1	AP0016	C01	JL	SARS-CoV-2 N1	33.62946272	0	1040.980072	35731.30414	SARS-CoV-2 N2	16.8087244	0	1205.935364	17859.26968																																					0.005	Sample		11/2/21	10	NT04474	Kookaburra	Ceres Nanotrap	0.425		CP0031	A05	JL	WWTP	Sample	11/2/21	0.4	21108255	Kookaburra	Thermo Magmax Microbiome Ultra Nucleic Acid Isolation Kit	0.05	H1	EP0031	C01	JL	WheelingWWTP-01	GZ	10/26/21 7:00	Composite	10/26/21 7:00	10/25/21 7:00			Pass	JL	10/29/21	7.06	Ohio	Processing	Complete
A1085	14894	OneStep RT-ddPCR		0		BRSV		0		7/9/21	Manual	DQ			BRSV Triplex					SARS-CoV-2 N1	0			0	SARS-CoV-2 N2	0			0																																				N1/N2/BRSV Triplex	0.005	Sample		7/9/21	10			Ceres Nanotrap	0.95	pH - 6.48				WWTP	Sample	7/9/21	0.4			Thermo Magmax Microbiome Ultra Nucleic Acid Isolation Kit	0.05				JL	StarCityWWTP-01	EL	7/5/21 23:55	Composite	7/5/21 23:55	7/5/21 0:00	6.52		Pass	JL	7/9/21	6.48	Monongalia	Processing	Complete
A1001	12141	OneStep RT-ddPCR	Human RNase P		46530					3/16/21	Manual	DQ		QX 200	CDC nCov-2 Triplex					SARS-CoV-2 N1				17430	SARS-CoV-2 N2				5820																																				CDC N1/N2/RP Triplex	0.005	Sample		3/12/21	100			PEG Precipitation	5				AHT	WWTP	Sample	3/15/21	0.2			Qiagen QiaAMP Viral Mini-RNA Kit	0.06				AHT	StarCityWWTP-01	EL	3/8/21 12:00	Composite	3/8/21 12:00	3/8/21 12:00	8.776		Pass	MVS	3/12/21		Monongalia	Processing	Complete
A03-0040	5239	OneStep RT-ddPCR	Human RNase P	0	0	None				10/20/21	Manual	DQ	58477038	QX One	CDC nCov-2 Triplex	H2	AP0014	B04	JL	SARS-CoV-2 N1	0	0	2152.007294	0	SARS-CoV-2 N2	0	0	2493.552246	0																																					0.005	Sample		10/18/21	10	NT04474	Halcyon	Ceres Nanotrap	0.425		CP0026	A02	JL	K-12	Sample	10/18/21	0.4	2108255	Halcyon	Thermo Magmax Microbiome Ultra Nucleic Acid Isolation Kit	0.05	H2	EP0026	A02	JL	MountainviewES-01	BL	10/8/21 14:00	Composite	10/8/21 14:00	10/8/21 6:00			Pass	JL	10/18/21		Monongalia	Processing	Complete
A0236	11600	OneStep RT-ddPCR	Human RNase P		12180					3/11/21	Manual	DQ			CDC nCov-2 Triplex					SARS-CoV-2 N1				6090	SARS-CoV-2 N2				48690																																				CDC N1/N2/RP Triplex	0.005	Sample		2/22/21	100			PEG Precipitation	5				AT	WWTP	Sample	2/24/21	0.2			Qiagen QiaAMP Viral Mini-RNA Kit	0.06				AT	StarCityWWTP-01	GG	2/7/21 8:00	Composite	2/7/21 11:55	2/7/21 12:00	10.415		Pass	TD	2/11/21		Monongalia	Processing	Complete
J01-0035																																																																															WWTP												AlpineLakeWWTP-01												Preston		
A02-0308																																																																																											WVU-Morgantown												Monongalia		
A02-0055	13774	OneStep RT-ddPCR	Human RNase P	49.38784599	52474.58637					9/2/21	Manual	DQ		QX One	BRSV Triplex	G2	AP000000	B02	JL	SARS-CoV-2 N1	7.709282637	0	3138.026123	8191.112801	SARS-CoV-2 N2	9.251475334	0	3336.080627	9829.692543																																				CDC N1/N2/RP Triplex	0.005	Sample		9/2/21	10	 NT04155	Kookaburra	Ceres Nanotrap	0.425		CP0007	B04	JL	WVU Morgantown	Sample	9/2/21	0.4	2102028	Halcyon	Thermo Magmax Microbiome Ultra Nucleic Acid Isolation Kit	0.05	G2	EP0007	A10	JL	HonorsSummit-01 (MUB)	EL	8/27/21 10:18	Grab	8/27/21 10:18	8/27/21 10:18			Pass	JL	8/27/21	7.97	Monongalia	Processing	Complete
K01-0022																																																																																											ParkersburgWWTP-01												Wood		
A02-0366																																																																																											WVU-Morgantown												Monongalia		
A02-0209	15879	OneStep RT-ddPCR	Human RNase P	34.10597563	36237.5991	None				11/8/21	Manual	DQ	58477038	QX 200	CDC nCov-2 Triplex	C2	AP0017	C02	AJ	SARS-CoV-2 N1	17.78825402	0	560.2787018	18900.0199	SARS-CoV-2 N2	17.78825402	0	653.7683868	18900.0199																																					0.005	Sample		11/5/21	10	NT04474	Kookaburra	Ceres Nanotrap	0.425		CP00033	C06	JL	WVU Morgantown	Sample	11/5/21	0.4	21108255	Kookaburra	Thermo Magmax Microbiome Ultra Nucleic Acid Isolation Kit	0.05	C2	EP0033	C02	JL	HonorsSummit-01 (MUB)	EL	11/5/21 11:01	Composite	11/5/21 10:04	11/3/21 10:04			Pass	JL	11/5/21	7.12	Monongalia	Processing	Complete
A02-0090	17810	OneStep RT-ddPCR	Human RNase P	30.40574074	32306.09953					9/9/21	Manual	DQ	58477037	QX 200	CDC nCov-2 Triplex	L5	AP0007	B05	JL	SARS-CoV-2 N1	48.93283844	0	1303.838043	51991.14084	SARS-CoV-2 N2	70.12454033	0	1366.207123	74507.3241																																				CDC N1/N2/RP Triplex	0.005	Sample		9/8/21	10	NT04155	Halcyon	Ceres Nanotrap	0.425		CP0010	A05	JL	WVU Morgantown	Sample	9/8/21	0.4	2102028	Halcyon	Thermo Magmax Microbiome Ultra Nucleic Acid Isolation Kit	0.05	L5	EP0010	A05	JL	CollegePark-02	EL	9/8/21 10:07	Composite	9/8/21 9:00	9/6/21 9:00			Pass	JL	9/8/21	7.07	Monongalia	Processing	Complete
H01-0075																																																																															WWTP												MoundsvilleWWTP-01												Marshall		
A02-0005	16325	OneStep RT-ddPCR	Human RNase P	11.53331876	12254.15118					8/16/21	Manual	DQ	58477036	QX 200	CDC nCov-2 Triplex		AP000000	A04	JL	SARS-CoV-2 N1	0	0	1714.019012	0	SARS-CoV-2 N2	2.882799804	0	1783.141785	3062.97486																																				CDC N1/N2/RP Triplex	0.005	Sample		8/16/21	10	NT04155	Halcyon	Ceres Nanotrap	0.425		CP000000	A04	JL	WVU Morgantown	Sample	8/16/21	0.4	2102028	Halcyon	Thermo Magmax Microbiome Ultra Nucleic Acid Isolation Kit	0.05		EP000000	A04	JL	Evansdale-01	Eric Lundstrom	8/13/21 9:12	Composite	8/13/21 9:00	8/12/21 9:00			Pass	Josh Lambert	8/13/21	7.34	Monongalia	Processing	Complete
G01-0061	15110	OneStep RT-ddPCR	Human RNase P	12.46096134	13239.77143	None				11/4/21	Manual	DQ	58477038	QX 200	CDC nCov-2 Triplex	F3	AP0016	A03	JL	SARS-CoV-2 N1	120.2115631	0	1040.980072	127724.7858	SARS-CoV-2 N2	109.2578316	0	1205.935364	116086.446																																					0.005	Sample		11/2/21	10	NT04474	Kookaburra	Ceres Nanotrap	0.425		CP0031	C01	JL	WWTP	Sample	11/2/21	0.4	21108255	Kookaburra	Thermo Magmax Microbiome Ultra Nucleic Acid Isolation Kit	0.05	F3	EP0031	A03	JL	KeyserWWTP-01	KK	10/26/21 8:40	Composite	10/26/21 8:00	10/25/21 9:00			Pass	JL	10/27/21	6.94	Mineral	Processing	Complete
E02-0007	11375	OneStep RT-ddPCR	Human RNase P	2.068610489	2197.898645	None				11/22/21	Manual	DQ	58477038	QX 200	CDC nCov-2 Triplex	K7	AP0021	C07	JL	SARS-CoV-2 N1	10.34487247	1109.141006	0	10991.427	SARS-CoV-2 N2	6.206377149	1229.36615	0	6594.27572																																					0.005	Sample		11/17/21	10	NT04474	Halcyon	Ceres Nanotrap	0.425		CP0037	B03	JL	WWTP	Sample	11/17/21	0.4	2108255	Halcyon	Thermo Magmax Microbiome Ultra Nucleic Acid Isolation Kit	0.05	K7	EP0037	A07	JL	AthensWWTP-01	-	11/12/21 8:00	Composite	11/11/21 8:00	11/10/21 8:00			Pass	JL	11/16/21	6.95	Mercer	Processing	Complete
A1066		OneStep RT-ddPCR				BRSV		0		7/7/21	Manual	DQ			BRSV Triplex					SARS-CoV-2 N1				0	SARS-CoV-2 N2				0																																				N1/N2/BRSV Triplex	0.005	Sample		7/7/21	10			Ceres Nanotrap	0.95	pH - 6.28				WWTP	Sample	7/7/21	0.4			Thermo Magmax Microbiome Ultra Nucleic Acid Isolation Kit	0.05				JL	StarCityWWTP-01	EL	6/8/21 23:55	Composite	6/8/21 23:55	6/8/21 0:00	6.899		Pass	JL	6/11/21	6.28	Monongalia	Processing	Complete
A03-0015																																																																			Sample													Sample																									Unknown
A01-0033	14498	OneStep RT-ddPCR	Human RNase P	25.98140955	27605.24765					9/20/21	Manual	DQ	58477037	QX 200	CDC nCov-2 Triplex	D1	AP0008	C01	JL	SARS-CoV-2 N1	112.2503185	0	1320.22522	119265.9634	SARS-CoV-2 N2	108.9891434	0	1524.019623	115800.9648																																				CDC N1/N2/RP Triplex	0.005	Sample		9/15/21	10	NT04155	Kookaburra	Ceres Nanotrap	0.425		CP0012	A01	JL	WWTP	Sample	9/15/21	0.4	2105033	Halcyon	Thermo Magmax Microbiome Ultra Nucleic Acid Isolation Kit	0.05	D1	EP0012	A01	JL	StarCityWWTP-01	GG	9/11/21 23:55	Composite	9/11/21 23:55	9/11/21 0:00	8.33		Pass	JL	9/15/21	6.74	Monongalia	Processing	Complete
H01-0007	18411	OneStep RT-ddPCR	Human RNase P	8.066952825	8571.137376					10/11/21	Manual	DQ	58477037	QX One	CDC nCov-2 Triplex	NAB_12 A1	AP0012	A06	JL	SARS-CoV-2 N1	74.04567719	0	1593.187866	78673.53201	SARS-CoV-2 N2	78.09090614	0	2077.493896	82971.58778																																				CDC N1/N2/RP Triplex	0.005	Sample		10/8/21	10	NT04474	Halcyon	Ceres Nanotrap	0.425		CP0022	C05	JL	WWTP	Sample	10/8/21	0.4	2108052	Halcyon	Thermo Magmax Microbiome Ultra Nucleic Acid Isolation Kit	0.05	NAB_12 A1	EP0022	C01	JL	MoundsvilleWWTP-01	DRC	10/5/21 8:15	Composite	10/5/21 8:00	10/4/21 8:00			Pass	JL	10/8/21	6.98	Marshall	Processing	Complete
I01-0048	12514	OneStep RT-ddPCR	Human RNase P	0	0	None				2021-12-03	Manual	DQ	58477038	QX 200	CDC nCov-2 Triplex	E2	AP0023	A02	JL	SARS-CoV-2 N1	0	0	1030.21682739258	0	SARS-CoV-2 N2	0	0	1109.43168640137	0																																					0.005			2021-11-29	10	NT04474	Halcyon	Ceres Nanotrap	0.475		CP0040	A02	AJ	WWTP		2021-11-29	0.4	2108255	Halcyon	Thermo Magmax Microbiome Ultra Nucleic Acid Isolation Kit	0.075	E2	EP0040	A02	AJ	WarmSpringsWWTP-01	-	11/16/21 9:00	Composite	11/16/21 7:00	11/15/21 7:00			Pass	AJ	11/19/21	6.77	Morgan	Processing	Complete
A01-0132																																																																																											StarCityWWTP-01												Monongalia		
G01-0004	13359	OneStep RT-ddPCR	Human RNase P	2.220667601	2359.459326					10/14/21	Manual	DQ	58477038	QX One	CDC nCov-2 Triplex	C7	AP0013	G02	JL	SARS-CoV-2 N1	86.72945976	0	1707.766876	92150.051	SARS-CoV-2 N2	26.65899038	0	1836.244965	28325.17728																																				CDC N1/N2/RP Triplex	0.005	Sample		10/13/21	10	NT04474	Halcyon	Ceres Nanotrap	0.425		CP0024	B03	JL	WWTP	Sample	10/13/21	0.4	2108255	Halcyon	Thermo Magmax Microbiome Ultra Nucleic Acid Isolation Kit	0.05	C7	EP0024	A07	JL	KeyserWWTP-01	GP	10/10/21 9:00	Composite	10/10/21 9:00	10/9/21 8:45			Pass	JL	10/13/21	6.93	Mineral	Processing	Complete
C01-0021																																																																			Sample												WWTP	Sample																									Unknown
B01-0061		OneStep RT-ddPCR	Human RNase P			None				11/1/21	CHECK	ABS	58477038	QX 200	CDC nCov-2 Triplex	D5	AP0015	D05	JL	SARS-CoV-2 N1					SARS-CoV-2 N2																																									0.005	Sample		10/27/21	10	NT04474	Kookaburra	Ceres Nanotrap	0.425		CP0029	B01	JL	WWTP	Sample	10/27/21	0.4	2108255	Halcyon	Thermo Magmax Microbiome Ultra Nucleic Acid Isolation Kit	0.05	D5	EP0029	A05	JL	CharlestonWWTP-01	-	10/22/21 8:00	Composite	10/22/21 7:00	10/21/21 7:00			Pass	JL	10/27/21	7.11	Kanawha	Processing	Processing
A02-0163	17400	OneStep RT-ddPCR	Human RNase P	63.07221413	67014.22751					10/14/21	Manual	DQ	58477038	QX One	CDC nCov-2 Triplex	B5	AP0013	E01	JL	SARS-CoV-2 N1	38.11803102	0	1707.766876	40500.40796	SARS-CoV-2 N2	43.98740768	0	1836.244965	46736.62066																																				CDC N1/N2/RP Triplex	0.005	Sample		10/11/21	10	NT04474	Halcyon	Ceres Nanotrap	0.425		CP0023	B01	JL	WVU Morgantown	Sample	10/11/21	0.4	2108255	Halcyon	Thermo Magmax Microbiome Ultra Nucleic Acid Isolation Kit	0.05	B5	EP0023	A05	JL	NorthHighSt-02 (MUB)	EL	10/11/21 9:41	Composite	10/11/21 9:00	10/9/21 9:00			Pass	JL	10/11/21	6.93	Monongalia	Processing	Complete
A01-0054	16239	OneStep RT-ddPCR	Human RNase P	67.2795248	71484.4951					10/14/21	Manual	DQ	58477038	QX One	CDC nCov-2 Triplex	NAB_11 G1	AP0013	H03	JL	SARS-CoV-2 N1	123.9551067	0	1707.766876	131702.3009	SARS-CoV-2 N2	109.097271	0	1836.244965	115915.8504																																				CDC N1/N2/RP Triplex	0.005	Sample		10/5/21	10	NT04474	Halcyon	Ceres Nanotrap	0.425		CP0020	B03	JL	WWTP	Sample	10/5/21	0.4	2108052	Halcyon	Thermo Magmax Microbiome Ultra Nucleic Acid Isolation Kit	0.05	G1	EP0020	A09	JL	StarCityWWTP-01	GG	10/3/21 23:55	Composite	10/3/21 23:55	10/3/21 0:00	8.385		Pass	JL	10/5/21	7.38	Monongalia	Processing	Complete
A0219	16477	OneStep RT-ddPCR	Human RNase P		2574					2/22/21	Manual	DQ			CDC nCov-2 Triplex					SARS-CoV-2 N1				82332	SARS-CoV-2 N2				110664																																				CDC N1/N2/RP Triplex	0.005	Sample		2/5/21	100			PEG Precipitation	3				MS	WWTP	Sample	2/17/21	0.2			Qiagen QiaAMP Viral Mini-RNA Kit	0.06				MS	StarCityWWTP-01	GS	1/13/21 0:00	Composite	1/13/21 23:59	1/13/21 0:00	7.175		Pass	TD	1/15/21		Monongalia	Processing	Complete
K01-0007																																																																																											ParkersburgWWTP-01												Wood		
A0245	11511	OneStep RT-ddPCR	Human RNase P		44160					11/17/20	Manual	DQ			CDC nCov-2 Triplex					SARS-CoV-2 N1				24528	SARS-CoV-2 N2				14712																																				CDC N1/N2/RP Triplex	0.005	Sample		11/16/20	100			PEG Precipitation	4				MS	WWTP	Sample	11/17/20	0.2			Qiagen QiaAMP Viral Mini-RNA Kit	0.06				MS	StarCityWWTP-01	DW	11/15/20 0:00	Composite	11/15/20 23:59	11/15/20 0:00	6.499		Pass	TD	11/16/20		Monongalia	Processing	Complete
H01-0036	9815	OneStep RT-ddPCR	Human RNase P	4.79507058858872	8541.21948592366	None				2021-12-03	Manual	DQ	58477038	QX 200	CDC nCov-2 Triplex	C1	AP0023	H03	JL	SARS-CoV-2 N1	0	0	1030.21682739258	0	SARS-CoV-2 N2	26.3849902153016	0	1109.43168640137	46998.263821006																																					0.005	Sample		2021-11-22	10	NT04474	Halcyon	Ceres Nanotrap	0.475		CP0039	A01	AJ	WWTP	Sample	2021-11-22	0.4	2108255	Halcyon	Ultra 2.0 Microbiome (Thermo)	0.075	C1	EP0039	A01	AJ	MoundsvilleWWTP-01	-	11/12/21 8:15	Composite	11/12/21 8:00	11/11/21 8:00			Pass	AJ	11/19/21	6.84	Marshall	Processing	Complete
A1000	13784	OneStep RT-ddPCR	Human RNase P		40980					3/16/21	Manual	DQ		QX 200	CDC nCov-2 Triplex					SARS-CoV-2 N1				0	SARS-CoV-2 N2				20490																																				CDC N1/N2/RP Triplex	0.005	Sample		3/12/21	100			PEG Precipitation	5				AHT	WWTP	Sample	3/15/21	0.2			Qiagen QiaAMP Viral Mini-RNA Kit	0.06				AHT	StarCityWWTP-01	EL	3/7/21 12:00	Composite	3/7/21 12:00	3/7/21 12:00	9.116		Pass	MVS	3/12/21		Monongalia	Processing	Complete
B01-0053	12771	OneStep RT-ddPCR	Human RNase P	25.80788136	27420.87394	None				11/29/21	Manual	DQ	58477038	QX 200	CDC nCov-2 Triplex	D4	AP0022	G04	JL	SARS-CoV-2 N1	7.370792031	0	1092.976303	7831.466533	SARS-CoV-2 N2	25.80788136	0	1279.930573	27420.87394																																				CDC N1/N2/RP Triplex	0.005	Sample		11/17/21	10	NT04474	Halcyon	Ceres Nanotrap	0.425		CP0037	C04	JL	WWTP	Sample	11/17/21	0.4	2108255	Halcyon	Thermo Magmax Microbiome Ultra Nucleic Acid Isolation Kit	0.05	L4	EP0037	B04	JL	CharlestonWWTP-01	-	11/15/21 8:00	Composite	11/15/21 7:00	11/14/21 7:00			Pass	JL	11/16/21	7.42	Kanawha	Processing	Complete
A03-0133																																																																															K-12												NorthES-01		12/07/2021 09:41 AM	Composite	12/06/2021 02:00 PM	12/06/2021 06:00 AM							Monongalia		
K01-0006																																																																																											ParkersburgWWTP-01												Wood		
A03-0192																																																																																											MorgantownHS-01												Monongalia		
A02-0033																																																																			Sample													Sample																									Unknown
A03-0111	12557	OneStep RT-ddPCR	Human RNase P	37.5060439109802	66807.6407164335	None				2021-12-03	Manual	DQ	58477038	QX 200	CDC nCov-2 Triplex	NAB14 G1	AP0023	B08	JL	SARS-CoV-2 N1	0	0	1030.21682739258	0	SARS-CoV-2 N2	0	0	1109.43168640137	0																																					0.005	Sample		2021-12-02	10	NT04474	Kookaburra	Ceres Nanotrap	0.475		CP0042	C05	LW	K-12	Sample	2021-12-02	0.4	2108255	Kookaburra	Thermo Magmax Microbiome Ultra Nucleic Acid Isolation Kit	0.075	G1	EP0042	C01	LW	NorthES-01	BL	11/9/21 12:30	Composite	11/8/21 14:00	11/8/21 6:00			Pass	JL	11/10/21		Monongalia	Processing	Complete
J01-0047																																																																															WWTP												AlpineLakeWWTP-01												Preston		
K01-0029																																																																																											ParkersburgWWTP-01												Wood		
H01-0054																																																																															WWTP												MoundsvilleWWTP-01												Marshall		
A0241	14527	OneStep RT-ddPCR	Human RNase P		4860					3/11/21	Manual	DQ			CDC nCov-2 Triplex					SARS-CoV-2 N1				43740	SARS-CoV-2 N2				72930																																				CDC N1/N2/RP Triplex	0.005	Sample		2/22/21	100			PEG Precipitation	5				AT	WWTP	Sample	2/24/21	0.2			Qiagen QiaAMP Viral Mini-RNA Kit	0.06				AT	StarCityWWTP-01	GG	2/14/21 8:00	Composite	2/14/21 11:55	2/14/21 12:00	9.362		Pass	TD	2/18/21		Monongalia	Processing	Complete
A03-0080	16746	OneStep RT-ddPCR	Human RNase P	37.96768188	40340.662	None				11/29/21	Manual	DQ	58477038	QX 200	CDC nCov-2 Triplex	D4	AP0022	F04	JL	SARS-CoV-2 N1	0	0	1092.976303	0	SARS-CoV-2 N2	7.026431561	0	1279.930573	7465.583533																																					0.005	Sample		2021-11-15	10	NT04474	Halcyon	Ceres Nanotrap	0.425		CP0035	B06	LW	K-12	Sample	2021-11-15	0.4	2108255	Halcyon	Ultra 2.0 Microbiome (Thermo)	0.05	D4	EP0035	B04	JL	MountainviewES-01	BL	11/11/21 9:40	Composite	11/10/21 14:00	11/10/21 6:00			Pass	JL	11/12/21		Monongalia	Processing	Complete
A01-0094	8898	OneStep RT-ddPCR	Human RNase P	0	0	None				2021-12-03	Manual	DQ	58477038	QX 200	CDC nCov-2 Triplex	G6	AP0023	C06	JL	SARS-CoV-2 N1	0	0	1030.21682739258	0	SARS-CoV-2 N2	0	0	1109.43168640137	0																																					0.005			2021-11-30	10	NT04474	Halcyon	Ceres Nanotrap	0.475		CP0041	A06	AJ	WWTP		2021-11-30	0.4	2108255	Halcyon	Thermo Magmax Microbiome Ultra Nucleic Acid Isolation Kit	0.075	G6	EP0041	A06	AJ	StarCityWWTP-01	-	11/21/2021 12:00 AM	Composite	11/21/2021 12:00 AM	11/20/2021 12:00 AM			Pass	AJ	11/30/2021	6.82	Monongalia	Processing	Complete
L01-0049																																																																																											WestUnionWWTP-01												Doddridge		
A03-0195																																																																																											SuncrestES-01												Monongalia		
A03-0034	20738	OneStep RT-ddPCR	Human RNase P	2.947164774	3131.362572					10/11/21	Manual	DQ	58477037	QX One	CDC nCov-2 Triplex	I7	AP0012	G03	JL	SARS-CoV-2 N1	7.368445396	0	1593.187866	7828.973234	SARS-CoV-2 N2	16.21292472	0	2077.493896	17226.23251																																				CDC N1/N2/RP Triplex	0.005	Sample		10/7/21	10	NT04474	Halcyon	Ceres Nanotrap	0.425		CP0021	D03	JL	K-12	Sample	10/7/21	0.4	2108052	Halcyon	Thermo Magmax Microbiome Ultra Nucleic Acid Isolation Kit	0.05	I7	EP0021	B07	JL	CheatLakeES-01	BL	9/30/21 11:10	Composite	9/29/21 14:00	9/29/21 6:00			Pass	JL	10/6/21	7.35	Monongalia	Processing	Complete
G01-0026	13738	OneStep RT-ddPCR	Human RNase P	8.56518209	15256.7306	None				11/29/21	Manual	DQ	58477038	QX 200	CDC nCov-2 Triplex	B2	AP0022	B07	JL	SARS-CoV-2 N1	56.58790588	0	1092.976303	100797.2074	SARS-CoV-2 N2	34.27945375	0	1279.930573	61060.277																																					0.005	Sample		2021-11-19	10	NT04474	Halcyon	Ceres Nanotrap	0.475		CP0038	D03	AJ	WWTP	Sample	2021-11-19	0.4	2108255	Halcyon	Ultra 2.0 Microbiome (Thermo)	0.075	B2	EP0038	B07	AJ	KeyserWWTP-01	-	11/16/21 8:10	Composite	11/16/21 8:00	11/15/21 9:00			Pass	AJ	11/19/21	7.3	Mineral	Processing	Complete
J01-0036																																																																															WWTP												AlpineLakeWWTP-01												Preston		
A02-0022	13652	OneStep RT-ddPCR	Human RNase P	22.70017862	24118.93979					8/20/21	Manual	DQ	58477036	QX One	CDC nCov-2 Triplex	B2	AP0005	B01	JL	SARS-CoV-2 N1	11.3480103	0	2615.09491	12057.26095	SARS-CoV-2 N2	6.808307767	0	2786.116028	7233.827002																																				CDC N1/N2/RP Triplex	0.005	Sample		8/27/21	10	NT04155	Kookaburra	Ceres Nanotrap	0.425	7.39	CP0005	A02	JL	WVU Morgantown	Sample	8/27/21	0.4	2102028	Kookaburra	Thermo Magmax Microbiome Ultra Nucleic Acid Isolation Kit	0.05	B2	EP0005	A02	JL	HonorsSummit-01 (MUB)	EL	8/20/21 9:42	Composite	8/20/21 9:42	8/18/21 9:42			Pass	Jl	8/20/21	7.39	Monongalia	Processing	Complete
G01-0005	24245	OneStep RT-ddPCR	Human RNase P	53.20403099	56529.28293					10/14/21	Manual	DQ	58477038	QX One	CDC nCov-2 Triplex	C8	AP0013	H02	JL	SARS-CoV-2 N1	273.6040306	0	1707.766876	290704.2825	SARS-CoV-2 N2	278.9658165	0	1836.244965	296401.18																																				CDC N1/N2/RP Triplex	0.005	Sample		10/13/21	10	NT04474	Halcyon	Ceres Nanotrap	0.425		CP0024	B04	JL	WWTP	Sample	10/13/21	0.4	2108255	Halcyon	Thermo Magmax Microbiome Ultra Nucleic Acid Isolation Kit	0.05	C8	EP0024	A08	JL	KeyserWWTP-01	KK	10/11/21 9:10	Composite	10/11/21 9:10	10/10/21 9:00			Pass	JL	10/13/21	6.92	Mineral	Processing	Complete
H01-0011	10155	OneStep RT-ddPCR	Human RNase P	6.952108741	7386.615537	None				10/20/21	Manual	DQ	58477038	QX One	CDC nCov-2 Triplex	F1	AP0014	A02	JL	SARS-CoV-2 N1	57.99709797	0	2152.007294	61621.91659	SARS-CoV-2 N2	16.22478247	0	2493.552246	17238.83137																																					0.005	Sample		10/15/21	10	NT04474	Halcyon	Ceres Nanotrap	0.425		CP0025	B03	JL	WWTP	Sample	10/15/21	0.4	2108255	Halcyon	Thermo Magmax Microbiome Ultra Nucleic Acid Isolation Kit	0.05	F1	EP0025	B03	JL	MoundsvilleWWTP-01	DRC	10/9/21 8:15	Composite	10/9/21 8:00	10/8/21 8:00			Pass	JL	10/15/21	7.1	Marshall	Processing	Complete
B01-0071		OneStep RT-ddPCR	Human RNase P			None				11/1/21	CHECK	ABS	58477038	QX 200	CDC nCov-2 Triplex	D6	AP0015	D06	JL	SARS-CoV-2 N1					SARS-CoV-2 N2																																									0.005	Sample		10/27/21	10	NT04474	Kookaburra	Ceres Nanotrap	0.425		CP0029	B02	JL	WWTP	Sample	10/27/21	0.4	2108255	Halcyon	Thermo Magmax Microbiome Ultra Nucleic Acid Isolation Kit	0.05	D6	EP0029	A06	JL	CharlestonWWTP-01	KM	10/25/21 8:20	Composite	11/25/21 7:00	11/24/21 7:00			Pass	JL	10/27/21	7.17	Kanawha	Processing	Processing
H01-0084																																																																															WWTP												MoundsvilleWWTP-01												Marshall		
H01-0047																																																																															WWTP												MoundsvilleWWTP-01		11/23/2021 08:15 AM	Composite	11/23/2021 08:00 AM	11/22/2021 08:00 AM			Fail: Temperature Above Threshold	JL	11/29/2021		Marshall		
B01-0057	14274	OneStep RT-ddPCR	Human RNase P	3.2	3400					11/18/21	Manual	DQ	58477038	QX 200	CDC nCov-2 Triplex	E3	AP0020	C03	JL	SARS-CoV-2 N1	13.2	0	1193.4	14025	SARS-CoV-2 N2	3.2	0	1245	3400																																				CDC N1/N2/RP Triplex	0.005	Sample		11/11/21	10	NT04474	Kookaburra	Ceres Nanotrap	0.425		CP0034	C03	JL	WWTP	Sample	11/11/21	0.4	2108255	Kookaburra	Thermo Magmax Microbiome Ultra Nucleic Acid Isolation Kit	0.05	E3	EP0034	B03	JL	CharlestonWWTP-01	-	11/5/21 7:15	Composite	11/5/21 7:00	11/4/21 7:00			Pass	JL	11/9/21	6.72	Kanawha	Processing	Complete
L01-0037																																																																																											WestUnionWWTP-01												Doddridge		
L01-0039																																																																																											WestUnionWWTP-01												Doddridge		
A03-0139																																																																																											SuncrestES-01												Monongalia		
H01-0051																																																																															WWTP												MoundsvilleWWTP-01												Marshall		
A01-0118																																																																																											StarCityWWTP-01												Monongalia		
K01-0017																																																																																											ParkersburgWWTP-01												Wood		
A03-0006	13802	OneStep RT-ddPCR	Human RNase P	22.1726203	23558.40907					9/20/21	Manual	DQ	58477037	QX 200	CDC nCov-2 Triplex	F3	AP0008	D03	JL	SARS-CoV-2 N1	164.2309761	0	1320.22522	174495.4121	SARS-CoV-2 N2	93.95037651	0	1524.019623	99822.27504																																				CDC N1/N2/RP Triplex	0.005	Sample		9/17/21	10	NT04155	Halcyon	Ceres Nanotrap	0.425		CP0013	A03	JL	K-12	Sample	9/17/21	0.4	2105033	Halcyon	Thermo Magmax Microbiome Ultra Nucleic Acid Isolation Kit	0.05	F3	EP0012	A03	JL	MorgantownHS-01	TD	9/16/21 16:35	Composite	9/15/21 14:00	9/15/21 6:00			Pass	TD	9/16/21	7.78	Monongalia	Processing	Complete
C01-0007	11797	OneStep RT-ddPCR	Human RNase P	21.95001125	23321.88696					9/29/21	Manual	DQ	58477037	QX 200	CDC nCov-2 Triplex	A7	AP0010	C07	JL	SARS-CoV-2 N1	1.994609535	0	1097.667847	2119.272631	SARS-CoV-2 N2	7.97945261	0	1200.682373	8478.168398																																				CDC N1/N2/RP Triplex	0.005	Sample	FLOW 8.098	9/27/21	10	NT04474	Halcyon	Ceres Nanotrap	0.425		CP0017	D05	JL	WWTP	Sample	9/27/21	0.4	2105049	Halcyon	Thermo Magmax Microbiome Ultra Nucleic Acid Isolation Kit	0.05	A7	EP0017	B11	JL	WheelingWWTP-01	MVC	9/22/21 7:00	Composite	9/22/21 7:00	9/21/21 7:00	8.098		Pass	JL	9/24/21	6.59	Ohio	Processing	Complete
A01-0085	16300	OneStep RT-ddPCR	Human RNase P	0	0	None				11/22/21	Manual	DQ	58477038	QX 200	CDC nCov-2 Triplex	I1	AP0021	A01	JL	SARS-CoV-2 N1	34.67006207	1109.141006	0	36836.94094	SARS-CoV-2 N2	37.56154299	1229.36615	0	39909.13942																																					0.005	Sample		11/16/21	10	NT04474	Kookaburra	Ceres Nanotrap	0.425		CP0036	A01	AJ	WWTP	Sample	11/16/21	0.4	2108255	Kookaburra	Thermo Magmax Microbiome Ultra Nucleic Acid Isolation Kit	0.05	I1	EP0036	A01	AJ	StarCityWWTP-01	GG	11/9/21 23:55	Composite	11/9/21 23:55	11/9/21 0:00			Pass	JL	11/12/21	6.78	Monongalia	Processing	Complete
A1051	15526	OneStep RT-ddPCR		85.02		BRSV		201922.5		7/7/21	Manual	DQ			BRSV Triplex					SARS-CoV-2 N1	0			0	SARS-CoV-2 N2	3.03			7196.25																																				N1/N2/BRSV Triplex	0.005	Sample			10			Ceres Nanotrap	0.95	pH: 6.74				WWTP	Sample	7/7/21	0.4			Thermo Magmax Microbiome Ultra Nucleic Acid Isolation Kit	0.05				JL	StarCityWWTP-01	EL	5/18/21 23:55	Composite	5/18/21 23:55	5/18/21 0:00	7.38		Pass	JL	5/21/21	6.74	Monongalia	Processing	Complete
B01-0056	15968	OneStep RT-ddPCR	Human RNase P	2.947255075	3131.458517	None				11/22/21	Manual	DQ	58477038	QX 200	CDC nCov-2 Triplex	NAB13 K7	AP0021	E01	JL	SARS-CoV-2 N1	4.421021044	1109.141006	0	4697.33486	SARS-CoV-2 N2	10.3170085	1229.36615	0	10961.82153																																				CDC N1/N2/RP Triplex	0.005	Sample		11/3/21	10	NT04474	Halcyon	Ceres Nanotrap	0.425		CP0032	D05	JL	WWTP	Sample	11/3/21	0.4	21108255	Kookaburra	Thermo Magmax Microbiome Ultra Nucleic Acid Isolation Kit	0.05	K7	EP0032	B11	JL	CharlestonWWTP-01	-	10/29/21 7:00	Composite	10/29/21 7:00	10/28/21 7:00			Pass	JL	11/3/21	7.12	Kanawha	Processing	Complete
A02-0185	34	OneStep RT-ddPCR	Human RNase P			None				11/1/21	OK	ABS	58477038	QX 200	CDC nCov-2 Triplex	A8	AP0015	A08	JL	SARS-CoV-2 N1					SARS-CoV-2 N2																																									0.005	Sample		10/25/21	10	NT04474	Halcyon	Ceres Nanotrap	0.425		CP0028	B02	JL	WVU Morgantown	Sample	10/25/21	0.4	2108255	Halcyon	Thermo Magmax Microbiome Ultra Nucleic Acid Isolation Kit	0.05	A8	EP0028	A08	JL	CollegePark-02	EL	10/22/21 10:29	Composite	10/22/21 10:02	10/20/21 10:02			Pass	JL	10/25/21	7.41	Monongalia	Processing	Confirming
A02-0281																																																																																											WVU-Morgantown												Monongalia		
A01-0025																																																																			Sample													Sample																									Unknown
A02-0017	9830	OneStep RT-ddPCR	Human RNase P	62.72422791	66644.49215					8/20/21	Manual	DQ	58477036	QX One	CDC nCov-2 Triplex	B1	AP0005	A01	JL	SARS-CoV-2 N1	105.7108402	0	2615.09491	112317.7677	SARS-CoV-2 N2	75.94480991	0	2786.116028	80691.36053																																				CDC N1/N2/RP Triplex	0.005	Sample		8/27/21	10	NT04155	Kookaburra	Ceres Nanotrap	0.425		CP0005	A01	JL	WVU Morgantown	Sample	8/27/21	0.4	2102028	Kookaburra	Thermo Magmax Microbiome Ultra Nucleic Acid Isolation Kit	0.05	B1	EP0005	A01	JL	OaklandE-02	EL	8/18/21 9:38	Composite	8/18/21 9:38	8/16/21 9:41			Pass	JL	8/18/21	7.15	Monongalia	Processing	Complete
H01-0086																																																																															WWTP												MoundsvilleWWTP-01												Marshall		
A02-0225	12905	OneStep RT-ddPCR	Human RNase P	0	0	None				2021-12-03	Manual	DQ	58477038	QX 200	CDC nCov-2 Triplex	E5	AP0023	A05	JL	SARS-CoV-2 N1	0	0	1030.21682739258	0	SARS-CoV-2 N2	0	0	1109.43168640137	0																																					0.005			2021-11-29	10	NT04474	Halcyon	Ceres Nanotrap	0.475		CP0040	B01	AJ	WVU Morgantown		2021-11-29	0.4	2108255	Halcyon	Thermo Magmax Microbiome Ultra Nucleic Acid Isolation Kit	0.075	E5	EP0040	A05	AJ	Evansdale-01	CA	11/22/21 9:37	Composite	11/22/21 9:38	11/20/21 9:38			Pass	AJ	11/22/21	7.22	Monongalia	Processing	Complete
A1084	14915	OneStep RT-ddPCR		0		BRSV		0		7/9/21	Manual	DQ			BRSV Triplex					SARS-CoV-2 N1	0			0	SARS-CoV-2 N2	0			0																																				N1/N2/BRSV Triplex	0.005	Sample		7/9/21	10			Ceres Nanotrap	0.95	pH - 6.48				WWTP	Sample	7/9/21	0.4			Thermo Magmax Microbiome Ultra Nucleic Acid Isolation Kit	0.05				JL	StarCityWWTP-01	EL	7/4/21 23:55	Composite	7/4/21 23:55	7/4/21 0:00	6.306		Pass	JL	7/9/21	6.48	Monongalia	Processing	Complete
A02-0288																																																																																											WVU-Morgantown												Monongalia		
A01-0124																																																																																											StarCityWWTP-01												Monongalia		
A03-0031	17145	OneStep RT-ddPCR	Human RNase P	8.582396507	9118.796289					10/11/21	Manual	DQ	58477037	QX One	CDC nCov-2 Triplex	H8	AP0012	H02	JL	SARS-CoV-2 N1	0	0	1593.187866	0	SARS-CoV-2 N2	0	0	2077.493896	0																																				CDC N1/N2/RP Triplex	0.005	Sample		10/7/21	10	NT04474	Halcyon	Ceres Nanotrap	0.425		CP0021	B04	JL	K-12	Sample	10/7/21	0.4	2108052	Halcyon	Thermo Magmax Microbiome Ultra Nucleic Acid Isolation Kit	0.05	H8	EP0021	A08	JL	MountainviewES-01	BL	9/28/21 9:35	Composite	9/27/21 14:00	9/27/21 6:00			Pass	JL	10/6/21	5.3	Monongalia	Processing	Complete
A0104	14007	OneStep RT-ddPCR	Human RNase P		17136					11/10/20	Manual	DQ		QX 200	CDC nCov-2 Triplex					SARS-CoV-2 N1				13708.8	SARS-CoV-2 N2				13708.8																																				CDC N1/N2/RP Triplex	0.005	Sample		11/9/20	100			PEG Precipitation	3.4				MS	WWTP	Sample	11/10/20	0.2			Qiagen QiaAMP Viral Mini-RNA Kit	0.06				MS	StarCityWWTP-01	GS	11/5/20 0:00	Composite	11/5/20 23:59	11/5/20 0:00	6.009		Pass	TD	11/9/20		Monongalia	Processing	Complete
J01-0001																																																																															WWTP												AlpineLakeWWTP-01												Preston		
A01-0002	15989	OneStep RT-ddPCR	Human RNase P	29.45042133	31291.07267					8/16/21	Manual	DQ	58477036	QX 200	CDC nCov-2 Triplex		AP000000	A01	JL	SARS-CoV-2 N1	33.87116671	0	1714.019012	35988.11412	SARS-CoV-2 N2	38.29274178	0	1783.141785	40686.03611																																				CDC N1/N2/RP Triplex	0.005	Sample		8/16/21	10	NT04155	Halcyon	Ceres Nanotrap	0.425		CP000000	A01	JL	WWTP	Sample	8/16/21	0.4	2102028	Halcyon	Thermo Magmax Microbiome Ultra Nucleic Acid Isolation Kit	0.05		EP000000	A01	JL	StarCityWWTP-01	GG	8/10/21 23:55	Composite	8/10/21 23:55	8/10/21 0:00	8.166		Pass	Josh Lambert	8/13/21	6.9	Monongalia	Processing	Complete
A02-0232	9066	OneStep RT-ddPCR	Human RNase P	2.59548962116242	4623.21588769556	None				2021-12-03	Manual	DQ	58477038	QX 200	CDC nCov-2 Triplex	E4	AP0023	A04	JL	SARS-CoV-2 N1	0	0	1030.21682739258	0	SARS-CoV-2 N2	10.383677482605	0	1109.43168640137	18495.9255158901																																					0.005			2021-11-29	10	NT04474	Halcyon	Ceres Nanotrap	0.475		CP0040	A04	AJ	WVU Morgantown		2021-11-29	0.4	2108255	Halcyon	Thermo Magmax Microbiome Ultra Nucleic Acid Isolation Kit	0.075	E4	EP0040	A04	AJ	CollegePark-02	CA	11/22/21 10:39	Composite	11/22/21 10:39	11/20/21 10:39			Pass	AJ	11/19/21	7.22	Monongalia	Processing	Complete
A01-0030	16491	OneStep RT-ddPCR	Human RNase P	34.26821947	36409.98319					9/20/21	Manual	DQ	58477037	QX 200	CDC nCov-2 Triplex	A2	AP0008	A02	JL	SARS-CoV-2 N1	147.4215889	0	1320.22522	156635.4382	SARS-CoV-2 N2	180.4675293	0	1524.019623	191746.7499																																				CDC N1/N2/RP Triplex	0.005	Sample		9/13/21	10	NT04155	Halcyon	Ceres Nanotrap	0.425		CP0011	A02	JL	WWTP	Sample	9/13/21	0.4	2105033	Halcyon	Thermo Magmax Microbiome Ultra Nucleic Acid Isolation Kit	0.05	A2	EP0011	A02	JL	StarCityWWTP-01	GG	9/8/21 23:55	Composite	9/8/21 23:55	9/8/21 0:00	8.923		Pass	JL	9/13/21	6.76	Monongalia	Processing	Complete
G01-0029																																																																			Sample		11/12/21	10	NT04474	Kookaburra	Ceres Nanotrap	0.425		CP0035	C04	AJ	WWTP	Sample	11/12/21	0.4	2108255	Kookaburra	Thermo Magmax Microbiome Ultra Nucleic Acid Isolation Kit	0.05	H4	EP0035	B04	AJ	KeyserWWTP-01	-	11/10/21 8:30	Composite	11/10/21 8:00	11/9/21 9:00			Pass	JL	11/12/21	7.02	Mineral	Processing	Processing
A02-0227	12846	OneStep RT-ddPCR	Human RNase P	5.49560010433198	9789.03768584134	None				2021-12-03	Manual	DQ	58477038	QX 200	CDC nCov-2 Triplex	NAB16 A5	AP0023	H01	JL	SARS-CoV-2 N1	154.364070892334	0	1030.21682739258	274961.00127697	SARS-CoV-2 N2	165.428924560547	0	1109.43168640137	294670.271873474																																					0.005	Sample		2021-11-19	10	NT04474	Halcyon	Ceres Nanotrap	0.475		CP0038	C02	AJ	WVU Morgantown	Sample	2021-11-19	0.4	2108255	Halcyon	Ultra 2.0 Microbiome (Thermo)	0.075	A5	EP0038	B02	AJ	OaklandE-02	EL	11/19/21 10:13	Composite	11/19/21 9:10	11/17/21 9:10						7.31	Monongalia	Processing	Confirming
A02-0190	23	OneStep RT-ddPCR	Human RNase P			None				11/1/21	OK	ABS	58477038	QX 200	CDC nCov-2 Triplex	B7	AP0015	F07	JL	SARS-CoV-2 N1					SARS-CoV-2 N2																																									0.005	Sample		10/28/21	10	NT04474	Halcyon	Ceres Nanotrap	0.425		CP0030	C03	LW	WVU Morgantown	Sample	10/28/21	0.4	2108255	Halcyon	Thermo Magmax Microbiome Ultra Nucleic Acid Isolation Kit	0.05	B7	EP0030	B07	LW	Evansdale-01	EL	10/27/21 9:25	Composite	10/27/21 9:00	10/25/21 9:00			Pass	JL	10/27/21		Monongalia	Processing	Confirming
C01-0045	11006	OneStep RT-ddPCR	Human RNase P	4.27613139152526	7616.85904115437	None				2021-12-03	Manual	DQ	58477038	QX 200	CDC nCov-2 Triplex	G3	AP0023	C03	JL	SARS-CoV-2 N1	36.371910572052	0	1030.21682739258	64787.4657064676	SARS-CoV-2 N2	51.3649368286132	0	1109.43168640137	91493.7937259673																																					0.005			2021-11-30	10	NT04474	Halcyon	Ceres Nanotrap	0.475		CP0041	A03	AJ	WWTP		2021-11-30	0.4	2108255	Halcyon	Thermo Magmax Microbiome Ultra Nucleic Acid Isolation Kit	0.075	G3	EP0041	A03	AJ	WheelingWWTP-01	-	11/25/2021 07:00 AM	Composite	11/25/2021 07:00 AM	11/24/2021 07:00 AM			Pass	AJ	11/30/2021	6.62	Ohio	Processing	Complete
K01-0018																																																																																											ParkersburgWWTP-01												Wood		
A03-0190																																																																																											MountainviewES-01												Monongalia		
L01-0048																																																																																											WestUnionWWTP-01												Doddridge		
A1101	12264	OneStep RT-ddPCR		241.05		BRSV		572493.75		7/30/21	Manual	DQ			BRSV Triplex					SARS-CoV-2 N1	11.51			27336.25	SARS-CoV-2 N2	13.43			31896.25																																				N1/N2/BRSV Triplex	0.005	Sample		7/30/21	10			Ceres Nanotrap	0.95					WWTP	Sample	7/30/21	0.4			Thermo Magmax Microbiome Ultra Nucleic Acid Isolation Kit	0.05				JL	StarCityWWTP-01	EL	7/26/21 23:55	Composite	7/26/21 23:55	7/26/21 0:00	8.172		Pass	JL	7/30/21		Monongalia	Processing	Complete
B01-0064	11514	OneStep RT-ddPCR	Human RNase P	2.043636739	3640.227942	None				11/29/21	Manual	DQ	58477038	QX 200	CDC nCov-2 Triplex	D6	AP0022	D06	JL	SARS-CoV-2 N1	6.131442785	0	1092.976303	10921.63246	SARS-CoV-2 N2	12.26448417	0	1279.930573	21846.11242																																				CDC N1/N2/RP Triplex	0.005	Sample		2021-11-22	10	NT04474	Halcyon	Ceres Nanotrap	0.475		CP0039	D02	AJ	WWTP	Sample	2021-11-22	0.4	2108255	Halcyon	Ultra 2.0 Microbiome (Thermo)	0.075	D6	EP0039	B06	AJ	CharlestonWWTP-01	-	11/16/21 7:20	Composite	11/16/21 7:00	11/15/21 7:00			Pass	AJ	11/19/21	6.94	Kanawha	Processing	Complete
A03-0008																																																																			Sample													Sample																									Unknown
G01-0012	17442	OneStep RT-ddPCR	Human RNase P	1.349047422	1433.362886	None				11/4/21	Manual	DQ	58477038	QX 200	CDC nCov-2 Triplex	J1	AP0016	E01	JL	SARS-CoV-2 N1	4.047374427	0	1040.980072	4300.335329	SARS-CoV-2 N2	6.74601078	0	1205.935364	7167.636454																																					0.005	Sample		11/3/21	10	NT04474	Halcyon	Ceres Nanotrap	0.425		CP0032	B03	JL	WWTP	Sample	11/3/21	0.4	21108255	Kookaburra	Thermo Magmax Microbiome Ultra Nucleic Acid Isolation Kit	0.05	J1	EP0032	A09	JL	KeyserWWTP-01													Processing	Confirming
A01-0022																																																																			Sample													Sample																									Unknown
A1068		OneStep RT-ddPCR				BRSV		0		7/7/21	Manual	DQ			BRSV Triplex					SARS-CoV-2 N1				0	SARS-CoV-2 N2				0																																				N1/N2/BRSV Triplex	0.005	Sample		7/7/21	10			Ceres Nanotrap	0.95	pH - 6.48				WWTP	Sample	7/7/21	0.4			Thermo Magmax Microbiome Ultra Nucleic Acid Isolation Kit	0.05				JL	StarCityWWTP-01	EL	6/10/21 23:55	Composite	6/10/21 23:55	6/10/21 0:00	6.787		Pass	JL	6/11/21	6.48	Monongalia	Processing	Complete
C01-0015	15510	OneStep RT-ddPCR	Human RNase P	24.53186274	26065.10416					10/11/21	Manual	DQ	58477037	QX One	CDC nCov-2 Triplex	A6	AP0012	F06	JL	SARS-CoV-2 N1	16.35140777	0	1593.187866	17373.37075	SARS-CoV-2 N2	29.98725653	0	2077.493896	31861.46006																																				CDC N1/N2/RP Triplex	0.005	Sample	FLOW: 5.913	10/8/21	10	NT04474	Halcyon	Ceres Nanotrap	0.425		CP0022	D04	JL	WWTP	Sample	10/8/21	0.4	2108052	Halcyon	Thermo Magmax Microbiome Ultra Nucleic Acid Isolation Kit	0.05	A6	EP0022	C06	JL	WheelingWWTP-01	MVC	10/6/21 7:05	Composite	10/6/21 7:00	10/5/21 7:00	5.913		Pass	JL	10/8/21	6.55	Ohio	Processing	Complete
A03-0098																																																																															K-12												SuncrestES-01	GZ	12/03/2021 02:21 PM	Composite	12/03/2021 02:00 PM	12/03/2021 06:00 AM							Monongalia		
C01-0001	17369	OneStep RT-ddPCR	Human RNase P	0	0					9/24/21	Manual	DQ	XXXXXX	QX 200	CDC nCov-2 Triplex	H1	AP0009	A01	JL	SARS-CoV-2 N1	13.55068684	0	878.4640503	14397.60476	SARS-CoV-2 N2	8.129475713	0	968.4371185	8637.567945																																				CDC N1/N2/RP Triplex	0.005	Sample	Water was very dirty with solid matter; water was colored black essentially when unsettled.	9/17/21	10	NT04155	Halcyon	Ceres Nanotrap	0.425		CP0013	B01	JL	WWTP	Sample	9/17/21	0.4	2105033	Halcyon	Thermo Magmax Microbiome Ultra Nucleic Acid Isolation Kit	0.05	F5	EP0012	A05	JL	WheelingWWTP-01	MVC	9/13/21 7:00	Composite	9/13/21 7:00	9/12/21 7:00			Pass	JL	9/17/21	6.28	Ohio	Processing	Complete
A02-0318																																																																																											WVU-Morgantown												Monongalia		
A02-0296																																																																																											WVU-Morgantown												Monongalia		
B01-0013	20670	OneStep RT-ddPCR	Human RNase P	0	0					10/11/21	Manual	DQ	58477037	QX One	CDC nCov-2 Triplex	L3	AP0012	C05	JL	SARS-CoV-2 N1	44.37372684	0	1593.187866	47147.08477	SARS-CoV-2 N2	15.29424906	0	2077.493896	16250.13962																																				CDC N1/N2/RP Triplex	0.005	Sample		10/8/21	10	NT04474	Halcyon	Ceres Nanotrap	0.425		CP0022	B05	JL	WWTP	Sample	10/8/21	0.4	2108052	Halcyon	Thermo Magmax Microbiome Ultra Nucleic Acid Isolation Kit	0.05	L3	EP0022	B03	JL	CharlestonWWTP-01	KM	10/7/21 8:00	Composite	10/7/21 7:00	10/6/21 7:00			Pass	JL	10/8/21	7.19	Kanawha	Processing	Complete
L01-0042																																																																																											WestUnionWWTP-01												Doddridge		
A03-0028	12669	OneStep RT-ddPCR	Human RNase P	16.72112703	17766.19747					9/24/21	Manual	DQ	XXXXXX	QX 200	CDC nCov-2 Triplex	I5	AP0009	B05	JL	SARS-CoV-2 N1	52.06035614	0	878.4640503	55314.1284	SARS-CoV-2 N2	70.68129063	0	968.4371185	75098.87129																																				CDC N1/N2/RP Triplex	0.005	Sample		9/24/21	10		Halcyon	Ceres Nanotrap	0.425		CP0016	C01	JL	K-12	Sample	9/24/21	0.4	XXXXXX	Halcyon	Thermo Magmax Microbiome Ultra Nucleic Acid Isolation Kit	0.05	I5	EP0016	B01	JL	MorgantownHS-01	BL	9/20/21 10:00	Composite	9/17/21 14:00	9/17/21 6:00			Pass	TD	9/21/21	7.59	Monongalia	Processing	Complete
A03-0010	11656	OneStep RT-ddPCR	Human RNase P	16.1547637	17164.43643					9/24/21	Manual	DQ	XXXXXX	QX 200	CDC nCov-2 Triplex	I3	AP0009	B03	JL	SARS-CoV-2 N1	2.018738836	0	878.4640503	2144.910013	SARS-CoV-2 N2	2.018738836	0	968.4371185	2144.910013																																				CDC N1/N2/RP Triplex	0.005	Sample		9/24/21	10		Halcyon	Ceres Nanotrap	0.425		CP0016	B05	JL	K-12	Sample	9/24/21	0.4	XXXXXX	Halcyon	Thermo Magmax Microbiome Ultra Nucleic Acid Isolation Kit	0.05	I3	EP0016	A11	JL	BrookhavenES-01	BL	9/21/21 9:00	Composite	9/20/21 14:00	9/20/21 6:00			Pass	JL	9/21/21	8.02	Monongalia	Processing	Complete
G01-0056	51.7	OneStep RT-ddPCR	Human RNase P			None				11/1/21	OK	ABS	58477038	QX 200	CDC nCov-2 Triplex	B7	AP0015	B07	JL	SARS-CoV-2 N1					SARS-CoV-2 N2																																									0.005	Sample		10/25/21	10	NT04474	Halcyon	Ceres Nanotrap	0.425		CP0028	C03	JL	WWTP	Sample	10/25/21	0.4	2108255	Halcyon	Thermo Magmax Microbiome Ultra Nucleic Acid Isolation Kit	0.05	B7	EP0028	B07	JL	KeyserWWTP-01	--	10/20/21 8:40	Composite	10/20/21 8:00	10/19/21 9:00			Pass	JL	10/25/21	7.1	Mineral	Processing	Confirming
J01-0018																																																																															WWTP												AlpineLakeWWTP-01												Preston		
A02-0351																																																																																											WVU-Morgantown												Monongalia		
G01-0054	7978	OneStep RT-ddPCR	Human RNase P	0	0	None				10/20/21	Manual	DQ	58477038	QX One	CDC nCov-2 Triplex	K7	AP0014	G06	JL	SARS-CoV-2 N1	103.4521294	0	2152.007294	109917.8874	SARS-CoV-2 N2	41.32628918	0	2493.552246	43909.18225																																					0.005	Sample		10/20/21	10	NT04474	Halcyon	Ceres Nanotrap	0.425		CP0027	B03	JL	WWTP	Sample	10/20/21	0.4	2108255	Halcyon	Thermo Magmax Microbiome Ultra Nucleic Acid Isolation Kit	0.05	K7	EP0027	A07	JL	KeyserWWTP-01	KK	10/17/21 9:00	Composite	10/17/21 7:30	10/16/21 8:30			Pass	JL	10/20/21		Mineral	Processing	Confirming
G01-0055	7579	OneStep RT-ddPCR	Human RNase P	0	0	None				10/20/21	Manual	DQ	58477038	QX One	CDC nCov-2 Triplex	K8	AP0014	H06	JL	SARS-CoV-2 N1	0	0	2152.007294	0	SARS-CoV-2 N2	0	0	2493.552246	0																																					0.005	Sample		10/20/21	10	NT04474	Halcyon	Ceres Nanotrap	0.425		CP0027	B04	JL	WWTP	Sample	10/20/21	0.4	2108255	Halcyon	Thermo Magmax Microbiome Ultra Nucleic Acid Isolation Kit	0.05	K8	EP0027	A08	JL	KeyserWWTP-01	ML	10/18/21 9:10	Composite	10/18/21 8:00	10/17/21 9:00			Pass	JL	10/20/21		Mineral	Processing	Confirming
A0050	14694	OneStep RT-ddPCR	Human RNase P		0					2/22/21	Manual	DQ			CDC nCov-2 Triplex					SARS-CoV-2 N1				33642	SARS-CoV-2 N2				33642																																				CDC N1/N2/RP Triplex	0.005	Sample		1/3/21	100			PEG Precipitation	7				MS	WWTP	Sample	2/17/21	0.2			Qiagen QiaAMP Viral Mini-RNA Kit	0.06				MS	StarCityWWTP-01	GG	12/29/20 0:00	Composite	12/29/20 11:59	12/29/20 12:00	10.574		Pass	TD	1/14/21		Monongalia	Processing	Complete
G01-0068	4821	OneStep RT-ddPCR	Human RNase P	4.881114364	5186.184011	None				11/8/21	Manual	DQ	58477038	QX 200	CDC nCov-2 Triplex	A3	AP0017	A03	AJ	SARS-CoV-2 N1	4.881114364	0	560.2787018	5186.184011	SARS-CoV-2 N2	0	0	653.7683868	0																																					0.005	Sample		11/5/21	10	NT04474	Kookaburra	Ceres Nanotrap	0.425		CP00033	A03	JL	WWTP	Sample	11/5/21	0.4	21108255	Kookaburra	Thermo Magmax Microbiome Ultra Nucleic Acid Isolation Kit	0.05	A3	EP0033	A03	JL	KeyserWWTP-01	-	11/4/21 8:45	Composite	11/4/21 8:00	11/3/21 9:00			Pass	JL	11/5/21	6.56	Mineral	Processing	Complete
A02-0226	17739	OneStep RT-ddPCR	Human RNase P	2.65299499	4725.647327	None				11/29/21	Manual	DQ	58477038	QX 200	CDC nCov-2 Triplex	A4	AP0022	B01	JL	SARS-CoV-2 N1	6.633048654	0	1092.976303	11815.11791	SARS-CoV-2 N2	5.306289196	0	1279.930573	9451.82763																																					0.005	Sample		2021-11-19	10	NT04474	Halcyon	Ceres Nanotrap	0.475		CP0038	C01	AJ	WVU Morgantown	Sample	2021-11-19	0.4	2108255	Halcyon	Ultra 2.0 Microbiome (Thermo)	0.075	A4	EP0038	B01	AJ	Evansdale-01	EL	11/19/21 10:12	Composite	11/19/21 9:00	11/17/21 9:00						7.31	Monongalia	Processing	Complete
A01-0053	15194	OneStep RT-ddPCR	Human RNase P	45.48194408	48324.56559					10/11/21	Manual	DQ	58477037	QX One	CDC nCov-2 Triplex	F8	AP0012	H01	JL	SARS-CoV-2 N1	183.9378929	0	1593.187866	195434.0112	SARS-CoV-2 N2	159.6080971	0	2077.493896	169583.6031																																				CDC N1/N2/RP Triplex	0.005	Sample		10/5/21	10	NT04474	Halcyon	Ceres Nanotrap	0.425		CP0020	B02	JL	WWTP	Sample	10/5/21	0.4	2108052	Halcyon	Thermo Magmax Microbiome Ultra Nucleic Acid Isolation Kit	0.05	F8	EP0020	A08	JL	StarCityWWTP-01	GG	10/2/21 23:55	Composite	10/2/21 23:55	10/2/21 0:00	7.465		Pass	JL	10/5/21	7.41	Monongalia	Processing	Complete
H01-0041	11498	OneStep RT-ddPCR	Human RNase P	4.09313947	7290.90468	None				11/29/21	Manual	DQ	58477038	QX 200	CDC nCov-2 Triplex	C5	AP0022	C05	JL	SARS-CoV-2 N1	24.56952572	0	1092.976303	43764.46769	SARS-CoV-2 N2	28.66693974	0	1279.930573	51062.9864																																					0.005	Sample		2021-11-22	10	NT04474	Halcyon	Ceres Nanotrap	0.475		CP0039	B01	AJ	WWTP	Sample	2021-11-22	0.4	2108255	Halcyon	Ultra 2.0 Microbiome (Thermo)	0.075	C5	EP0039	A05	AJ	MoundsvilleWWTP-01	-	11/17/21 8:15	Composite	11/17/21 8:00	11/16/21 8:00			Pass	AJ	11/19/21	7.04	Marshall	Processing	Complete
A02-0027	11916	OneStep RT-ddPCR	Human RNase P	1076.219864	1143483.605					8/23/21	CHECK	DQ	58477036	QX One	CDC nCov-2 Triplex	I3	AP0004	C01	JL	SARS-CoV-2 N1	18.33246112	-20	2835.271912	19478.23994	SARS-CoV-2 N2	30.56180239	-20	3151.898499	32471.91504																																				CDC N1/N2/RP Triplex	0.005	Sample		8/23/21	10	NT04155	Kookaburra	Ceres Nanotrap	0.425		CP000002	A03	JL	WVU Morgantown	Sample	8/23/21	0.4	2102028	Kookaburra	Thermo Magmax Microbiome Ultra Nucleic Acid Isolation Kit	0.05		EP000002	A03	JL	OaklandE-02	EL	8/23/21 9:35	Grab	8/23/21 9:35	8/23/21 9:35			Pass	JL	8/23/21	8.48	Monongalia	Processing	Complete
K01-0003																																																																																											ParkersburgWWTP-01												Wood		
A02-0003 0	16649	OneStep RT-ddPCR				BRSV	0	0		8/13/21	Manual	DQ		QX 200	BRSV Triplex	0k	AP000000	B06	JL	SARS-CoV-2 N1	76.44022465	0	2236.361694	81217.73869	SARS-CoV-2 N2	93.46072197	0	2276.707153	99302.01709																																				CDC N1/N2/RP Triplex	0.005	Sample		8/13/21	10	NT04155	Kookaburra	Ceres Nanotrap	0.425	Labeled 0	CP000000	C02	JL		Sample	8/13/21	0.4	2102028	Kookaburra	Thermo Magmax Microbiome Ultra Nucleic Acid Isolation Kit	0.05	Labeled 0	EP000000	C02	JL														Rejected	Test
K01-0023																																																																																											ParkersburgWWTP-01												Wood		
A02-0327																																																																																											WVU-Morgantown												Monongalia		
K01-0013																																																																																											ParkersburgWWTP-01												Wood		
B01-0070	7346	OneStep RT-ddPCR	Human RNase P	3.20324152708054	5705.77397011221	None				2021-12-03	Manual	DQ	58477038	QX 200	CDC nCov-2 Triplex	NAB16 I1	AP0023	G01	JL	SARS-CoV-2 N1	6.40691936016082	0	1030.21682739258	11412.3251102865	SARS-CoV-2 N2	6.40691936016082	0	1109.43168640137	11412.3251102865																																					0.005	Sample		2021-11-30	10	NT04474	Halcyon	Ceres Nanotrap	0.475		CP0041	C05	AJ	WWTP	Sample	2021-11-30	0.4	2108255	Halcyon	Thermo Magmax Microbiome Ultra Nucleic Acid Isolation Kit	0.075	I1	EP0041	C01	AJ	CharlestonWWTP-01	-	11/29/2021 07:25 AM	Composite	11/29/2021 07:00 AM	11/28/2021 07:00 AM			Pass	AJ	11/30/2021	7.17	Kanawha	Processing	Unknown
A02-0167	21646	OneStep RT-ddPCR	Human RNase P	69.98618603	74360.32265					10/14/21	Manual	DQ	58477038	QX One	CDC nCov-2 Triplex	D3	AP0013	C03	JL	SARS-CoV-2 N1	1.456462145	0	1707.766876	1547.491029	SARS-CoV-2 N2	36.43175364	0	1836.244965	38708.73824																																				CDC N1/N2/RP Triplex	0.005	Sample		10/13/21	10	NT04474	Halcyon	Ceres Nanotrap	0.425		CP0024	C03	JL	WVU Morgantown	Sample	10/13/21	0.4	2108255	Halcyon	Thermo Magmax Microbiome Ultra Nucleic Acid Isolation Kit	0.05	D3	EP0024	B03	JL	HonorsSummit-01 (MUB)	EL	10/13/21 9:58	Composite	10/13/21 9:58	10/11/21 9:58			Pass	JL	10/13/21	7.65	Monongalia	Processing	Complete
B01-0075	18645	OneStep RT-ddPCR	Human RNase P	6.310691237	11240.91877	None				11/29/21	Manual	DQ	58477038	QX 200	CDC nCov-2 Triplex	D7	AP0022	D07	JL	SARS-CoV-2 N1	6.310691237	0	1092.976303	11240.91877	SARS-CoV-2 N2	6.310691237	0	1279.930573	11240.91877																																				CDC N1/N2/RP Triplex	0.005	Sample		2021-11-22	10	NT04474	Halcyon	Ceres Nanotrap	0.475		CP0039	D03	AJ	WWTP	Sample	2021-11-22	0.4	2108255	Halcyon	Ultra 2.0 Microbiome (Thermo)	0.075	D7	EP0039	B07	AJ	CharlestonWWTP-01	-	11/17/21 7:40	Composite	11/17/21 7:00	11/16/21 7:00			Pass	AJ	11/19/21	6.98	Kanawha	Processing	Complete
A02-0182		OneStep RT-ddPCR	Human RNase P			None				11/1/21	OK	ABS	58477038	QX 200	CDC nCov-2 Triplex	A5	AP0015	A05	JL	SARS-CoV-2 N1					SARS-CoV-2 N2																																									0.005	Sample		10/25/21	10	NT04474	Halcyon	Ceres Nanotrap	0.425		CP0028	A05	JL	WVU Morgantown	Sample	10/25/21	0.4	2108255	Halcyon	Thermo Magmax Microbiome Ultra Nucleic Acid Isolation Kit	0.05	A5	EP0028	A05	JL	OaklandE-02	EL	10/22/21 9:36	Composite	10/22/21 9:37	10/20/21 9:37			Pass	JL	10/25/21	7.57	Monongalia	Processing	Processing
H01-0026	13546	OneStep RT-ddPCR	Human RNase P	10.42431355	11075.83314	None				11/4/21	Manual	DQ	58477038	QX 200	CDC nCov-2 Triplex	J6	AP0016	E06	JL	SARS-CoV-2 N1	6.949028969	0	1040.980072	7383.343279	SARS-CoV-2 N2	13.90011072	0	1205.935364	14768.86764																																					0.005	Sample	SAMPLE H01-0023 HAD SAME DATES	11/3/21	10	NT04474	Halcyon	Ceres Nanotrap	0.425		CP0032	C02	JL	WWTP	Sample	11/3/21	0.4	21108255	Kookaburra	Thermo Magmax Microbiome Ultra Nucleic Acid Isolation Kit	0.05	J6	EP0032	B02	JL	MoundsvilleWWTP-01	DRC	10/26/21 8:15	Composite	10/26/21 8:00	10/25/21 8:00			Pass	JL	10/29/21	7.01	Marshall	Processing	Complete
A02-0179	13652	OneStep RT-ddPCR	Human RNase P	0	0	None				10/20/21	Manual	DQ	58477038	QX One	CDC nCov-2 Triplex	L4	AP0014	D07	JL	SARS-CoV-2 N1	0	0	2152.007294	0	SARS-CoV-2 N2	0	0	2493.552246	0																																					0.005	Sample		10/20/21	10	NT04474	Halcyon	Ceres Nanotrap	0.425		CP0027	C04	JL	WVU Morgantown	Sample	10/20/21	0.4	2108255	Halcyon	Thermo Magmax Microbiome Ultra Nucleic Acid Isolation Kit	0.05	L4	EP0027	B04	JL	NorthHighSt-02 (MUB)	CA	10/20/21 9:49	Composite	10/20/21 9:49	10/18/21 9:49			Pass	JL	10/20/21		Monongalia	Processing	Complete
J01-0022																																																																															WWTP												AlpineLakeWWTP-01												Preston		
A1088	12001	OneStep RT-ddPCR		88.39		BRSV		209926.25		7/9/21	Manual	DQ			BRSV Triplex					SARS-CoV-2 N1	3.92			9310	SARS-CoV-2 N2	1.96			4655																																				N1/N2/BRSV Triplex	0.005	Sample		7/9/21	10			Ceres Nanotrap	0.95	pH - 6.54				WWTP	Sample	7/9/21	0.4			Thermo Magmax Microbiome Ultra Nucleic Acid Isolation Kit	0.05				JL	StarCityWWTP-01	EL	7/8/21 23:55	Composite	7/8/21 23:55	7/8/21 0:00	8.773		Pass	JL	7/9/21	6.54	Monongalia	Processing	Complete
A02-0041	15702	OneStep RT-ddPCR	Human RNase P	14.67508674	15592.27966					8/25/21	CHECK	DQ	58477036	QX One	CDC nCov-2 Triplex	L7	AP0004	G02	JL	SARS-CoV-2 N1	50.34184933	-20	2835.271912	53488.21491	SARS-CoV-2 N2	54.5404768	-20	3151.898499	57949.2566																																				CDC N1/N2/RP Triplex	0.005	Sample		8/25/21	10	NT04155	Kookaburra	Ceres Nanotrap	0.425		CP0004	B01	JL	WVU Morgantown	Sample	8/25/21	0.4	2102028	Kookaburra	Thermo Magmax Microbiome Ultra Nucleic Acid Isolation Kit	0.05	L7	EP0004	A07	JL	OaklandE-02	EL	8/25/21 9:48	Composite	8/23/21 9:48	8/25/21 9:48			Pass	JL	8/25/21	7.22	Monongalia	Processing	Complete
C01-0047	13544	OneStep RT-ddPCR	Human RNase P	24.334180355072	43345.258757472	None				2021-12-03	Manual	DQ	58477038	QX 200	CDC nCov-2 Triplex	G5	AP0023	C05	JL	SARS-CoV-2 N1	67.8507661819458	0	1030.21682739258	120859.177261591	SARS-CoV-2 N2	34.7708249092102	0	1109.43168640137	61935.5318695307																																					0.005			2021-11-30	10	NT04474	Halcyon	Ceres Nanotrap	0.475		CP0041	A05	AJ	WWTP		2021-11-30	0.4	2108255	Halcyon	Thermo Magmax Microbiome Ultra Nucleic Acid Isolation Kit	0.075	G5	EP0041	A05	AJ	WheelingWWTP-01	-	11/29/2021 07:00 AM	Composite	11/29/2021 07:00 AM	11/28/2021 07:00 AM						6.67	Ohio	Processing	Complete
A03-0093	17109	OneStep RT-ddPCR	Human RNase P	8.25303792953492	14700.7238119841	None				2021-12-03	Manual	DQ	58477038	QX 200	CDC nCov-2 Triplex	E5	AP0023	E05	JL	SARS-CoV-2 N1	79.9008893966674	0	1030.21682739258	142323.459237814	SARS-CoV-2 N2	71.6226863861084	0	1109.43168640137	127577.910125256																																					0.005			2021-12-02	10	NT04474	Kookaburra	Ceres Nanotrap	0.475		CP0042	A05	LW			2021-12-02	0.4	2108255	Kookaburra	Thermo Magmax Microbiome Ultra Nucleic Acid Isolation Kit	0.075	E5	EP0042	A05	LW														Processing	Complete
H01-0009	15592	OneStep RT-ddPCR	Human RNase P	0	0					10/11/21	Manual	DQ	58477037	QX One	CDC nCov-2 Triplex	A3	AP0012	C06	JL	SARS-CoV-2 N1	18.73213887	0	1593.187866	19902.89755	SARS-CoV-2 N2	28.10452223	0	2077.493896	29861.05487																																				CDC N1/N2/RP Triplex	0.005	Sample		10/8/21	10	NT04474	Halcyon	Ceres Nanotrap	0.425		CP0022	D01	JL	WWTP	Sample	10/8/21	0.4	2108052	Halcyon	Thermo Magmax Microbiome Ultra Nucleic Acid Isolation Kit	0.05	A3	EP0022	C03	JL	MoundsvilleWWTP-01	DRC	10/7/21 8:15	Composite	10/7/21 8:00	10/6/21 8:00			Pass	JL	10/8/21	6.97	Marshall	Processing	Complete
H01-0030	15984	OneStep RT-ddPCR	Human RNase P	10.4	11050					11/18/21	Manual	DQ	58477038	QX 200	CDC nCov-2 Triplex	G3	AP0020	D03	JL	SARS-CoV-2 N1	29.4	0	1193.4	31237.5	SARS-CoV-2 N2	38.4	0	1245	40800																																					0.005	Sample		11/12/21	10	NT04474	Kookaburra	Ceres Nanotrap	0.425		CP0035	A03	AJ	WWTP	Sample	11/12/21	0.4	2108255	Kookaburra	Thermo Magmax Microbiome Ultra Nucleic Acid Isolation Kit	0.05	G3	EP0035	A03	AJ	MoundsvilleWWTP-01	DRC	11/4/21 8:15	Composite	11/4/21 8:00	11/3/21 8:00			Pass	AJ	11/11/21	6.82	Marshall	Processing	Complete
A0041	11546	OneStep RT-ddPCR	Human RNase P		34248					2/22/21	Manual	DQ			CDC nCov-2 Triplex					SARS-CoV-2 N1				73416	SARS-CoV-2 N2				83208																																				CDC N1/N2/RP Triplex	0.005	Sample		12/14/20	100			PEG Precipitation	4				AT	WWTP	Sample	12/21/20	0.2			Qiagen QiaAMP Viral Mini-RNA Kit	0.06				AT	StarCityWWTP-01	GG	12/15/20 0:00	Composite	12/15/20 11:59	12/15/20 12:00	6.989 		Pass	TD	12/18/20		Monongalia	Processing	Complete
A03-0107	16047	OneStep RT-ddPCR	Human RNase P	4.399254322052	7836.17176115512	None				2021-12-03	Manual	DQ	58477038	QX 200	CDC nCov-2 Triplex	F7	AP0023	F07	JL	SARS-CoV-2 N1	0	0	1030.21682739258	0	SARS-CoV-2 N2	0	0	1109.43168640137	0																																					0.005	Sample		2021-12-02	10	NT04474	Kookaburra	Ceres Nanotrap	0.475		CP0042	C03	LW	K-12	Sample	2021-12-02	0.4	2108255	Kookaburra	Thermo Magmax Microbiome Ultra Nucleic Acid Isolation Kit	0.075	F7	EP0042	B07	LW	NorthES-01	BL	10/15/21 15:15	Composite	10/15/21 14:00	10/15/21 6:00			Pass	JL	10/22/21		Monongalia	Processing	Confirming
B01-0060																																																																			Sample												WWTP	Sample											CharlestonWWTP-01	-	11/30/2021 07:50 AM	Composite	11/30/2021 07:00 AM	11/29/2021 07:00 AM			Pass	AJ	12/03/2021	7.31	Kanawha		Unknown
A02-0264																																																																																											WVU-Morgantown												Monongalia		
K01-0031																																																																																											ParkersburgWWTP-01												Wood		
A1017	12768	OneStep RT-ddPCR	Human RNase P		33180					4/12/21	Manual	DQ		QX 200	CDC nCov-2 Triplex					SARS-CoV-2 N1				5520	SARS-CoV-2 N2				11070																																				CDC N1/N2/RP Triplex	0.005	Sample		4/9/21	100			PEG Precipitation	5				MVS	WWTP	Sample	4/12/21	0.2			Qiagen QiaAMP Viral Mini-RNA Kit	0.06				MVS	StarCityWWTP-01	GG	3/29/21 11:55	Composite	3/29/21 11:55	3/29/21 12:00	10.313		Pass	Josh Lambert	4/9/21		Monongalia	Processing	Complete
C01-0018	11679	OneStep RT-ddPCR	Human RNase P	2.014763206	2140.685907	None				11/8/21	Manual	DQ	58477038	QX 200	CDC nCov-2 Triplex	G6	AP0017	D06	AJ	SARS-CoV-2 N1	22.17189074	0	560.2787018	23557.63391	SARS-CoV-2 N2	16.12293839	0	653.7683868	17130.62204																																					0.005	Sample		10/15/21	10	NT04474	Halcyon	Ceres Nanotrap	0.425		CP0025	D04	JL	WWTP	Sample	10/15/21	0.4	2108255	Halcyon	Thermo Magmax Microbiome Ultra Nucleic Acid Isolation Kit	0.05	G6	EP0025	D04	JL	WheelingWWTP-01	MVC	10/12/21 7:00	Composite	10/12/21 7:00	10/11/21 7:00			Pass	JL	10/15/21	6.57	Ohio	Processing	Complete
F01-0006	6005	OneStep RT-ddPCR	Human RNase P	0	0					10/11/21	Manual	DQ	58477037	QX One	CDC nCov-2 Triplex	F1	AP0012	A01	JL	SARS-CoV-2 N1	77.86288261	0	1593.187866	82729.31278	SARS-CoV-2 N2	30.25224209	0	2077.493896	32143.00722																																				CDC N1/N2/RP Triplex	0.005	Sample		10/5/21	10	NT04474	Halcyon	Ceres Nanotrap	0.425		CP0020	A01	JL	WWTP	Sample	10/5/21	0.4	2108052	Halcyon	Thermo Magmax Microbiome Ultra Nucleic Acid Isolation Kit	0.05	F1	EP0020	A01	JL	WestonWWTP-01	BP	10/1/21 23:50	Composite	10/1/21 10:00	9/30/21 10:00			Pass	JL	10/4/21	6.87	Lewis	Processing	Complete
J01-0044																																																																															WWTP												AlpineLakeWWTP-01												Preston		
A01-0083	14231	OneStep RT-ddPCR	Human RNase P	11.6	12325					11/18/21	Manual	DQ	58477038	QX 200	CDC nCov-2 Triplex	E8	AP0020	C08	JL	SARS-CoV-2 N1	142.6	0	1193.4	151512.5	SARS-CoV-2 N2	104.4	0	1245	110925																																					0.005	Sample		11/11/21	10	NT04474	Kookaburra	Ceres Nanotrap	0.425		CP0034	D04	JL	WWTP	Sample	11/11/21	0.4	2108255	Kookaburra	Thermo Magmax Microbiome Ultra Nucleic Acid Isolation Kit	0.05	E8	EP0034	B08	JL	StarCityWWTP-01	GG	11/7/21 23:55	Composite	11/7/21 23:55	11/7/21 0:00			Pass	JL	11/10/21	7.04	Monongalia	Processing	Complete
a02-0237																																																																															WWTP												WVU-Morgantown	-	12/01/2021 10:00 AM	Composite	12/01/2021 09:00 AM	11/29/2021 09:00 AM			Pass	AJ	12/02/2021	7.56	Monongalia		
B01-0052	11398	OneStep RT-ddPCR	Human RNase P	2	2125					11/18/21	Manual	DQ	58477038	QX 200	CDC nCov-2 Triplex	E4	AP0020	C04	JL	SARS-CoV-2 N1	4.2	0	1193.4	4462.5	SARS-CoV-2 N2	2	0	1245	2125																																				CDC N1/N2/RP Triplex	0.005	Sample		11/11/21	10	NT04474	Kookaburra	Ceres Nanotrap	0.425		CP0034	C04	JL	WWTP	Sample	11/11/21	0.4	2108255	Kookaburra	Thermo Magmax Microbiome Ultra Nucleic Acid Isolation Kit	0.05	E4	EP0034	B04	JL	CharlestonWWTP-01	-	11/8/21 7:20	Composite	11/8/21 7:00	11/7/21 7:00			Pass	JL	11/9/21	6.79	Kanawha	Processing	Complete
H01-0069																																																																															WWTP												MoundsvilleWWTP-01												Marshall		
A02-0202	11179	OneStep RT-ddPCR	Human RNase P	4.209950268	4473.07216	None				11/4/21	Manual	DQ	58477038	QX 200	CDC nCov-2 Triplex	G7	AP0016	B07	JL	SARS-CoV-2 N1	6.315208077	0	1040.980072	6709.908582	SARS-CoV-2 N2	16.84432149	0	1205.935364	17897.09158																																					0.005	Sample		11/2/21	10	NT04474	Kookaburra	Ceres Nanotrap	0.425		CP0031	C04	JL	WVU Morgantown	Sample	11/2/21	0.4	21108255	Kookaburra	Thermo Magmax Microbiome Ultra Nucleic Acid Isolation Kit	0.05	G7	EP0031	B07	JL	HonorsSummit-01 (MUB)	EL	11/1/21 10:04	Composite	11/1/21 9:00	10/30/21 9:00			Pass	JL	11/1/21	6.94	Monongalia	Processing	Complete
A02-0028	15032	OneStep RT-ddPCR	Human RNase P	17.57766604	18676.27017					8/23/21	CHECK	DQ	58477036	QX One	CDC nCov-2 Triplex	I4	AP0004	D01	JL	SARS-CoV-2 N1	13.18237185	-20	2835.271912	14006.2701	SARS-CoV-2 N2	13.18237185	-20	3151.898499	14006.2701																																				CDC N1/N2/RP Triplex	0.005	Sample		8/23/21	10	NT04155	Kookaburra	Ceres Nanotrap	0.425		CP000002	A04	JL	WVU Morgantown	Sample	8/23/21	0.4	2102028	Kookaburra	Thermo Magmax Microbiome Ultra Nucleic Acid Isolation Kit	0.05		EP000002	A04	JL	HonorsSummit-01 (MUB)	EL	8/23/21 9:45	Composite	8/23/21 9:00	8/21/21 9:00			Pass	JL	8/23/21	7.41	Monongalia	Processing	Complete
A1026	13203	OneStep RT-ddPCR	Human RNase P		21390					4/19/21	Manual	DQ		QX 200	CDC nCov-2 Triplex					SARS-CoV-2 N1				10680	SARS-CoV-2 N2				10680																																				CDC N1/N2/RP Triplex	0.005	Sample		4/16/21	100			PEG Precipitation	5				JL	WWTP	Sample	4/19/21	0.2			Qiagen QiaAMP Viral Mini-RNA Kit	0.06				JL	StarCityWWTP-01	EL	4/11/21 12:00	Composite	4/12/21 12:00	4/11/21 12:00	8.109		Pass	MVS	4/16/21		Monongalia	Processing	Complete
A1013	12334	OneStep RT-ddPCR	Human RNase P		64128					3/30/21	Manual	DQ		QX 200	CDC nCov-2 Triplex					SARS-CoV-2 N1				9168	SARS-CoV-2 N2				9168																																				CDC N1/N2/RP Triplex	0.005	Sample		3/26/21	100			PEG Precipitation	4				MVS	WWTP	Sample	3/29/21	0.2			Qiagen QiaAMP Viral Mini-RNA Kit	0.06				MVS	StarCityWWTP-01	EL	3/26/21 10:53	Composite	3/23/21 12:00	3/23/21 12:00	9.556		Pass	MVS	3/26/21		Monongalia	Processing	Complete
A1086	12032	OneStep RT-ddPCR		86.2		BRSV		204725		7/9/21	Manual	DQ			BRSV Triplex					SARS-CoV-2 N1	1.96			4655	SARS-CoV-2 N2	1.96			4655																																				N1/N2/BRSV Triplex	0.005	Sample		7/9/21	10			Ceres Nanotrap	0.95	pH - 6.52				WWTP	Sample	7/9/21	0.4			Thermo Magmax Microbiome Ultra Nucleic Acid Isolation Kit	0.05				JL	StarCityWWTP-01	EL	7/6/21 23:55	Composite	7/6/21 23:55	7/6/21 0:00	6.793		Pass	JL	7/9/21	6.52	Monongalia	Processing	Complete
A01-0031	17045	OneStep RT-ddPCR	Human RNase P	24.86085176	26414.655					9/9/21	Manual	DQ	58477037	QX 200	CDC nCov-2 Triplex	K3	AP0007	A03	JL	SARS-CoV-2 N1	64.96977329	0	1303.838043	69030.38412	SARS-CoV-2 N2	64.96977329	0	1366.207123	69030.38412																																				CDC N1/N2/RP Triplex	0.005	Sample		9/8/21	10	NT04155	Halcyon	Ceres Nanotrap	0.425		CP0009	A03	JL	WWTP	Sample	9/8/21	0.4	2102028	Halcyon	Thermo Magmax Microbiome Ultra Nucleic Acid Isolation Kit	0.05	K3	EP0009	A03	JL	StarCityWWTP-01	GG	9/6/21 23:55	Composite	9/6/21 23:55	9/6/21 0:00	9.768		Pass	JL	9/7/21	6.56	Monongalia	Processing	Complete
A02-0063	14806	OneStep RT-ddPCR	Human RNase P	1192.122955	1266630.64					8/30/21	Manual	DQ	58477036	QX One	CDC nCov-2 Triplex	E5	AP0005	E04	JL	SARS-CoV-2 N1	78.61941338	0	2615.09491	83533.12671	SARS-CoV-2 N2	123.8829136	0	2786.116028	131625.5957																																				CDC N1/N2/RP Triplex	0.005	Sample		8/27/21	10	XXXXXX	Halcyon	Ceres Nanotrap	0.425		CP000000	A05	JL	WVU Morgantown	Sample	8/30/21	0.4	2102028	Kookaburra	Thermo Magmax Microbiome Ultra Nucleic Acid Isolation Kit	0.05	E5	EP0006	A05	JL	NorthHighSt-02 (MUB)	EL	8/30/21 10:19	Grab	8/30/21 10:19	8/30/21 10:19			Pass	JL	8/30/21	8.58	Monongalia	Processing	Complete
G01-0018																																																																															WWTP												KeyserWWTP-01	-	11/29/2021 08:10 AM	Composite	11/29/2021 08:00 AM	11/28/2021 09:00 AM			Pass	AJ	12/02/2021	7.32	Mineral		
A02-0145																																																																			Sample													Sample																									Unknown
A03-0104	9086	OneStep RT-ddPCR	Human RNase P	2.58977621793746	4613.0388882011	None				2021-12-03	Manual	DQ	58477038	QX 200	CDC nCov-2 Triplex	E4	AP0023	E04	JL	SARS-CoV-2 N1	0	0	1030.21682739258	0	SARS-CoV-2 N2	0	0	1109.43168640137	0																																					0.005	Sample		2021-12-02	10	NT04474	Kookaburra	Ceres Nanotrap	0.475		CP0042	A04	LW	K-12	Sample	2021-12-02	0.4	2108255	Kookaburra	Thermo Magmax Microbiome Ultra Nucleic Acid Isolation Kit	0.075	E4	EP0042	A04	LW	SuncrestES-01	BL	10/26/21 12:15	Composite	10/25/21 14:00	10/25/21 6:00			Pass	JL	10/27/21		Monongalia	Processing	Complete
E02-0014	16533	OneStep RT-ddPCR	Human RNase P	15.6601750850677	27894.6868702769	None				2021-12-03	Manual	DQ	58477038	QX 200	CDC nCov-2 Triplex	I4	AP0023	G04	JL	SARS-CoV-2 N1	62.7033281326294	0	1030.21682739258	111690.303236246	SARS-CoV-2 N2	11.3881838321686	0	1109.43168640137	20285.2024510503																																					0.005			2021-11-30	10	NT04474	Halcyon	Ceres Nanotrap	0.475		CP0041	D02	AJ	WWTP		2021-11-30	0.4	2108255	Halcyon	Thermo Magmax Microbiome Ultra Nucleic Acid Isolation Kit	0.075	I4	EP0041	C04	AJ	AthensWWTP-01	-	11/23/2021 08:00 AM	Composite	11/23/2021 08:00 AM	11/22/2021 08:00 AM			Pass	AJ	11/30/2021	6.60	Mercer	Processing	Complete
A03-0012																																																																			Sample													Sample																									Unknown
A0237	11622	OneStep RT-ddPCR	Human RNase P		24288					3/11/21	Manual	DQ			CDC nCov-2 Triplex					SARS-CoV-2 N1				497808	SARS-CoV-2 N2				390048																																				CDC N1/N2/RP Triplex	0.005	Sample		2/22/21	100			PEG Precipitation	4				AT	WWTP	Sample	2/24/21	0.2			Qiagen QiaAMP Viral Mini-RNA Kit	0.06				AT	StarCityWWTP-01	GG	2/8/21 8:00	Composite	2/8/21 11:55	2/8/21 12:00	9.712		Pass	TD	2/11/21		Monongalia	Processing	Complete
A02-0294																																																																																											WVU-Morgantown												Monongalia		
H01-0090																																																																															WWTP												MoundsvilleWWTP-01												Marshall		
A02-0266																																																																																											WVU-Morgantown												Monongalia		
L01-0026																																																																																											WestUnionWWTP-01												Doddridge		
A02-0271																																																																																											WVU-Morgantown												Monongalia		
H01-0066																																																																															WWTP												MoundsvilleWWTP-01												Marshall		
A02-0323																																																																																											WVU-Morgantown												Monongalia		
B01-0054																																																																			Sample												WWTP	Sample											CharlestonWWTP-01	-	12/02/2021 07:30 AM	Composite	12/02/2021 07:00 AM	12/01/2021 07:00 AM			Pass	AJ	12/03/2021	7.41	Kanawha		Unknown
A03-0074	18203	OneStep RT-ddPCR	Human RNase P	15.51645637	16486.23489	None				11/29/21	Manual	DQ	58477038	QX 200	CDC nCov-2 Triplex	C8	AP0022	E08	JL	SARS-CoV-2 N1	56.94376945	0	1092.976303	60502.75505	SARS-CoV-2 N2	51.76136494	0	1279.930573	54996.45025																																					0.005	Sample		2021-11-15	10	NT04474	Halcyon	Ceres Nanotrap	0.425		CP0035	B02	LW	K-12	Sample	2021-11-15	0.4	2108255	Halcyon	Ultra 2.0 Microbiome (Thermo)	0.05	C8	EP0035	A08	JL	MorgantownHS-01	BL	11/9/21 9:25	Composite	11/8/21 14:00	11/8/21 6:00			Pass	JL	11/10/21		Monongalia	Processing	Complete
A02-0059	10882	OneStep RT-ddPCR	Human RNase P	1265.887909	1345005.903					8/27/21	Manual	DQ	58477036	QX One	CDC nCov-2 Triplex	D7	AP0005	G03	JL	SARS-CoV-2 N1	9.161401391	0	2615.09491	9733.988978	SARS-CoV-2 N2	13.743366	0	2786.116028	14602.32638																																				CDC N1/N2/RP Triplex	0.005	Sample		8/27/21	10	NT04155	Kookaburra	Ceres Nanotrap	0.425		CP0005	D06	JL	WVU Morgantown	Sample	8/27/21	0.4	2102028	Kookaburra	Thermo Magmax Microbiome Ultra Nucleic Acid Isolation Kit	0.05	D7	EP0005	B11	JL	CollegePark-02	EL	8/27/21 10:59	Grab	8/27/21 10:59	8/27/21 10:59			Pass	JL	8/27/21	8.24	Monongalia	Processing	Complete
A03-0166																																																																																											MountainviewES-01												Monongalia		
G01-0059	14745	OneStep RT-ddPCR	Human RNase P	1.59580946	1695.547551	None				11/4/21	Manual	DQ	58477038	QX 200	CDC nCov-2 Triplex	F1	AP0016	A01	JL	SARS-CoV-2 N1	79.9233532	0	1040.980072	84918.56277	SARS-CoV-2 N2	102.3506165	0	1205.935364	108747.53																																					0.005	Sample		11/2/21	10	NT04474	Kookaburra	Ceres Nanotrap	0.425		CP0031	A01	JL	WWTP	Sample	11/2/21	0.4	21108255	Kookaburra	Thermo Magmax Microbiome Ultra Nucleic Acid Isolation Kit	0.05	F1	EP0031	A01	JL	KeyserWWTP-01	KK	10/24/21 8:40	Composite	10/24/21 7:45	10/23/21 8:45			Pass	JL	10/27/21	6.57	Mineral	Processing	Complete
A02-0048	18994	OneStep RT-ddPCR	Human RNase P	17.34933257	18433.66586					9/9/21	Manual	DQ	58477037	QX 200	CDC nCov-2 Triplex	F6	AP0007	C04	JL	SARS-CoV-2 N1	3.716637194	0	1303.838043	3948.927019	SARS-CoV-2 N2	6.19472146	0	1366.207123	6581.891552																																				CDC N1/N2/RP Triplex	0.005	Sample		9/2/21	10	 NT04155	Kookaburra	Ceres Nanotrap	0.425		CP0007	A06	JL	WVU Morgantown	Sample	9/2/21	0.4	2102028	Halcyon	Thermo Magmax Microbiome Ultra Nucleic Acid Isolation Kit	0.05	F6	EP0007	A06	JL	CollegePark-02	EL	8/25/21 10:03	Composite	8/25/21 10:12	8/23/21 10:12			Pass	JL	8/25/21	7.33	Monongalia	Processing	Complete
A03-0096	8345	OneStep RT-ddPCR	Human RNase P	2.81975090503692	5022.68129959701	None				2021-12-03	Manual	DQ	58477038	QX 200	CDC nCov-2 Triplex	F3	AP0023	F03	JL	SARS-CoV-2 N1	0	0	1030.21682739258	0	SARS-CoV-2 N2	0	0	1109.43168640137	0																																					0.005			2021-12-02	10	NT04474	Kookaburra	Ceres Nanotrap	0.475		CP0042	B05	LW			2021-12-02	0.4	2108255	Kookaburra	Thermo Magmax Microbiome Ultra Nucleic Acid Isolation Kit	0.075	F3	EP0042	B03	LW														Processing	Complete
G02-0017																																																																			Sample	DATES ONLY -- NO TIMES ON LABEL	11/12/21	10	NT04474	Kookaburra	Ceres Nanotrap	0.425		CP0035	D03	AJ	WVU Keyser	Sample	11/12/21	0.4	2108255	Kookaburra	Thermo Magmax Microbiome Ultra Nucleic Acid Isolation Kit	0.05	H7	EP0035	B07	AJ	PotomacState-01	MT	11/5/21 12:00	Composite	11/4/21 0:00	11/4/21 0:00			Pass	JL	11/12/21	7.02	Mineral	Processing	Processing
A02-0331																																																																																											WVU-Morgantown												Monongalia		
K01-0011																																																																																											ParkersburgWWTP-01												Wood		
A1093	12463	OneStep RT-ddPCR		79.43		BRSV		188646.25		7/30/21	Manual	DQ			BRSV Triplex					SARS-CoV-2 N1	0			0	SARS-CoV-2 N2	1.89			4488.75																																				N1/N2/BRSV Triplex	0.005	Sample		7/30/21	10			Ceres Nanotrap	0.95					WWTP	Sample	7/30/21	0.4			Thermo Magmax Microbiome Ultra Nucleic Acid Isolation Kit	0.05				JL	StarCityWWTP-01	EL	7/15/21 23:55	Composite	7/15/21 23:55	7/15/21 0:00	7.917		Pass	JL	7/30/21		Monongalia	Processing	Complete
A02-0223	12223	OneStep RT-ddPCR	Human RNase P	40.46000004	42988.75004	None				11/22/21	Manual	DQ	58477038	QX 200	CDC nCov-2 Triplex	L7	AP0021	D07	JL	SARS-CoV-2 N1	3.850337565	1109.141006	0	4090.983663	SARS-CoV-2 N2	7.701305151	1229.36615	0	8182.636723																																					0.005	Sample		11/17/21	10	NT04474	Halcyon	Ceres Nanotrap	0.425		CP0037	D03	JL	WVU Morgantown	Sample	11/17/21	0.4	2108255	Halcyon	Thermo Magmax Microbiome Ultra Nucleic Acid Isolation Kit	0.05	L7	EP0037	B07	JL	HonorsSummit-01 (MUB)	CA	11/17/21 10:18	Composite	11/17/21 10:18	11/15/21 10:18			Pass	JL	11/17/21	7.58	Monongalia	Processing	Complete
I01-0006	16642	OneStep RT-ddPCR	Human RNase P	2.827884257	3004.627023	None				11/22/21	Manual	DQ	58477038	QX 200	CDC nCov-2 Triplex	I6	AP0021	A06	JL	SARS-CoV-2 N1	2.827884257	1109.141006	0	3004.627023	SARS-CoV-2 N2	0	1229.36615	0	0																																					0.005	Sample		11/16/21	10	NT04474	Kookaburra	Ceres Nanotrap	0.425		CP0036	B02	AJ	WWTP	Sample	11/16/21	0.4	2108255	Kookaburra	Thermo Magmax Microbiome Ultra Nucleic Acid Isolation Kit	0.05	I6	EP0036	A06	AJ	WarmSpringsWWTP-01	-	11/8/21 9:50	Composite	11/8/21 7:00	11/7/21 7:00			Pass	JL	11/12/21	6.56	Morgan	Processing	Complete
A02-0098	15765	OneStep RT-ddPCR	Human RNase P	692.1582031	735418.0908					9/20/21	Manual	DQ	58477037	QX 200	CDC nCov-2 Triplex	B6	AP0008	B06	JL	SARS-CoV-2 N1	2.985208333	0	1320.22522	3171.783853	SARS-CoV-2 N2	26.88051939	0	1524.019623	28560.55185																																				CDC N1/N2/RP Triplex	0.005	Sample		9/13/21	10	NT04155	Halcyon	Ceres Nanotrap	0.425		CP0011	C02	JL	WVU Morgantown	Sample	9/13/21	0.4	2105033	Halcyon	Thermo Magmax Microbiome Ultra Nucleic Acid Isolation Kit	0.05	B6	EP0011	B02	JL	OaklandE-02	EL	9/13/21 9:32	Grab	9/13/21 9:32	9/13/21 9:32			Pass	JL	9/13/21	8.47	Monongalia	Processing	Complete
A02-0213	16030	OneStep RT-ddPCR	Human RNase P	88.2	93712.5					11/18/21	Manual	DQ	58477038	QX 200	CDC nCov-2 Triplex	F2	AP0020	E02	JL	SARS-CoV-2 N1	106	0	1193.4	112625	SARS-CoV-2 N2	88.2	0	1245	93712.5																																					0.005	Sample		11/11/21	10	NT04474	Kookaburra	Ceres Nanotrap	0.425		CP0034	B06	JL	WVU Morgantown	Sample	11/11/21	0.4	2108255	Kookaburra	Thermo Magmax Microbiome Ultra Nucleic Acid Isolation Kit	0.05	F2	EP0034	C02	JL	OaklandE-02	EL	11/10/21 9:30	Composite	11/10/21 9:30	11/8/21 9:30			Pass	JL	11/10/21	7.73	Monongalia	Processing	Complete
K01-0039																																																																																											ParkersburgWWTP-01												Wood		
C01-0040	11431	OneStep RT-ddPCR	Human RNase P	10.2941823005676	18336.5122228861	None				2021-12-03	Manual	DQ	58477038	QX 200	CDC nCov-2 Triplex	F1	AP0023	B01	JL	SARS-CoV-2 N1	105.212574005127	0	1030.21682739258	187409.897446632	SARS-CoV-2 N2	90.7437419891358	0	1109.43168640137	161637.290418148																																					0.005			2021-11-29	10	NT04474	Halcyon	Ceres Nanotrap	0.475		CP0040	C01	AJ	WWTP		2021-11-29	0.4	2108255	Halcyon	Thermo Magmax Microbiome Ultra Nucleic Acid Isolation Kit	0.075	F1	EP0040	B01	AJ	WheelingWWTP-01	-	11/17/21 7:00	Composite	11/17/21 7:00	11/16/21 7:00			Pass	AJ	11/23/21	6.35	Ohio	Processing	Complete
A01-0047	17426	OneStep RT-ddPCR	Human RNase P	20.31660318	21586.39088					10/5/21	Manual	DQ	58477037	QX One	CDC nCov-2 Triplex	K6	AP0011	F04	JL	SARS-CoV-2 N1	175.8860588	1355.395355	0	186878.9375	SARS-CoV-2 N2	75.79081535	1548.404388	0	80527.74131																																				CDC N1/N2/RP Triplex	0.005	Sample		9/27/21	10	NT04474	Halcyon	Ceres Nanotrap	0.425		CP0017	A06	JL	WWTP	Sample	9/27/21	0.4	2105049	Halcyon	Thermo Magmax Microbiome Ultra Nucleic Acid Isolation Kit	0.05	K6	EP0017	A06	JL	StarCityWWTP-01	DW	9/21/21 23:55	Composite	9/21/21 23:55	9/21/21 0:00	7.79		Pass	JL	9/24/21	6.63	Monongalia	Processing	Complete
A03-0081	17065	OneStep RT-ddPCR	Human RNase P	33.1147575378418	58985.6618642807	None				2021-12-03	Manual	DQ	58477038	QX 200	CDC nCov-2 Triplex	E7	AP0023	E07	JL	SARS-CoV-2 N1	4.1367968916893	0	1030.21682739258	7368.66946332156	SARS-CoV-2 N2	0	0	1109.43168640137	0																																					0.005			2021-12-02	10	NT04474	Kookaburra	Ceres Nanotrap	0.475		CP0042	B01	LW			2021-12-02	0.4	2108255	Kookaburra	Thermo Magmax Microbiome Ultra Nucleic Acid Isolation Kit	0.075	E7	EP0042	A07	LW														Processing	Complete
A02-0295																																																																																											WVU-Morgantown												Monongalia		
L01-0020																																																																																											WestUnionWWTP-01												Doddridge		
H01-0015	10999	OneStep RT-ddPCR	Human RNase P	0	0	None				10/20/21	Manual	DQ	58477038	QX One	CDC nCov-2 Triplex	F5	AP0014	E02	JL	SARS-CoV-2 N1	0	0	2152.007294	0	SARS-CoV-2 N2	0	0	2493.552246	0																																					0.005	Sample		10/15/21	10	NT04474	Halcyon	Ceres Nanotrap	0.425		CP0025	C01	JL	WWTP	Sample	10/15/21	0.4	2108255	Halcyon	Thermo Magmax Microbiome Ultra Nucleic Acid Isolation Kit	0.05	F5	EP0025	C01	JL	MoundsvilleWWTP-01	DRC	10/13/21 8:15	Composite	10/13/21 8:00	10/12/21 8:00			Pass	JL	10/15/21	7.07	Marshall	Processing	Complete
A02-0330																																																																																											WVU-Morgantown												Monongalia		
J01-0002																																																																															WWTP												AlpineLakeWWTP-01												Preston		
A02-0153	17313	OneStep RT-ddPCR				BRSV	540.2661514	574032.7859		8/13/21	Manual	DQ		QX 200	BRSV Triplex		AP000000	A07	JL	SARS-CoV-2 N1	0	0	2236.361694	0	SARS-CoV-2 N2	1.359099597	0	2276.707153	1444.04335																																				CDC N1/N2/RP Triplex	0.005	Sample	Was A06-0005	8/13/21	10	NT04155	Kookaburra	Ceres Nanotrap	0.425		CP000000	B01	JL	WVU Morgantown	Sample	8/13/21	0.4	2102028	Kookaburra	Thermo Magmax Microbiome Ultra Nucleic Acid Isolation Kit	0.05		EP000000	B01	JL	Evansdale-01	EL	8/10/21 9:07	Composite	8/10/21 9:00	8/9/21 9:00			Pass	JL	8/10/21	7.43	Monongalia	Processing	Complete
A1079	12116	OneStep RT-ddPCR		79.76		BRSV		189430		7/9/21	Manual	DQ			BRSV Triplex					SARS-CoV-2 N1	1.94			4607.5	SARS-CoV-2 N2	0			0																																				N1/N2/BRSV Triplex	0.005	Sample		7/9/21	10			Ceres Nanotrap	0.95	pH - 6.41				WWTP	Sample	7/9/21	0.4			Thermo Magmax Microbiome Ultra Nucleic Acid Isolation Kit	0.05				JL	StarCityWWTP-01	EL	6/27/21 23:55	Composite	6/27/21 23:55	6/27/21 0:00	7.515		Pass	JL	7/9/21	6.41	Monongalia	Processing	Complete
G02-0004		OneStep RT-ddPCR	Human RNase P			None				11/1/21	CHECK	ABS	58477038	QX 200	CDC nCov-2 Triplex	D3	AP0015	D03	JL	SARS-CoV-2 N1					SARS-CoV-2 N2																																									0.005	Sample		10/27/21	10	NT04474	Kookaburra	Ceres Nanotrap	0.425		CP0029	A03	JL	WVU Keyser	Sample	10/27/21	0.4	2108255	Halcyon	Thermo Magmax Microbiome Ultra Nucleic Acid Isolation Kit	0.05	D3	EP0029	A03	JL	PotomacState-01	WS	10/18/21 11:30	Grab	10/18/21 11:30	10/18/21 11:30			Pass	JL	10/27/21	6.98	Mineral	Processing	Confirming
A02-0132	10501	OneStep RT-ddPCR	Human RNase P	11.20608211	11906.46224					9/29/21	Manual	DQ	58477037	QX 200	CDC nCov-2 Triplex	B5	AP0010	D05	JL	SARS-CoV-2 N1	0	0	1097.667847	0	SARS-CoV-2 N2	6.723009348	0	1200.682373	7143.197432																																				CDC N1/N2/RP Triplex	0.005	Sample		9/29/21	10	NT04474	Halcyon	Ceres Nanotrap	0.425		CP0018	A05	JL	WVU Morgantown	Sample	9/29/21	0.4	2105049	Halcyon	Thermo Magmax Microbiome Ultra Nucleic Acid Isolation Kit	0.05	B5	EP0018	A05	JL	NorthHighSt-02 (MUB)	EL	9/29/21 10:14	Composite	9/29/21 10:14	9/27/21 10:14			Pass	JL	9/29/21	7.41	Monongalia	Processing	Complete
A0212	16156	OneStep RT-ddPCR	Human RNase P		6984					2/22/21	Manual	DQ			CDC nCov-2 Triplex					SARS-CoV-2 N1				24480	SARS-CoV-2 N2				27960																																				CDC N1/N2/RP Triplex	0.005	Sample		2/5/21	100			PEG Precipitation	4				MS	WWTP	Sample	2/17/21	0.2			Qiagen QiaAMP Viral Mini-RNA Kit	0.06				MS	StarCityWWTP-01	GS	1/4/21 0:00	Composite	1/4/21 23:59	1/4/21 0:00	11.872		Pass	TD	1/8/21		Monongalia	Processing	Complete
A02-0233	15639	OneStep RT-ddPCR	Human RNase P	0	0	None				2021-12-03	Manual	DQ	58477038	QX 200	CDC nCov-2 Triplex	F7	AP0023	B07	JL	SARS-CoV-2 N1	0	0	1030.21682739258	0	SARS-CoV-2 N2	1.50458246469498	0	1109.43168640137	2680.03751523793																																					0.005			2021-11-29	10	NT04474	Halcyon	Ceres Nanotrap	0.475		CP0040	D03	AJ	WVU Morgantown		2021-11-29	0.4	2108255	Halcyon	Thermo Magmax Microbiome Ultra Nucleic Acid Isolation Kit	0.075	F7	EP0040	B07	AJ	Evansdale-01	BL	11/29/21 9:55	Composite	11/29/21 9:00	11/27/21 9:00			Pass	JL	11/29/21	7.47	Monongalia	Processing	Complete
A01-0015	10297	OneStep RT-ddPCR	Human RNase P	37.57871628	39927.38605					8/27/21	Manual	DQ	58477036	QX One	CDC nCov-2 Triplex	D1	AP0005	A03	JL	SARS-CoV-2 N1	412.6255798	0	2615.09491	438414.6786	SARS-CoV-2 N2	169.4503784	0	2786.116028	180041.0271																																				CDC N1/N2/RP Triplex	0.005	Sample		8/27/21	10	NT04155	Kookaburra	Ceres Nanotrap	0.425		CP0005	C06	JL	WWTP	Sample	8/27/21	0.4	2102028	Kookaburra	Thermo Magmax Microbiome Ultra Nucleic Acid Isolation Kit	0.05	D1	EP0005	B05	JL	StarCityWWTP-01	GG	8/25/21 23:55	Composite	8/25/21 23:55	8/25/21 0:00	8.915		Pass	JL	8/27/21	7.01	Monongalia	Processing	Complete
G02-0020																																																																															WWTP												PotomacState-01	-	11/29/2021 02:00 PM	Composite					Fail: Missing Required Data	AJ	12/03/2021		Mineral		
A0240	14185	OneStep RT-ddPCR	Human RNase P		11952					3/11/21	Manual	DQ			CDC nCov-2 Triplex					SARS-CoV-2 N1				41796	SARS-CoV-2 N2				29880																																				CDC N1/N2/RP Triplex	0.005	Sample		2/22/21	100			PEG Precipitation	6				AT	WWTP	Sample	2/24/21	0.2			Qiagen QiaAMP Viral Mini-RNA Kit	0.06				AT	StarCityWWTP-01	GG	2/11/21 8:00	Composite	2/11/21 11:55	2/11/21 12:00	9.206		Pass	TD	2/18/21		Monongalia	Processing	Complete
H01-0046																																																																															WWTP												MoundsvilleWWTP-01		11/21/2021 08:15 AM	Composite	11/21/2021 08:00 AM	11/20/2021 08:00 AM			Fail: Temperature Above Threshold	JL	11/29/2021		Marshall		
H01-0016	10286	OneStep RT-ddPCR	Human RNase P	6.863555312	7292.527519	None				10/20/21	Manual	DQ	58477038	QX One	CDC nCov-2 Triplex	F6	AP0014	F02	JL	SARS-CoV-2 N1	50.37929535	0	2152.007294	53528.00131	SARS-CoV-2 N2	41.21139526	0	2493.552246	43787.10747																																					0.005	Sample		10/15/21	10	NT04474	Halcyon	Ceres Nanotrap	0.425		CP0025	C02	JL	WWTP	Sample	10/15/21	0.4	2108255	Halcyon	Thermo Magmax Microbiome Ultra Nucleic Acid Isolation Kit	0.05	F6	EP0025	C02	JL	MoundsvilleWWTP-01	DRC	10/14/21 8:15	Composite	10/14/21 8:00	10/13/21 8:00			Pass	JL	10/15/21	6.98	Marshall	Processing	Complete
E02-0015	4999	OneStep RT-ddPCR	Human RNase P	0	0	None				2021-12-03	Manual	DQ	58477038	QX 200	CDC nCov-2 Triplex	I5	AP0023	G05	JL	SARS-CoV-2 N1	0	0	1030.21682739258	0	SARS-CoV-2 N2	0	0	1109.43168640137	0																																					0.005			2021-11-30	10	NT04474	Halcyon	Ceres Nanotrap	0.475		CP0041	D03	AJ	WWTP		2021-11-30	0.4	2108255	Halcyon	Thermo Magmax Microbiome Ultra Nucleic Acid Isolation Kit	0.075	I5	EP0041	C05	AJ	AthensWWTP-01	-	11/24/2021 08:00 AM	Composite	11/24/2021 08:00 AM	11/23/2021 08:00 AM			Pass	AJ	11/30/2021	6.55	Mercer	Processing	Confirming
G01-0028																																																																			Sample												WWTP	Sample											KeyserWWTP-01	-	11/14/21 7:45	Composite	11/14/21 7:00	11/13/21 8:00			Pass	JL	11/16/21	7.41	Mineral	Processing	Processing
A1019	12779	OneStep RT-ddPCR	Human RNase P		16560					4/12/21	Manual	DQ		QX 200	CDC nCov-2 Triplex					SARS-CoV-2 N1				16560	SARS-CoV-2 N2				11040																																				CDC N1/N2/RP Triplex	0.005	Sample		4/9/21	100			PEG Precipitation	5				MVS	WWTP	Sample	4/12/21	0.2			Qiagen QiaAMP Viral Mini-RNA Kit	0.06				MVS	StarCityWWTP-01	GG	3/31/21 12:00	Composite	3/31/21 12:00	3/31/21 12:00	9.229		Pass	Josh Lambert	4/9/21		Monongalia	Processing	Complete
A02-0301																																																																																											WVU-Morgantown												Monongalia		
K01-0037																																																																																											ParkersburgWWTP-01												Wood		
A01-0043	11800	OneStep RT-ddPCR	Human RNase P	26.56710386	28227.54785					10/5/21	Manual	DQ	58477037	QX One	CDC nCov-2 Triplex	K4	AP0011	E04	JL	SARS-CoV-2 N1	193.7828636	1355.395355	0	205894.2926	SARS-CoV-2 N2	38.65125895	1548.404388	0	41066.96263																																				CDC N1/N2/RP Triplex	0.005	Sample		9/27/21	10	NT04474	Halcyon	Ceres Nanotrap	0.425		CP0017	A04	JL	WWTP	Sample	9/27/21	0.4	2105049	Halcyon	Thermo Magmax Microbiome Ultra Nucleic Acid Isolation Kit	0.05	K4	EP0017	A04	JL	StarCityWWTP-01	GG	9/22/21 23:55	Composite	9/22/21 23:55	9/22/21 0:00	10.201		Pass	JL	9/24/21	6.64	Monongalia	Processing	Complete
A01-0078	11032	OneStep RT-ddPCR	Human RNase P	17.06885219	18135.65545	None				11/4/21	Manual	DQ	58477038	QX 200	CDC nCov-2 Triplex	I3	AP0016	D03	JL	SARS-CoV-2 N1	59.79523182	0	1040.980072	63532.43381	SARS-CoV-2 N2	38.42234612	0	1205.935364	40823.74275																																					0.005	Sample		11/3/21	10	NT04474	Halcyon	Ceres Nanotrap	0.425		CP0032	A03	JL	WWTP	Sample	11/3/21	0.4	21108255	Kookaburra	Thermo Magmax Microbiome Ultra Nucleic Acid Isolation Kit	0.05	I3	EP0032	A03	JL	StarCityWWTP-01	GG	11/1/21 23:55	Composite	11/1/21 23:55	11/1/21 0:00			Pass	JL	11/3/21	6.75	Monongalia	Processing	Complete
G01-0025																																																																			Sample		11/12/21	10	NT04474	Kookaburra	Ceres Nanotrap	0.425		CP0035	C03	AJ	WWTP	Sample	11/12/21	0.4	2108255	Kookaburra	Thermo Magmax Microbiome Ultra Nucleic Acid Isolation Kit	0.05	H3	EP0035	B03	AJ	KeyserWWTP-01	TD	11/11/21 9:10	Composite	11/11/21 8:00	11/10/21 9:00			Pass	JL	11/12/21	7.05	Mineral	Processing	Processing
A02-0275																																																																																											WVU-Morgantown												Monongalia		
A03-0186																																																																																											MountainviewES-01												Monongalia		
H01-0088																																																																															WWTP												MoundsvilleWWTP-01												Marshall		
A02-0062	11896	OneStep RT-ddPCR	Human RNase P	725.6478119	771000.8001					8/30/21	Manual	DQ	58477036	QX One	CDC nCov-2 Triplex	E4	AP0005	D04	JL	SARS-CoV-2 N1	6.292849183	0	2615.09491	6686.152257	SARS-CoV-2 N2	14.68578577	0	2786.116028	15603.64738																																				CDC N1/N2/RP Triplex	0.005	Sample		8/27/21	10	XXXXXX	Halcyon	Ceres Nanotrap	0.425		CP000000	A04	JL	WVU Morgantown	Sample	8/30/21	0.4	2102028	Kookaburra	Thermo Magmax Microbiome Ultra Nucleic Acid Isolation Kit	0.05	E4	EP0006	A04	JL	HonorsSummit-01 (MUB)	EL	8/30/21 10:04	Grab	8/30/21 10:04	8/30/21 10:04			Pass	JL	8/30/21	7.45	Monongalia	Processing	Complete
A02-0307																																																																																											WVU-Morgantown												Monongalia		
A02-0240																																																																															WVU Morgantown												HonorsSummit-01 (MUB)		12/03/2021 09:37 AM	Composite	12/03/2021 09:00 AM	12/01/2021 09:00 AM			Pass	AJ	12/01/2021	8.11	Monongalia		
A02-0263																																																																																											WVU-Morgantown												Monongalia		
A03-0066	10961	OneStep RT-ddPCR	Human RNase P	4.293688536	4562.044069	None				11/29/21	Manual	DQ	58477038	QX 200	CDC nCov-2 Triplex	NAB_14 C1	AP0022	E01	JL	SARS-CoV-2 N1	2.146746069	0	1092.976303	2280.917699	SARS-CoV-2 N2	8.588160276	0	1279.930573	9124.920294																																					0.005	Sample		2021-11-15	10	NT04474	Halcyon	Ceres Nanotrap	0.425		CP0035	A01	LW	K-12	Sample	2021-11-15	0.4	2108255	Halcyon	Ultra 2.0 Microbiome (Thermo)	0.05	C1	EP0035	A01	JL	MorgantownHS-01	BL	11/4/21 10:05	Composite	11/3/21 14:00	11/3/21 6:00			Pass	JL	11/5/21		Monongalia	Processing	Complete
L01-0023																																																																																											WestUnionWWTP-01												Doddridge		
A03-0076	11042	OneStep RT-ddPCR	Human RNase P	4.26218837499618	4528.57514843344	None				2021-12-03	Manual	DQ	58477038	QX 200	CDC nCov-2 Triplex	D3	AP0023	H07	JL	SARS-CoV-2 N1	0	0	1030.21682739258	0	SARS-CoV-2 N2	4.26218837499618	0	1109.43168640137	4528.57514843344																																					0.005	Sample		2021-11-15	10	NT04474	Halcyon	Ceres Nanotrap	0.425		CP0035	B05	LW	K-12	Sample	2021-11-15	0.4	2108255	Halcyon	Ultra 2.0 Microbiome (Thermo)	0.05	D3	EP0035	B03	JL	MorgantownHS-01	BL	11/11/21 9:50	Composite	11/10/21 14:00	11/10/21 6:00			Pass	JL	11/12/21		Monongalia	Processing	Complete
H01-0025	12492	OneStep RT-ddPCR	Human RNase P	26.4	28050	None				11/17/21	Manual	DQ	58477038	QX 200	CDC nCov-2 Triplex	J4	AP0019	A05	JL	SARS-CoV-2 N1	0	0	1166.6	0	SARS-CoV-2 N2	13.2	0	1342.8	14025																																					0.005	Sample		11/3/21	10	NT04474	Halcyon	Ceres Nanotrap	0.425		CP0032	B06	JL	WWTP	Sample	11/3/21	0.4	21108255	Kookaburra	Thermo Magmax Microbiome Ultra Nucleic Acid Isolation Kit	0.05	J4	EP0032	A12	JL	MoundsvilleWWTP-01	DRC	10/25/21 8:15	Composite	10/25/21 8:00	10/24/21 8:00			Pass	JL	10/29/21	7.09	Marshall	Processing	Complete
K01-0014																																																																																											ParkersburgWWTP-01												Wood		
A0213	15295	OneStep RT-ddPCR	Human RNase P		11088					2/22/21	Manual	DQ			CDC nCov-2 Triplex					SARS-CoV-2 N1				59112	SARS-CoV-2 N2				36936																																				CDC N1/N2/RP Triplex	0.005	Sample		2/5/21	100			PEG Precipitation	4				MS	WWTP	Sample	2/17/21	0.2			Qiagen QiaAMP Viral Mini-RNA Kit	0.06				MS	StarCityWWTP-01	GS	1/5/21 0:00	Composite	1/5/21 23:59	1/5/21 0:00	11.421		Pass	TD	1/8/21		Monongalia	Processing	Complete
A02-0058	12693	OneStep RT-ddPCR	Human RNase P	3.363850415	3574.091066					9/2/21	Manual	DQ		QX One	BRSV Triplex	G4	AP000000	D02	JL	SARS-CoV-2 N1	5.045974255	0	3138.026123	5361.347646	SARS-CoV-2 N2	5.045974255	0	3336.080627	5361.347646																																				CDC N1/N2/RP Triplex	0.005	Sample		9/2/21	10	 NT04155	Kookaburra	Ceres Nanotrap	0.425		CP0007	B06	JL	WVU Morgantown	Sample	9/2/21	0.4	2102028	Halcyon	Thermo Magmax Microbiome Ultra Nucleic Acid Isolation Kit	0.05	G4	EP0007	A12	JL	CollegePark-02	EL	8/27/21 10:58	Composite	8/27/21 10:03	8/25/21 10:03			Pass	JL	8/27/21	7.36	Monongalia	Processing	Complete
A02-0287																																																																																											WVU-Morgantown												Monongalia		
A1034	12606	OneStep RT-ddPCR	Human RNase P		47040					4/26/21	Manual	DQ		QX 200	CDC nCov-2 Triplex					SARS-CoV-2 N1				23520	SARS-CoV-2 N2				15666																																				CDC N1/N2/RP Triplex	0.005	Sample		4/23/21	100			PEG Precipitation	7				MVS	WWTP	Sample	4/26/21	0.2			Qiagen QiaAMP Viral Mini-RNA Kit	0.06				MVS	StarCityWWTP-01	EL	4/23/21 10:57	Composite	4/21/21 11:59	4/21/21 12:00	8.235		Pass	MVS	4/23/21		Monongalia	Processing	Complete
A02-0112	9707	OneStep RT-ddPCR	Human RNase P	19.39970136	20612.18269					9/20/21	Manual	DQ	58477037	QX 200	CDC nCov-2 Triplex	G3	AP0008	E03	JL	SARS-CoV-2 N1	119.0749931	0	1320.22522	126517.1802	SARS-CoV-2 N2	38.81541014	0	1524.019623	41241.37327																																				CDC N1/N2/RP Triplex	0.005	Sample		9/17/21	10	NT04155	Halcyon	Ceres Nanotrap	0.425		CP0013	C03	JL	WVU Morgantown	Sample	9/17/21	0.4	2105033	Halcyon	Thermo Magmax Microbiome Ultra Nucleic Acid Isolation Kit	0.05	G3	EP0012	A11	JL	HonorsSummit-01 (MUB)	EL	9/17/21 10:21	Composite	9/17/21 10:21	9/15/21 10:21			Pass	JL	9/17/21	7.08	Monongalia	Processing	Complete
C01-0043	11287	OneStep RT-ddPCR	Human RNase P	4.16966378688812	7427.21362039446	None				2021-12-03	Manual	DQ	58477038	QX 200	CDC nCov-2 Triplex	NAB16 G1	AP0023	C01	JL	SARS-CoV-2 N1	89.8110103607178	0	1030.21682739258	159975.862205029	SARS-CoV-2 N2	41.7299222946166	0	1109.43168640137	74331.4240872858																																					0.005			2021-11-30	10	NT04474	Halcyon	Ceres Nanotrap	0.475		CP0041	A01	AJ	WWTP		2021-11-30	0.4	2108255	Halcyon	Thermo Magmax Microbiome Ultra Nucleic Acid Isolation Kit	0.075	NAB16 G1	EP0041	A01	AJ	WheelingWWTP-01	-	11/23/2021 07:00 AM	Composite	11/23/2021 07:00 AM	11/22/2021 07:00 AM			Pass	AJ	11/30/2021	6.36	Ohio	Processing	Complete
H01-0038	15794	OneStep RT-ddPCR	Human RNase P	14.9024093151093	26544.9165925384	None				2021-12-03	Manual	DQ	58477038	QX 200	CDC nCov-2 Triplex	C3	AP0023	H05	JL	SARS-CoV-2 N1	1.48981615900993	0	1030.21682739258	2653.73503323644	SARS-CoV-2 N2	5.9598308801651	0	1109.43168640137	10615.9487552941																																					0.005	Sample		2021-11-22	10	NT04474	Halcyon	Ceres Nanotrap	0.475		CP0039	A03	AJ	WWTP	Sample	2021-11-22	0.4	2108255	Halcyon	Ultra 2.0 Microbiome (Thermo)	0.075	C3	EP0039	A03	AJ	MoundsvilleWWTP-01	-	11/14/21 8:15	Composite	11/14/21 8:00	11/13/21 8:00			Pass	AJ	11/19/21	6.95	Marshall	Processing	Confirming
A01-0001	19475	OneStep RT-ddPCR				BRSV	548.8265228	583128.1805		8/13/21	Manual	DQ		QX 200	BRSV Triplex		AP000000	A03	JL	SARS-CoV-2 N1	8.458818793	0	2236.361694	8987.49459	SARS-CoV-2 N2	9.667469263	0	2276.707153	10271.68584																																				CDC N1/N2/RP Triplex	0.005	Sample		8/13/21	10	NT04155	Kookaburra	Ceres Nanotrap	0.425		CP000000	A03	JL	WWTP	Sample	8/13/21	0.4	2102028	Kookaburra	Thermo Magmax Microbiome Ultra Nucleic Acid Isolation Kit	0.05		EP000000	A03	JL	StarCityWWTP-01	GG	8/9/21 23:55	Composite	8/9/21 23:55	8/9/21 0:00	7.6		Pass	JL	8/13/21		Monongalia	Processing	Complete
L01-0031																																																																																											WestUnionWWTP-01												Doddridge		
A02-0224	19494	OneStep RT-ddPCR	Human RNase P	18.11208725	19244.0927	None				11/22/21	Manual	DQ	58477038	QX 200	CDC nCov-2 Triplex	L8	AP0021	D08	JL	SARS-CoV-2 N1	2.414139658	1109.141006	0	2565.023387	SARS-CoV-2 N2	6.035813093	1229.36615	0	6413.051412																																					0.005	Sample		11/17/21	10	NT04474	Halcyon	Ceres Nanotrap	0.425		CP0037	D04	JL	WVU Morgantown	Sample	11/17/21	0.4	2108255	Halcyon	Thermo Magmax Microbiome Ultra Nucleic Acid Isolation Kit	0.05	L8	EP0037	B08	JL	NorthHighSt-02 (MUB)	CA	11/17/21 10:37	Composite	11/17/21 10:37	11/15/21 10:37			Pass	JL	11/17/21	8.09	Monongalia	Processing	Complete
A02-0229	13393	OneStep RT-ddPCR	Human RNase P	12.3011231422424	21911.3755971193	None				2021-12-03	Manual	DQ	58477038	QX 200	CDC nCov-2 Triplex	A7	AP0023	H02	JL	SARS-CoV-2 N1	0	0	1030.21682739258	0	SARS-CoV-2 N2	0	0	1109.43168640137	0																																					0.005	Sample		2021-11-19	10	NT04474	Halcyon	Ceres Nanotrap	0.475		CP0038	C04	AJ	WVU Morgantown	Sample	2021-11-19	0.4	2108255	Halcyon	Ultra 2.0 Microbiome (Thermo)	0.075	A7	EP0038	B04	AJ	CollegePark-02	EL	11/19/21 11:23	Composite	11/19/21 10:15	11/17/21 10:15						7.45	Monongalia	Processing	Confirming
G02-0002	12076	OneStep RT-ddPCR	Human RNase P	22.29872227	23692.39241					10/14/21	Manual	DQ	58477038	QX One	CDC nCov-2 Triplex	C5	AP0013	E02	JL	SARS-CoV-2 N1	0	0	1707.766876	0	SARS-CoV-2 N2	17.34201312	0	1836.244965	18425.88894																																				CDC N1/N2/RP Triplex	0.005	Sample		10/13/21	10	NT04474	Halcyon	Ceres Nanotrap	0.425		CP0024	B01	JL	WVU Keyser	Sample	10/13/21	0.4	2108255	Halcyon	Thermo Magmax Microbiome Ultra Nucleic Acid Isolation Kit	0.05	C5	EP0024	A05	JL	PotomacState-01	MH	10/11/21 10:20	Composite	10/11/21 9:00	10/9/21 9:00			Pass	JL	10/13/21	6.89	Mineral	Processing	Complete
A03-0109	11678	OneStep RT-ddPCR	Human RNase P	0	0	None				11/8/21	Manual	DQ	58477038	QX 200	CDC nCov-2 Triplex	B6	AP0017	B06	AJ	SARS-CoV-2 N1	0	0	560.2787018	0	SARS-CoV-2 N2	0	0	653.7683868	0																																					0.005	Sample		11/5/21	10	NT04474	Kookaburra	Ceres Nanotrap	0.425		CP00033	C02	JL	K-12	Sample	11/5/21	0.4	21108255	Kookaburra	Thermo Magmax Microbiome Ultra Nucleic Acid Isolation Kit	0.05	B6	EP0033	B06	JL	MountainviewES-01	BL	10/29/21 13:15	Composite	10/29/21 13:00	10/29/21 6:00			Pass	JL	11/1/21	7.38	Monongalia	Processing	Complete
G01-0020																																																																															WWTP												KeyserWWTP-01		11/23/2021 08:25 AM	Composite	11/23/2021 08:00 AM	11/22/2021 09:00 AM			Fail: Temperature Above Threshold	JL	11/29/2021		Mineral		
A03-0106	50.7	OneStep RT-ddPCR	Human RNase P			None				11/1/21	OK	ABS	58477038	QX 200	CDC nCov-2 Triplex	B1	AP0015	F01	JL	SARS-CoV-2 N1					SARS-CoV-2 N2																																									0.005	Sample		10/28/21	10	NT04474	Halcyon	Ceres Nanotrap	0.425		CP0030	B03	JL	K-12	Sample	10/28/21	0.4	2108255	Halcyon	Thermo Magmax Microbiome Ultra Nucleic Acid Isolation Kit	0.05	B1	EP0030	B01	JL	MorgantownHS-01	BL	10/15/21 14:30	Composite	10/13/21 14:00	10/13/21 6:00			Pass	JL	10/22/21		Monongalia	Processing	Confirming
A02-0115	10993	OneStep RT-ddPCR	Human RNase P	4.281188548	4548.762832					9/24/21	Manual	DQ		QX 200	CDC nCov-2 Triplex	H3	AP0009	A03	JL	SARS-CoV-2 N1	2.14049682	0	878.4640503	2274.277871	SARS-CoV-2 N2	4.281188548	0	968.4371185	4548.762832																																				CDC N1/N2/RP Triplex	0.005	Sample		9/24/21	10		Halcyon	Ceres Nanotrap	0.425		CP0016	A03	JL	WVU Morgantown	Sample	9/24/21	0.4	XXXXXX	Halcyon	Thermo Magmax Microbiome Ultra Nucleic Acid Isolation Kit	0.05	H3	EP0016	A03	JL	Evansdale-01	EL	9/20/21 9:15	Composite	9/20/21 9:00	9/18/21 9:00							Monongalia	Processing	Complete
A02-0170	11962	OneStep RT-ddPCR	Human RNase P	94.6065712	100519.4819	None				10/20/21	Manual	DQ	58477038	QX One	CDC nCov-2 Triplex	E1	AP0014	A01	JL	SARS-CoV-2 N1	23.61600637	0	2152.007294	25092.00677	SARS-CoV-2 N2	17.70978212	0	2493.552246	18816.64351																																					0.005	Sample		10/15/21	10	NT04474	Halcyon	Ceres Nanotrap	0.425		CP0025	A01	JL	WVU Morgantown	Sample	10/15/21	0.4	2108255	Halcyon	Thermo Magmax Microbiome Ultra Nucleic Acid Isolation Kit	0.05	E1	EP0025	A01	JL	OaklandE-02	EL	10/15/21 9:34	Composite	10/15/21 9:34	10/13/21 9:34			Pass	JL	10/15/21	7.74	Monongalia	Processing	Complete
J01-0040																																																																															WWTP												AlpineLakeWWTP-01												Preston		
A01-0080	13478	OneStep RT-ddPCR	Human RNase P	17.4	18487.5					11/18/21	Manual	DQ	58477038	QX 200	CDC nCov-2 Triplex	D2	AP0020	B02	JL	SARS-CoV-2 N1	63	0	1193.4	66937.5	SARS-CoV-2 N2	61.2	0	1245	65025																																					0.005	Sample		11/11/21	10	NT04474	Kookaburra	Ceres Nanotrap	0.425		CP0034	A02	JL	WWTP	Sample	11/11/21	0.4	2108255	Kookaburra	Thermo Magmax Microbiome Ultra Nucleic Acid Isolation Kit	0.05	D2	EP0034	A02	JL	StarCityWWTP-01	GG	11/3/21 23:55	Composite	11/3/21 23:55	11/3/21 0:00			Pass	JL	11/5/21	6.76	Monongalia	Processing	Complete
A02-0284																																																																																											WVU-Morgantown												Monongalia		
E01-0007	18982	OneStep RT-ddPCR	Human RNase P	0	0	None				11/29/21	Manual	DQ	58477038	QX 200	CDC nCov-2 Triplex	NAB_15 J1	AP0022	A01	JL	SARS-CoV-2 N1	31.00953579	0	1092.976303	32947.63178	SARS-CoV-2 N2	24.80435848	0	1279.930573	26354.63089																																					0.005	Sample		2021-11-19	10	NT04474	Halcyon	Ceres Nanotrap	0.475		CP0038	A01	AJ	WWTP	Sample	2021-11-19	0.4	2108255	Halcyon	Ultra 2.0 Microbiome (Thermo)	0.075	NAB_15 J1	EP0038	A01	AJ	PrincetonWWTP-01	-	11/10/21 8:00	Composite	11/10/21 7:50	11/9/21 7:50			Pass	JL	11/12/21	6.78	Mercer	Processing	Complete
A03-0170																																																																																											MountainviewES-01												Monongalia		
A01-0134																																																																																											StarCityWWTP-01												Monongalia		
A02-0047																																																																			Sample													Sample																									Unknown
A1058	14521	OneStep RT-ddPCR		125.1		BRSV		297112.5		7/7/21	Manual	DQ			BRSV Triplex					SARS-CoV-2 N1	0			0	SARS-CoV-2 N2	0			0																																				N1/N2/BRSV Triplex	0.005	Sample			10			Ceres Nanotrap	0.95	pH - 7.03				WWTP	Sample	7/7/21	0.4			Thermo Magmax Microbiome Ultra Nucleic Acid Isolation Kit	0.05				JL	StarCityWWTP-01	EL	5/27/21 23:55	Composite	5/27/21 11:55	5/27/21 0:00	7.148		Pass	JL	5/28/21	7.03	Monongalia	Processing	Complete
A03-0063	12826	OneStep RT-ddPCR	Human RNase P	5.504170656	5848.181322	None				11/29/21	Manual	DQ	58477038	QX 200	CDC nCov-2 Triplex	C3	AP0022	E03	JL	SARS-CoV-2 N1	3.669303954	0	1092.976303	3898.635451	SARS-CoV-2 N2	5.504170656	0	1279.930573	5848.181322																																					0.005	Sample		2021-11-15	10	NT04474	Halcyon	Ceres Nanotrap	0.425		CP0035	A03	LW	K-12	Sample	2021-11-15	0.4	2108255	Halcyon	Ultra 2.0 Microbiome (Thermo)	0.05	C3	EP0035	A03	JL	SuncrestES-01	BL	11/4/21 10:35	Composite	11/3/21 14:00	11/3/21 6:00			Pass	JL	11/5/21		Monongalia	Processing	Complete
A0020	12727	OneStep RT-ddPCR	Human RNase P		35942.4					11/20/20	Manual	DQ			CDC nCov-2 Triplex					SARS-CoV-2 N1				3996	SARS-CoV-2 N2				0																																				CDC N1/N2/RP Triplex	0.005	Sample		11/19/20	100			PEG Precipitation	3.6				MS	WWTP	Sample	11/20/20	0.2			Qiagen QiaAMP Viral Mini-RNA Kit	0.06				MS	StarCityWWTP-01	GG	11/17/20 0:00	Composite	11/17/20 23:59	11/17/20 0:00	6.708		Pass	TD	11/19/20		Monongalia	Processing	Complete
A02-0253																																																																															WWTP												WVU-Morgantown	-	12/01/2021 09:45 AM	Composite	12/01/2021 09:00 AM	11/29/2021 09:00 AM			Pass	AJ	12/02/2021	7.98	Monongalia		
H01-0033	15719	OneStep RT-ddPCR	Human RNase P	6	6375					11/18/21	Manual	DQ	58477038	QX 200	CDC nCov-2 Triplex	G5	AP0020	D05	JL	SARS-CoV-2 N1	28.4	0	1193.4	30175	SARS-CoV-2 N2	33	0	1245	35062.5																																					0.005	Sample		11/12/21	10	NT04474	Kookaburra	Ceres Nanotrap	0.425		CP0035	B01	AJ	WWTP	Sample	11/12/21	0.4	2108255	Kookaburra	Thermo Magmax Microbiome Ultra Nucleic Acid Isolation Kit	0.05	G5	EP0035	A05	AJ	MoundsvilleWWTP-01	DRC	11/9/21 8:15	Composite	11/9/21 8:00	11/8/21 8:00			Pass	AJ	11/11/21	6.85	Marshall	Processing	Complete
A1104	15713	OneStep RT-ddPCR				BRSV	1146.057205	1217685.781		8/13/21	Manual	DQ		QX 200	BRSV Triplex		AP000000	A01	JL	SARS-CoV-2 N1	19.47489023	0	2236.361694	20692.07087	SARS-CoV-2 N2	22.47245789	0	2276.707153	23876.9865																																				N1/N2/BRSV Triplex	0.005	Sample		8/13/21	10	NT04155	Kookaburra	Ceres Nanotrap	0.425		CP000000	A01	JL		Sample	8/13/21	0.4	2102028	Kookaburra	Thermo Magmax Microbiome Ultra Nucleic Acid Isolation Kit	0.05		EP000000	A01	JL									Fail					Rejected	Rejected
A1025	14133	OneStep RT-ddPCR	Human RNase P		24990					4/12/21	Manual	DQ		QX 200	CDC nCov-2 Triplex					SARS-CoV-2 N1				59970	SARS-CoV-2 N2				34980																																				CDC N1/N2/RP Triplex	0.005	Sample		4/9/21	100			PEG Precipitation	5				MVS	WWTP	Sample	4/12/21	0.2			Qiagen QiaAMP Viral Mini-RNA Kit	0.06				MVS	StarCityWWTP-01	GG	4/8/21 11:55	Composite	4/8/21 11:55	4/8/21 12:00	8.828		Pass	Josh Lambert	4/9/21		Monongalia	Processing	Complete
A03-0116	15568	OneStep RT-ddPCR	Human RNase P	9.07012283802032	16156.1563052237	None				2021-12-03	Manual	DQ	58477038	QX 200	CDC nCov-2 Triplex	E6	AP0023	E06	JL	SARS-CoV-2 N1	3.02298605442048	0	1030.21682739258	5384.69390943648	SARS-CoV-2 N2	3.02298605442048	0	1109.43168640137	5384.69390943648																																					0.005			2021-12-02	10	NT04474	Kookaburra	Ceres Nanotrap	0.475		CP0042	A06	LW			2021-12-02	0.4	2108255	Kookaburra	Thermo Magmax Microbiome Ultra Nucleic Acid Isolation Kit	0.075	E6	EP0042	A06	LW														Processing	Complete
A1096	12523	OneStep RT-ddPCR		60.2		BRSV		142975		7/30/21	Manual	DQ			BRSV Triplex					SARS-CoV-2 N1	0			0	SARS-CoV-2 N2	0			0																																				N1/N2/BRSV Triplex	0.005	Sample		7/30/21	10			Ceres Nanotrap	0.95					WWTP	Sample	7/30/21	0.4			Thermo Magmax Microbiome Ultra Nucleic Acid Isolation Kit	0.05				JL	StarCityWWTP-01	EL	7/20/21 23:55	Composite	7/20/21 23:55	7/20/21 0:00	7.254		Pass	JL	7/30/21		Monongalia	Processing	Complete
G01-0052	12136	OneStep RT-ddPCR	Human RNase P	5.817152262	6180.724278	None				10/20/21	Manual	DQ	58477038	QX One	CDC nCov-2 Triplex	E6	AP0014	F01	JL	SARS-CoV-2 N1	77.68053055	0	2152.007294	82535.56371	SARS-CoV-2 N2	52.40621567	0	2493.552246	55681.60415																																					0.005	Sample		10/15/21	10	NT04474	Halcyon	Ceres Nanotrap	0.425		CP0025	A06	JL	WWTP	Sample	10/15/21	0.4	2108255	Halcyon	Thermo Magmax Microbiome Ultra Nucleic Acid Isolation Kit	0.05	E6	EP0025	A06	JL	KeyserWWTP-01	TD	10/13/21 8:00	Composite	10/13/21 8:00	10/12/21 9:00			Pass	JL	10/15/21	7.2	Mineral	Processing	Complete
A02-0195	11815	OneStep RT-ddPCR	Human RNase P	45.84882736	48714.37907	None				11/4/21	Manual	DQ	58477038	QX 200	CDC nCov-2 Triplex	F8	AP0016	A08	JL	SARS-CoV-2 N1	7.967293859	0	1040.980072	8465.249725	SARS-CoV-2 N2	7.967293859	0	1205.935364	8465.249725																																					0.005	Sample		11/2/21	10	NT04474	Kookaburra	Ceres Nanotrap	0.425		CP0031	D02	JL	WVU Morgantown	Sample	11/2/21	0.4	21108255	Kookaburra	Thermo Magmax Microbiome Ultra Nucleic Acid Isolation Kit	0.05	F8	EP0031	A08	JL	OaklandE-02	CA	10/29/21 11:38	Composite	10/29/21 11:38	10/27/21 11:38			Pass	JL	10/29/21	7.06	Monongalia	Processing	Complete
C01-0008	11981	OneStep RT-ddPCR	Human RNase P	1.963975728	2086.724211					9/29/21	Manual	DQ	58477037	QX 200	CDC nCov-2 Triplex	A8	AP0010	C08	JL	SARS-CoV-2 N1	9.821518064	0	1097.667847	10435.36294	SARS-CoV-2 N2	17.68168569	0	1200.682373	18786.79104																																				CDC N1/N2/RP Triplex	0.005	Sample	FLOW 8.449	9/27/21	10	NT04474	Halcyon	Ceres Nanotrap	0.425		CP0017	D06	JL	WWTP	Sample	9/27/21	0.4	2105049	Halcyon	Thermo Magmax Microbiome Ultra Nucleic Acid Isolation Kit	0.05	A8	EP0017	B12	JL	WheelingWWTP-01	MVC	9/23/21 7:00	Composite	9/23/21 7:00	9/22/21 7:00	8.449		Pass	JL	9/24/21	6.44	Ohio	Processing	Complete
A02-0282																																																																																											WVU-Morgantown												Monongalia		
H01-0093																																																																															WWTP												MoundsvilleWWTP-01												Marshall		
A01-0041	13981	OneStep RT-ddPCR	Human RNase P	21.88860893	23256.64699					9/29/21	Manual	DQ	58477037	QX 200	CDC nCov-2 Triplex	K2	AP0010	A02	JL	SARS-CoV-2 N1	104.5753288	0	1097.667847	111111.2869	SARS-CoV-2 N2	55.60320377	0	1200.682373	59078.40401																																				CDC N1/N2/RP Triplex	0.005	Sample		9/27/21	10	NT04474	Halcyon	Ceres Nanotrap	0.425		CP0017	A02	JL	WWTP	Sample	9/27/21	0.4	2105049	Halcyon	Thermo Magmax Microbiome Ultra Nucleic Acid Isolation Kit	0.05	K2	EP0017	A02	JL	StarCityWWTP-01	GG	9/18/21 23:55	Composite	9/18/21 23:55	9/18/21 0:00	7.348		Pass	JL	9/24/21	6.54	Monongalia	Processing	Complete
A03-0023	10042	OneStep RT-ddPCR	Human RNase P	2.343216836	2489.667889	None				10/20/21	Manual	DQ	58477038	QX One	CDC nCov-2 Triplex	H5	AP0014	E04	JL	SARS-CoV-2 N1	0	0	2152.007294	0	SARS-CoV-2 N2	0	0	2493.552246	0																																					0.005	Sample		10/18/21	10	NT04474	Halcyon	Ceres Nanotrap	0.425		CP0026	B01	JL	K-12	Sample	10/18/21	0.4	2108255	Halcyon	Thermo Magmax Microbiome Ultra Nucleic Acid Isolation Kit	0.05	H5	EP0026	A05	JL	SuncrestES-01	BL	10/14/21 11:15	Composite	10/11/21 14:00	10/11/21 6:00			Pass	JL	10/18/21		Monongalia	Processing	Complete
A02-0019	17835	OneStep RT-ddPCR	Human RNase P	36.96895123	39279.51068					8/18/21	Manual	DQ	58477036	QX 200	CDC nCov-2 Triplex	G4	AP000000	A04	JL	SARS-CoV-2 N1	30.36309004	0	1685.59967	32260.78367	SARS-CoV-2 N2	39.61181402	1.36802882	1874.414978	42087.55088																																				CDC N1/N2/RP Triplex	0.005	Sample		8/18/21	10	NT04155	Kookaburra	Ceres Nanotrap	0.425		CP000000	A04	JL	WVU Morgantown	Sample	8/18/21	0.4	2102028	Kookaburra	Thermo Magmax Microbiome Ultra Nucleic Acid Isolation Kit	0.05		EP000000	A04	JL	CollegePark-02	EL	8/18/21 10:24	Composite	8/18/21 10:24	8/16/21 10:33			Pass	JL	8/18/21	7.04	Monongalia	Processing	Complete
G01-0066	3694	OneStep RT-ddPCR	Human RNase P	6.370491982	6768.64773	None				11/8/21	Manual	DQ	58477038	QX 200	CDC nCov-2 Triplex	A1	AP0017	A01	AJ	SARS-CoV-2 N1	12.74270892	0	560.2787018	13539.12823	SARS-CoV-2 N2	12.74270892	0	653.7683868	13539.12823																																					0.005	Sample		11/5/21	10	NT04474	Kookaburra	Ceres Nanotrap	0.425		CP00033	A01	JL	WWTP	Sample	11/5/21	0.4	21108255	Kookaburra	Thermo Magmax Microbiome Ultra Nucleic Acid Isolation Kit	0.05	A1	EP0033	A01	JL	KeyserWWTP-01	-	11/2/21 12:45	Composite	11/2/21 12:00	11/1/21 12:00			Pass	JL	11/5/21	6.55	Mineral	Processing	Complete
A02-0065	18409	OneStep RT-ddPCR	Human RNase P	10.22740006	10866.61257					9/9/21	Manual	DQ	58477037	QX 200	CDC nCov-2 Triplex	G5	AP0007	C02	JL	SARS-CoV-2 N1	8.948732018	0	1303.838043	9508.02777	SARS-CoV-2 N2	10.22740006	0	1366.207123	10866.61257																																				CDC N1/N2/RP Triplex	0.005	Sample		9/2/21	10	 NT04155	Kookaburra	Ceres Nanotrap	0.425		CP0007	C01	JL	WVU Morgantown	Sample	9/2/21	0.4	2102028	Halcyon	Thermo Magmax Microbiome Ultra Nucleic Acid Isolation Kit	0.05	G5	EP0007	B01	JL	Evansdale-01	EL	9/1/21 9:08	Composite	9/1/21 9:08	8/30/21 9:08			Pass	JL	9/1/21	6.8	Monongalia	Processing	Complete
A02-0151	18412	OneStep RT-ddPCR				BRSV	493.307991	524139.7405		8/13/21	Manual	DQ		QX 200	BRSV Triplex		AP000000	A05	JL	SARS-CoV-2 N1	0	0	2236.361694	0	SARS-CoV-2 N2	1.277973652	0	2276.707153	1357.84701																																				CDC N1/N2/RP Triplex	0.005	Sample	Was A04-0009	8/13/21	10	NT04155	Kookaburra	Ceres Nanotrap	0.425		CP000000	A05	JL	WVU Morgantown	Sample	8/13/21	0.4	2102028	Kookaburra	Thermo Magmax Microbiome Ultra Nucleic Acid Isolation Kit	0.05		EP000000	A05	JL	NorthHighSt-02 (MUB)	EL	8/10/21 10:00	Composite	8/10/21 9:00	8/9/21 9:00			Pass	JL	8/10/21	7.29	Monongalia	Processing	Complete
A03-0120																																																																															K-12												MorgantownHS-01	GZ	12/03/2021 01:25 PM	Composite	12/03/2021 02:00 PM	12/03/2021 06:00 AM							Monongalia		
A02-0021	15351	OneStep RT-ddPCR	Human RNase P	113.2616615	120340.5154					8/20/21	CHECK	DQ	58477036	QX One	CDC nCov-2 Triplex	H1	AP0004	C03	JL	SARS-CoV-2 N1	12.33608007	-20	2835.271912	13107.08508	SARS-CoV-2 N2	34.96476173	-20	3151.898499	37150.05934																																				CDC N1/N2/RP Triplex	0.005	Sample		8/20/21	10	NT04155	Kookaburra	Ceres Nanotrap	0.425	7.74	CP000000	A01	JL	WVU Morgantown	Sample	8/20/21	0.4	2102028	Kookaburra	Thermo Magmax Microbiome Ultra Nucleic Acid Isolation Kit	0.05	H1	EP000000	A01	JL	OaklandE-02	EL	8/20/21 9:30	Composite	8/20/21 9:30	8/18/21 9:30			Pass	Jl	8/20/21	7.74	Monongalia	Processing	Complete
K01-0016																																																																																											ParkersburgWWTP-01												Wood		
A02-0306																																																																																											WVU-Morgantown												Monongalia		
A01-0120																																																																																											StarCityWWTP-01												Monongalia		
A02-0210	9320	OneStep RT-ddPCR	Human RNase P	22.73251295	24153.29501	None				11/8/21	Manual	DQ	58477038	QX 200	CDC nCov-2 Triplex	C3	AP0017	C03	AJ	SARS-CoV-2 N1	68.2635355	0	560.2787018	72530.00647	SARS-CoV-2 N2	53.07673454	0	653.7683868	56394.03045																																					0.005	Sample		11/5/21	10	NT04474	Kookaburra	Ceres Nanotrap	0.425		CP00033	D01	JL	WVU Morgantown	Sample	11/5/21	0.4	21108255	Kookaburra	Thermo Magmax Microbiome Ultra Nucleic Acid Isolation Kit	0.05	C3	EP0033	C03	JL	NorthHighSt-02 (MUB)	EL	11/5/21 11:22	Composite	11/5/21 11:22	11/3/21 11:22			Pass	JL	11/5/21	7.34	Monongalia	Processing	Complete
A01-0125																																																																																											StarCityWWTP-01												Monongalia		
A02-0108	17177	OneStep RT-ddPCR	Human RNase P	61.72282219	65580.49858					9/20/21	Manual	DQ	58477037	QX 200	CDC nCov-2 Triplex	D7	AP0008	C07	JL	SARS-CoV-2 N1	231.2626839	0	1320.22522	245716.6016	SARS-CoV-2 N2	231.2626839	0	1524.019623	245716.6016																																				CDC N1/N2/RP Triplex	0.005	Sample		9/15/21	10	NT04155	Kookaburra	Ceres Nanotrap	0.425		CP0012	B01	JL	WVU Morgantown	Sample	9/15/21	0.4	2105033	Halcyon	Thermo Magmax Microbiome Ultra Nucleic Acid Isolation Kit	0.05	D7	EP0012	A07	JL	NorthHighSt-02 (MUB)	EL	9/15/21 10:01	Composite	9/15/21 10:00	9/13/21 10:00			Pass	JL	9/15/21	7.28	Monongalia	Processing	Complete
A01-0058	11474	OneStep RT-ddPCR	Human RNase P	79.13524628	84081.19917					10/11/21	Manual	DQ	58477037	QX One	CDC nCov-2 Triplex	K8	AP0012	H04	JL	SARS-CoV-2 N1	121.0015488	0	1593.187866	128564.1456	SARS-CoV-2 N2	79.13524628	0	2077.493896	84081.19917																																				CDC N1/N2/RP Triplex	0.005	Sample		10/8/21	10	NT04474	Halcyon	Ceres Nanotrap	0.425		CP0022	B02	JL	WWTP	Sample	10/8/21	0.4	2108052	Halcyon	Thermo Magmax Microbiome Ultra Nucleic Acid Isolation Kit	0.05	K8	EP0022	A08	JL	StarCityWWTP-01	GG	10/7/21 23:55	Composite	10/7/21 23:55	10/7/21 0:00	7.245		Pass	JL	10/8/21	7.22	Monongalia	Processing	Complete
A02-0345																																																																																											WVU-Morgantown												Monongalia		
A0100	11518	OneStep RT-ddPCR	Human RNase P		29424					11/10/20	Manual	DQ		QX 200	CDC nCov-2 Triplex					SARS-CoV-2 N1				9816	SARS-CoV-2 N2				9816																																				CDC N1/N2/RP Triplex	0.005	Sample		11/9/20	100			PEG Precipitation	4				MS	WWTP	Sample	11/10/20	0.2			Qiagen QiaAMP Viral Mini-RNA Kit	0.06				MS	StarCityWWTP-01	GS	11/1/20 0:00	Composite	11/1/20 23:59	11/1/20 0:00	8.210		Pass	TD	11/9/20		Monongalia	Processing	Complete
A02-0292																																																																																											WVU-Morgantown												Monongalia		
A1011	12587	OneStep RT-ddPCR	Human RNase P		50490					3/30/21	Manual	DQ		QX 200	CDC nCov-2 Triplex					SARS-CoV-2 N1				0	SARS-CoV-2 N2				0																																				CDC N1/N2/RP Triplex	0.005	Sample		3/26/21	100			PEG Precipitation	9				MVS	WWTP	Sample	3/29/21	0.2			Qiagen QiaAMP Viral Mini-RNA Kit	0.06				MVS	StarCityWWTP-01	EL	3/26/21 10:52	Composite	3/22/21 12:00	3/22/21 12:00	9.663		Pass	MVS	3/26/21		Monongalia	Processing	Complete
K01-0049																																																																																											ParkersburgWWTP-01												Wood		
A02-0036	12144	OneStep RT-ddPCR	Human RNase P	168.1528473	178662.4002					8/25/21	CHECK	DQ	58477036	QX One	CDC nCov-2 Triplex	L2	AP0004	B02	JL	SARS-CoV-2 N1	1507.147675	-20	2835.271912	1601344.404	SARS-CoV-2 N2	1487.832184	-20	3151.898499	1580821.695																																				CDC N1/N2/RP Triplex	0.005	Sample		8/25/21	10	NT04155	Kookaburra	Ceres Nanotrap	0.425		CP0004	A02	JL	WVU Morgantown	Sample	8/25/21	0.4	2102028	Kookaburra	Thermo Magmax Microbiome Ultra Nucleic Acid Isolation Kit	0.05	L2	EP0004	A02	JL	Evansdale-01	EL	8/25/21 9:13	Grab	8/25/21 9:13	8/25/21 9:13			Pass	JL	8/25/21	7.79	Monongalia	Processing	Complete
H01-0056																																																																															WWTP												MoundsvilleWWTP-01												Marshall		
H01-0089																																																																															WWTP												MoundsvilleWWTP-01												Marshall		
A03-0142																																																																																											MountainviewES-01												Monongalia		
G01-0062	12263	OneStep RT-ddPCR	Human RNase P	5.756900907	6116.707213	None				11/4/21	Manual	DQ	58477038	QX 200	CDC nCov-2 Triplex	I4	AP0016	D04	JL	SARS-CoV-2 N1	44.17227745	0	1040.980072	46933.04479	SARS-CoV-2 N2	23.03605795	0	1205.935364	24475.81157																																					0.005	Sample		11/3/21	10	NT04474	Halcyon	Ceres Nanotrap	0.425		CP0032	A04	JL	WWTP	Sample	11/3/21	0.4	21108255	Kookaburra	Thermo Magmax Microbiome Ultra Nucleic Acid Isolation Kit	0.05	I4	EP0032	A04	JL	KeyserWWTP-01	-	10/27/21 8:05	Composite	10/27/21 8:00	10/26/21 9:00			Pass	JL	11/2/21	6.87	Mineral	Processing	Complete
A0029	10527	OneStep RT-ddPCR	Human RNase P		24138					12/14/20	Manual	DQ			CDC nCov-2 Triplex					SARS-CoV-2 N1				28170	SARS-CoV-2 N2				32202																																				CDC N1/N2/RP Triplex	0.005	Sample		12/4/20	100			PEG Precipitation	3				MS	WWTP	Sample	12/7/20	0.2			Qiagen QiaAMP Viral Mini-RNA Kit	0.06				MS	StarCityWWTP-01	GG	11/29/20 0:00	Composite	11/29/20 23:59	11/29/20 0:00	6.738		Pass	TD	12/4/20		Monongalia	Processing	Complete
A01-0131																																																																																											StarCityWWTP-01												Monongalia		
A02-0152	17870	OneStep RT-ddPCR				BRSV	410.4187012	436069.87		8/13/21	Manual	DQ		QX 200	BRSV Triplex		AP000000	A06	JL	SARS-CoV-2 N1	0	0	2236.361694	0	SARS-CoV-2 N2	0	0	2276.707153	0																																				CDC N1/N2/RP Triplex	0.005	Sample	Was A05-0004	8/13/21	10	NT04155	Kookaburra	Ceres Nanotrap	0.425		CP000000	A06	JL	WVU Morgantown	Sample	8/13/21	0.4	2102028	Kookaburra	Thermo Magmax Microbiome Ultra Nucleic Acid Isolation Kit	0.05		EP000000	A06	JL	Evansdale-01	EL	8/11/21 9:07	Composite	8/11/21 9:00	8/10/21 9:00			Pass	JL	8/11/21	7.19	Monongalia	Processing	Complete
B01-0008	9608	OneStep RT-ddPCR	Human RNase P	10.93217254	11615.43332					10/5/21	Manual	DQ	58477037	QX One	CDC nCov-2 Triplex	C4	AP0011	D01	JL	SARS-CoV-2 N1	82.1024704	1355.395355	0	87233.8748	SARS-CoV-2 N2	13.66592646	1548.404388	0	14520.04686																																				CDC N1/N2/RP Triplex	0.005	Sample		10/1/21	10	NT04474	Halcyon	Ceres Nanotrap	0.425	C4	CP0019	A04	JL	WWTP	Sample	10/1/21	0.4	2108052	Halcyon	Thermo Magmax Microbiome Ultra Nucleic Acid Isolation Kit	0.05	C4	EP0019	A04	JL	CharlestonWWTP-01	KM	9/29/21 8:00	Composite	9/28/21 7:00	9/28/21 7:00			Pass	JL	9/30/21		Kanawha	Processing	Complete
A01-0048	11184	OneStep RT-ddPCR	Human RNase P	12.38888741	13163.19287					10/5/21	Manual	DQ	58477037	QX One	CDC nCov-2 Triplex	C5	AP0011	E01	JL	SARS-CoV-2 N1	274.1031837	1355.395355	0	291234.6327	SARS-CoV-2 N2	136.6448021	1548.404388	0	145185.1022																																				CDC N1/N2/RP Triplex	0.005	Sample		10/1/21	10	NT04474	Halcyon	Ceres Nanotrap	0.425	C5	CP0019	A05	JL	WWTP	Sample	10/1/21	0.4	2108052	Halcyon	Thermo Magmax Microbiome Ultra Nucleic Acid Isolation Kit	0.05	C5	EP0019	A05	JL	StarCityWWTP-01	JF	9/27/21 12:15	Composite	9/25/21 23:55	9/25/21 0:00	6.684		Pass	jl	10/1/21		Monongalia	Processing	Complete
C01-0031	17535	OneStep RT-ddPCR	Human RNase P	2.683861256	2851.602584	None				11/8/21	Manual	DQ	58477038	QX 200	CDC nCov-2 Triplex	C6	AP0017	C06	AJ	SARS-CoV-2 N1	5.368028879	0	560.2787018	5703.530684	SARS-CoV-2 N2	12.07978845	0	653.7683868	12834.77522																																					0.005	Sample		11/5/21	10	NT04474	Kookaburra	Ceres Nanotrap	0.425		CP00033	D04	JL	WWTP	Sample	11/5/21	0.4	21108255	Kookaburra	Thermo Magmax Microbiome Ultra Nucleic Acid Isolation Kit	0.05	C6	EP0033	C06	JL	WheelingWWTP-01	GZ	11/2/21 7:00	Composite	11/2/21 7:00	11/1/21 7:00			Pass	JL	11/5/21	6.12	Ohio	Processing	Complete
A02-0353																																																																																											WVU-Morgantown												Monongalia		
A01-0076	16995	OneStep RT-ddPCR	Human RNase P	47.11981773	50064.80634	None				11/4/21	Manual	DQ	58477038	QX 200	CDC nCov-2 Triplex	I1	AP0016	D01	JL	SARS-CoV-2 N1	105.4572296	0	1040.980072	112048.3065	SARS-CoV-2 N2	99.89504814	0	1205.935364	106138.4887																																					0.005	Sample		11/3/21	10	NT04474	Halcyon	Ceres Nanotrap	0.425		CP0032	A01	JL	WWTP	Sample	11/3/21	0.4	21108255	Kookaburra	Thermo Magmax Microbiome Ultra Nucleic Acid Isolation Kit	0.05	I1	EP0032	A01	JL	StarCityWWTP-01	GG	10/30/21 23:55	Composite	10/30/21 23:55	10/30/21 0:00	11.237 		Pass	JL	11/3/21	6.64	Monongalia	Processing	Complete
A02-0146																																																																			Sample													Sample																									Unknown
A01-0089	12894	OneStep RT-ddPCR	Human RNase P	5.475139618	5817.335844	None				11/22/21	Manual	DQ	58477038	QX 200	CDC nCov-2 Triplex	K3	AP0021	C03	JL	SARS-CoV-2 N1	36.52501583	1109.141006	0	38807.82932	SARS-CoV-2 N2	9.125940204	1229.36615	0	9696.311466																																					0.005	Sample	NO FLOW	11/17/21	10	NT04474	Halcyon	Ceres Nanotrap	0.425		CP0037	A03	JL	WWTP	Sample	11/17/21	0.4	2108255	Halcyon	Thermo Magmax Microbiome Ultra Nucleic Acid Isolation Kit	0.05	K3	EP0037	A03	JL	StarCityWWTP-01	GG	11/14/21 23:55	Composite	11/14/21 23:55	11/14/21 0:00			Pass	JL	11/16/21	7.11	Monongalia	Processing	Complete
A1003	10420	OneStep RT-ddPCR	Human RNase P		54210					3/16/21	Manual	DQ		QX 200	CDC nCov-2 Triplex					SARS-CoV-2 N1				20340	SARS-CoV-2 N2				13560																																				CDC N1/N2/RP Triplex	0.005	Sample		3/12/21	100			PEG Precipitation	5				AHT	WWTP	Sample	3/15/21	0.2			Qiagen QiaAMP Viral Mini-RNA Kit	0.06				AHT	StarCityWWTP-01	EL	3/10/21 12:00	Composite	3/10/21 12:00	3/10/21 12:00	7.987		Pass	MVS	3/12/21		Monongalia	Processing	Complete
A02-0051	11454	OneStep RT-ddPCR	Human RNase P	30.51781416	32425.17754					9/2/21	Manual	DQ		QX One	BRSV Triplex	F8	AP000000	H01	JL	SARS-CoV-2 N1	49.61313248	0	3138.026123	52713.95326	SARS-CoV-2 N2	61.07834816	0	3336.080627	64895.74492																																				CDC N1/N2/RP Triplex	0.005	Sample		9/2/21	10	 NT04155	Kookaburra	Ceres Nanotrap	0.425		CP0007	B02	JL	WVU Morgantown	Sample	9/2/21	0.4	2102028	Halcyon	Thermo Magmax Microbiome Ultra Nucleic Acid Isolation Kit	0.05	F8	EP0007	A08	JL	Evansdale-01	EL	8/27/21 9:32	Composite	8/27/21 9:33	8/25/21 9:32			Pass	JL	8/27/21	7.61	Monongalia	Processing	Complete
A03-0140																																																																																											MorgantownHS-01												Monongalia		
A02-0117	2354	OneStep RT-ddPCR	Human RNase P	0	0					9/24/21	Manual	DQ		QX 200	CDC nCov-2 Triplex	H5	AP0009	A05	JL	SARS-CoV-2 N1	0	0	878.4640503	0	SARS-CoV-2 N2	0	0	968.4371185	0																																				CDC N1/N2/RP Triplex	0.005	Sample		9/24/21	10		Halcyon	Ceres Nanotrap	0.425		CP0016	A05	JL	WVU Morgantown	Sample	9/24/21	0.4	XXXXXX	Halcyon	Thermo Magmax Microbiome Ultra Nucleic Acid Isolation Kit	0.05	H5	EP0016	A05	JL	NorthHighSt-02 (MUB)	EL	9/20/21 9:54	Composite	9/20/21 9:00	9/18/21 9:00							Monongalia	Processing	Complete
A03-0048		OneStep RT-ddPCR	Human RNase P			None				11/1/21	CHECK	ABS	58477038	QX 200	CDC nCov-2 Triplex	A3	AP0015	E03	JL	SARS-CoV-2 N1					SARS-CoV-2 N2																																									0.005	Sample		10/28/21	10	NT04474	Halcyon	Ceres Nanotrap	0.425		CP0030	A03	JL	K-12	Sample	10/28/21	0.4	2108255	Halcyon	Thermo Magmax Microbiome Ultra Nucleic Acid Isolation Kit	0.05	A3	EP0030	A03	JL	NorthES-01	BL	10/24/21 12:25	Composite	10/22/21 14:00	10/22/21 6:00			Pass	JL	10/27/21		Monongalia	Processing	Processing
A02-0150	13695	OneStep RT-ddPCR	Human RNase P	21.59847021	22948.3746					10/11/21	Manual	DQ	58477037	QX One	CDC nCov-2 Triplex	K4	AP0012	D04	JL	SARS-CoV-2 N1	15.11727214	0	1593.187866	16062.10165	SARS-CoV-2 N2	15.11727214	0	2077.493896	16062.10165																																				CDC N1/N2/RP Triplex	0.005	Sample		10/8/21	10	NT04474	Halcyon	Ceres Nanotrap	0.425		CP0022	A04	JL	WVU Morgantown	Sample	10/8/21	0.4	2108052	Halcyon	Thermo Magmax Microbiome Ultra Nucleic Acid Isolation Kit	0.05	K4	EP0022	A04	JL	NorthHighSt-02 (MUB)	EL	10/8/21 9:48	Composite	10/8/21 9:48	10/6/21 9:48			Pass	JL	10/8/21	7.35	Monongalia	Processing	Complete
A03-0180																																																																																											MorgantownHS-01												Monongalia		
A03-0183																																																																																											SuncrestES-01												Monongalia		
A02-0205	12362	OneStep RT-ddPCR	Human RNase P	293.0321503	311346.6597	None				11/4/21	Manual	DQ	58477038	QX 200	CDC nCov-2 Triplex	K3	AP0016	F03	JL	SARS-CoV-2 N1	70.53014755	0	1040.980072	74938.28177	SARS-CoV-2 N2	55.26246071	0	1205.935364	58716.3645																																					0.005	Sample		11/3/21	10	NT04474	Halcyon	Ceres Nanotrap	0.425		CP0032	D01	JL	WVU Morgantown	Sample	11/3/21	0.4	21108255	Kookaburra	Thermo Magmax Microbiome Ultra Nucleic Acid Isolation Kit	0.05	K3	EP0032	B07	JL	OaklandE-02	CA	11/3/21 10:38	Composite	11/3/21 10:38	11/1/21 10:38			Pass	JL	11/3/21	7.08	Monongalia	Processing	Complete
H01-0018	14528	OneStep RT-ddPCR	Human RNase P	4.8	5100	None				11/17/21	Manual	DQ	58477038	QX 200	CDC nCov-2 Triplex	C3	AP0019	A02	JL	SARS-CoV-2 N1	9.8	0	1166.6	10412.5	SARS-CoV-2 N2	11.4	0	1342.8	12112.5																																					0.005	Sample		10/25/21	10	NT04474	Halcyon	Ceres Nanotrap	0.425		CP0028	D01	JL	WWTP	Sample	10/25/21	0.4	2108255	Halcyon	Thermo Magmax Microbiome Ultra Nucleic Acid Isolation Kit	0.05	C3	EP0028	C03	JL	MoundsvilleWWTP-01	DRC	10/16/21 8:15	Composite	10/16/21 8:00	10/15/21 8:00			Pass	JL	10/25/21	7.08	Marshall	Processing	Complete
E02-0006	16131	OneStep RT-ddPCR	Human RNase P	4.376343787	4649.865273	None				11/29/21	Manual	DQ	58477038	QX 200	CDC nCov-2 Triplex	C6	AP0022	G02	JL	SARS-CoV-2 N1	23.34991217	0	1092.976303	24809.28168	SARS-CoV-2 N2	11.6720593	0	1279.930573	12401.563																																					0.005	Sample		11/17/21	10	NT04474	Halcyon	Ceres Nanotrap	0.425		CP0037	B02	JL	WWTP	Sample	11/17/21	0.4	2108255	Halcyon	Thermo Magmax Microbiome Ultra Nucleic Acid Isolation Kit	0.05	K6	EP0037	A06	JL	AthensWWTP-01	-	11/10/21 8:00	Composite	11/10/21 8:00	11/9/21 8:00			Pass	JL	11/16/21	6.87	Mercer	Processing	Complete
J01-0031																																																																															WWTP												AlpineLakeWWTP-01												Preston		
A01-0007	18545	OneStep RT-ddPCR	Human RNase P	43.17790508	45876.52415					8/18/21	Manual	DQ	58477036	QX 200	CDC nCov-2 Triplex	G7	AP000000	A07	JL	SARS-CoV-2 N1	30.47029495	0	1685.59967	32374.68839	SARS-CoV-2 N2	13.96065354	1.36802882	1874.414978	14833.19414																																				CDC N1/N2/RP Triplex	0.005	Sample		8/18/21	10	NT04155	Kookaburra	Ceres Nanotrap	0.425		CP000000	B01	JL	WWTP	Sample	8/18/21	0.4	2102028	Kookaburra	Thermo Magmax Microbiome Ultra Nucleic Acid Isolation Kit	0.05		EP000000	A07	JL	StarCityWWTP-01	GG	8/16/21 23:55	Composite	8/16/21 23:55	8/16/21 0:00	10.086		Pass	JL	8/18/21	6.86	Monongalia	Processing	Complete
A02-0359																																																																																											WVU-Morgantown												Monongalia		
A02-0247																																																																															WVU Morgantown												NorthHighSt-02 (MUB)	GZ	12/06/2021 09:48 AM	Composite	12/06/2021 09:00 AM	12/04/2021 09:00 AM			Pass	AJ	12/06/2021	8.01	Monongalia		
A0221	13910	OneStep RT-ddPCR	Human RNase P		6084					2/22/21	Manual	DQ			CDC nCov-2 Triplex					SARS-CoV-2 N1				88398	SARS-CoV-2 N2				82296																																				CDC N1/N2/RP Triplex	0.005	Sample		2/5/21	100			PEG Precipitation	3				MS	WWTP	Sample	2/19/21	0.2			Qiagen QiaAMP Viral Mini-RNA Kit	0.06				MS	StarCityWWTP-01	GS	1/17/21 0:00	Composite	1/17/21 23:59	1/17/21 0:00	7.146		Pass	TD	1/22/21		Monongalia	Processing	Complete
J01-0026																																																																															WWTP												AlpineLakeWWTP-01												Preston		
A1006	10779	OneStep RT-ddPCR	Human RNase P		55036.8					3/22/21	Manual	DQ		QX 200	CDC nCov-2 Triplex					SARS-CoV-2 N1				0	SARS-CoV-2 N2				0																																				CDC N1/N2/RP Triplex	0.005	Sample		3/19/21	100			PEG Precipitation	4.2				TD	WWTP	Sample	3/21/21	0.2			Qiagen QiaAMP Viral Mini-RNA Kit	0.06				TD	StarCityWWTP-01	GG	3/15/21 11:59	Composite	3/15/21 11:59	3/15/21 12:01	8.658		Pass	JL	3/19/21		Monongalia	Processing	Complete
A1073	11796	OneStep RT-ddPCR		140.04		BRSV		332595		7/7/21	Manual	DQ			BRSV Triplex					SARS-CoV-2 N1	1.99			4726.25	SARS-CoV-2 N2	0			0																																				N1/N2/BRSV Triplex	0.005	Sample		7/7/21	10			Ceres Nanotrap	0.95	pH - 6.39				WWTP	Sample	7/7/21	0.4			Thermo Magmax Microbiome Ultra Nucleic Acid Isolation Kit	0.05				JL	StarCityWWTP-01	EL	6/17/21 23:55	Composite	6/17/21 23:55	6/17/21 0:00	8.192		Pass	JL	6/18/21	6.39	Monongalia	Processing	Complete
H01-0059																																																																															WWTP												MoundsvilleWWTP-01												Marshall		
L01-0008																																																																																											WestUnionWWTP-01												Doddridge		
A03-0145																																																																																											NorthES-01												Monongalia		
E01-0006	15722	OneStep RT-ddPCR	Human RNase P	11.97577953	12724.26575	None				11/22/21	Manual	DQ	58477038	QX 200	CDC nCov-2 Triplex	I8	AP0021	A08	JL	SARS-CoV-2 N1	53.9390707	1109.141006	0	57310.26262	SARS-CoV-2 N2	64.44159985	1229.36615	0	68469.19984																																					0.005	Sample		11/16/21	10	NT04474	Kookaburra	Ceres Nanotrap	0.425		CP0036	B04	AJ	WWTP	Sample	11/16/21	0.4	2108255	Kookaburra	Thermo Magmax Microbiome Ultra Nucleic Acid Isolation Kit	0.05	I8	EP0036	A08	AJ	PrincetonWWTP-01	-	11/9/21 7:50	Composite	11/9/21 7:35	11/8/21 7:35			Pass	JL	11/12/21	6.78	Mercer	Processing	Complete
A03-0097																																																																															K-12												MountainviewES-01	GZ	12/03/2021 01:09 PM	Composite	12/03/2021 02:00 PM	12/03/2021 06:00 AM							Monongalia		
A02-0274																																																																																											WVU-Morgantown												Monongalia		
B01-0005	10908	OneStep RT-ddPCR	Human RNase P	0	0					10/5/21	Manual	DQ	58477037	QX One	CDC nCov-2 Triplex	C1	AP0011	A01	JL	SARS-CoV-2 N1	0	1355.395355	0	0	SARS-CoV-2 N2	0	1548.404388	0	0																																				CDC N1/N2/RP Triplex	0.005	Sample		10/1/21	10	NT04474	Halcyon	Ceres Nanotrap	0.425	C1	CP0019	A01	JL	WWTP	Sample	10/1/21	0.4	2108052	Halcyon	Thermo Magmax Microbiome Ultra Nucleic Acid Isolation Kit	0.05	C1	EP0019	A01	JL	CharlestonWWTP-01	KM	9/24/21 7:15	Composite	9/24/21 7:00	9/23/21 7:00			Pass	JL	9/30/21		Kanawha	Processing	Complete
A02-0235	14528	OneStep RT-ddPCR	Human RNase P	3.23940426111222	5770.18884010614	None				2021-12-03	Manual	DQ	58477038	QX 200	CDC nCov-2 Triplex	F4	AP0023	B04	JL	SARS-CoV-2 N1	0	0	1030.21682739258	0	SARS-CoV-2 N2	1.61964625120163	0	1109.43168640137	2884.9948849529																																					0.005			2021-11-29	10	NT04474	Halcyon	Ceres Nanotrap	0.475		CP0040	C04	AJ	WVU Morgantown		2021-11-29	0.4	2108255	Halcyon	Thermo Magmax Microbiome Ultra Nucleic Acid Isolation Kit	0.075	F4	EP0040	B04	AJ	NorthHighSt-02 (MUB)	BL	11/29/21 10:35	Composite	11/29/21 9:00	11/27/21 9:00			Pass	JL	11/29/21	6.56	Monongalia	Processing	Complete
H01-0096																																																																															WWTP												MoundsvilleWWTP-01												Marshall		
A02-0360																																																																																											WVU-Morgantown												Monongalia		
A02-0002 100K	11472	OneStep RT-ddPCR				BRSV	0	0		8/13/21	Manual	DQ		QX 200	BRSV Triplex	100k	AP000000	B05	JL	SARS-CoV-2 N1	1951.31073	0	2236.361694	2073267.651	SARS-CoV-2 N2	1940.171509	0	2276.707153	2061432.228																																				CDC N1/N2/RP Triplex	0.005	Sample		8/13/21	10	NT04155	Kookaburra	Ceres Nanotrap	0.425	Spike with 100K HI-SARS	CP000000	C01	JL		Sample	8/13/21	0.4	2102028	Kookaburra	Thermo Magmax Microbiome Ultra Nucleic Acid Isolation Kit	0.05	Spike with 100K HI-SARS	EP000000	C01	JL														Rejected	Test
H01-0091																																																																															WWTP												MoundsvilleWWTP-01												Marshall		
A03-0060	15423	OneStep RT-ddPCR	Human RNase P	0	0	None				11/8/21	Manual	DQ	58477038	QX 200	CDC nCov-2 Triplex	B7	AP0017	B07	AJ	SARS-CoV-2 N1	1.525654793	0	560.2787018	1621.008217	SARS-CoV-2 N2	0	0	653.7683868	0																																					0.005	Sample		11/5/21	10	NT04474	Kookaburra	Ceres Nanotrap	0.425		CP00033	C03	JL	K-12	Sample	11/5/21	0.4	21108255	Kookaburra	Thermo Magmax Microbiome Ultra Nucleic Acid Isolation Kit	0.05	B7	EP0033	B07	JL	MorgantownHS-01	BL	10/29/21 12:50	Composite	10/29/21 12:50	10/29/21 6:00			Pass	JL	11/1/21	7.42	Monongalia	Processing	Complete
A02-0135	11050	OneStep RT-ddPCR	Human RNase P	115.3016376	122507.99					10/5/21	Manual	DQ	58477037	QX One	CDC nCov-2 Triplex	D2	AP0011	B02	JL	SARS-CoV-2 N1	22.13119268	1355.395355	0	23514.39223	SARS-CoV-2 N2	46.49867058	1548.404388	0	49404.83749																																				CDC N1/N2/RP Triplex	0.005	Sample		10/1/21	10	NT04474	Halcyon	Ceres Nanotrap	0.425	D2	CP0019	B04	JL	WVU Morgantown	Sample	10/1/21	0.4	2108052	Halcyon	Thermo Magmax Microbiome Ultra Nucleic Acid Isolation Kit	0.05	D2	EP0019	B02	JL	OaklandE-02	EL	10/1/21 9:44	Composite	10/1/21 9:44	9/1/21 9:44			Pass	JL	10/1/21		Monongalia	Processing	Complete
A01-0086																																																																			Sample		11/12/21	10	NT04474	Kookaburra	Ceres Nanotrap	0.425		CP0035	C01	AJ	WWTP	Sample	11/12/21	0.4	2108255	Kookaburra	Thermo Magmax Microbiome Ultra Nucleic Acid Isolation Kit	0.05	H1	EP0035	B01	AJ	StarCityWWTP-01	GG	11/10/21 23:55	Composite	11/10/21 23:55	11/10/21 0:00			Pass	JL	11/12/21	6.97	Monongalia	Processing	Processing
G01-0058	15486	OneStep RT-ddPCR	Human RNase P	13.6	14450	None				11/17/21	Manual	DQ	58477038	QX 200	CDC nCov-2 Triplex	C1	AP0019	A01	JL	SARS-CoV-2 N1	199.8	0	1166.6	212287.5	SARS-CoV-2 N2	199.8	0	1342.8	212287.5																																					0.005	Sample		10/25/21	10	NT04474	Halcyon	Ceres Nanotrap	0.425		CP0028	C05	JL	WWTP	Sample	10/25/21	0.4	2108255	Halcyon	Thermo Magmax Microbiome Ultra Nucleic Acid Isolation Kit	0.05	C1	EP0028	C01	JL	KeyserWWTP-01	--	10/19/21 8:35	Composite	10/19/21 8:00	10/18/21 9:00			Pass	JL	10/25/21	7.12	Mineral	Processing	Complete
H01-0037	16362	OneStep RT-ddPCR	Human RNase P	7.1913605928421	12809.611056	None				2021-12-03	Manual	DQ	58477038	QX 200	CDC nCov-2 Triplex	C2	AP0023	H04	JL	SARS-CoV-2 N1	2.87628054618836	0	1030.21682739258	5123.37472289802	SARS-CoV-2 N2	7.1913605928421	0	1109.43168640137	12809.611056																																					0.005	Sample		2021-11-22	10	NT04474	Halcyon	Ceres Nanotrap	0.475		CP0039	A02	AJ	WWTP	Sample	2021-11-22	0.4	2108255	Halcyon	Ultra 2.0 Microbiome (Thermo)	0.075	C2	EP0039	A02	AJ	MoundsvilleWWTP-01	-	11/13/21 8:15	Composite	11/13/21 8:00	11/12/21 8:00			Pass	AJ	11/19/21	6.88	Marshall	Processing	Confirming
A1018	12405	OneStep RT-ddPCR	Human RNase P		17070					4/12/21	Manual	DQ		QX 200	CDC nCov-2 Triplex					SARS-CoV-2 N1				11370	SARS-CoV-2 N2				17070																																				CDC N1/N2/RP Triplex	0.005	Sample		4/9/21	100			PEG Precipitation	5				MVS	WWTP	Sample	4/12/21	0.2			Qiagen QiaAMP Viral Mini-RNA Kit	0.06				MVS	StarCityWWTP-01	GG	3/30/21 11:55	Composite	3/30/21 11:55	3/30/21 12:00	10.313		Pass	Josh Lambert	4/9/21		Monongalia	Processing	Complete
H01-0005	10259	OneStep RT-ddPCR	Human RNase P	0	0	None				10/20/21	Manual	DQ	58477038	QX One	CDC nCov-2 Triplex	I3	AP0014	C05	JL	SARS-CoV-2 N1	108.0439949	0	2152.007294	114796.7446	SARS-CoV-2 N2	16.06024981	0	2493.552246	17064.01542																																				CDC N1/N2/RP Triplex	0.005	Sample		10/18/21	10	NT04474	Halcyon	Ceres Nanotrap	0.425		CP0026	C03	JL	WWTP	Sample	10/18/21	0.4	2108255	Halcyon	Thermo Magmax Microbiome Ultra Nucleic Acid Isolation Kit	0.05	I3	EP0026	B03	JL	MoundsvilleWWTP-01	DRC	10/3/21 8:15	Composite	10/3/21 8:00	10/2/21 8:00			Pass	JL	10/8/21	6.96	Marshall	Processing	Complete
A01-0084	14854	OneStep RT-ddPCR	Human RNase P	54	57375					11/18/21	Manual	DQ	58477038	QX 200	CDC nCov-2 Triplex	F1	AP0020	E01	JL	SARS-CoV-2 N1	81	0	1193.4	86062.5	SARS-CoV-2 N2	73	0	1245	77562.5																																					0.005	Sample		11/11/21	10	NT04474	Kookaburra	Ceres Nanotrap	0.425		CP0034	A06	JL	WWTP	Sample	11/11/21	0.4	2108255	Kookaburra	Thermo Magmax Microbiome Ultra Nucleic Acid Isolation Kit	0.05	F1	EP0034	C01	JL	StarCityWWTP-01	GG	11/8/21 23:55	Composite	11/8/21 23:55	11/8/21 0:00			Pass	JL	11/10/21	7.09	Monongalia	Processing	Complete
A03-0092	15676	OneStep RT-ddPCR	Human RNase P	0	0	None				2021-12-03	Manual	DQ	58477038	QX 200	CDC nCov-2 Triplex	E8	AP0023	E08	JL	SARS-CoV-2 N1	0	0	1030.21682739258	0	SARS-CoV-2 N2	0	0	1109.43168640137	0																																					0.005			2021-12-02	10	NT04474	Kookaburra	Ceres Nanotrap	0.475		CP0042	B02	LW			2021-12-02	0.4	2108255	Kookaburra	Thermo Magmax Microbiome Ultra Nucleic Acid Isolation Kit	0.075	E8	EP0042	A08	LW														Processing	Complete
A0227	17665	OneStep RT-ddPCR	Human RNase P		3192					2/22/21	Manual	DQ			CDC nCov-2 Triplex					SARS-CoV-2 N1				57576	SARS-CoV-2 N2				44784																																				CDC N1/N2/RP Triplex	0.005	Sample		2/5/21	100			PEG Precipitation	4				MS	WWTP	Sample	2/19/21	0.2			Qiagen QiaAMP Viral Mini-RNA Kit	0.06				MS	StarCityWWTP-01	GS	1/25/21 0:00	Composite	1/25/21 23:59	1/25/21 0:00	8.487		Pass	TD	1/29/21		Monongalia	Processing	Complete
A0046	18937	OneStep RT-ddPCR	Human RNase P		22410					2/22/21	Manual	DQ			CDC nCov-2 Triplex					SARS-CoV-2 N1				67140	SARS-CoV-2 N2				22410																																				CDC N1/N2/RP Triplex	0.005	Sample		1/3/21	100			PEG Precipitation	15				MS	WWTP	Sample	2/17/21	0.2			Qiagen QiaAMP Viral Mini-RNA Kit	0.06				MS	StarCityWWTP-01	GG	12/22/20 0:00	Composite	12/22/20 11:59	12/22/20 12:00	11.613 		Pass	TD	1/7/21		Monongalia	Processing	Complete
A03-0052		OneStep RT-ddPCR	Human RNase P			None				11/1/21	CHECK	ABS	58477038	QX 200	CDC nCov-2 Triplex	NAB_14 A1	AP0015	E01	JL	SARS-CoV-2 N1					SARS-CoV-2 N2																																									0.005	Sample		10/28/21	10	NT04474	Halcyon	Ceres Nanotrap	0.425		CP0030	A01	JL	K-12	Sample	10/28/21	0.4	2108255	Halcyon	Thermo Magmax Microbiome Ultra Nucleic Acid Isolation Kit	0.05	A1	EP0030	A01	JL	MorgantownHS-01	BL	10/26/21 9:45	Composite	10/25/21 14:00	10/25/21 6:00			Pass	JL	10/27/21		Monongalia	Processing	Processing
A0228	11614	OneStep RT-ddPCR	Human RNase P		30390					3/22/21	Manual	DQ			CDC nCov-2 Triplex					SARS-CoV-2 N1				1872270	SARS-CoV-2 N2				1312800																																				CDC N1/N2/RP Triplex	0.005	Sample		2/5/21	100			PEG Precipitation	5				MS	WWTP	Sample	2/19/21	0.2			Qiagen QiaAMP Viral Mini-RNA Kit	0.06				MS	StarCityWWTP-01	GS	1/26/21 0:00	Composite	1/26/21 23:59	1/26/21 0:00	10.032		Pass	TD	1/29/21		Monongalia	Processing	Complete
A1016	13088	OneStep RT-ddPCR	Human RNase P		5400					4/12/21	Manual	DQ		QX 200	CDC nCov-2 Triplex					SARS-CoV-2 N1				10800	SARS-CoV-2 N2				16170																																				CDC N1/N2/RP Triplex	0.005	Sample		4/9/21	100			PEG Precipitation	5				MVS	WWTP	Sample	4/12/21	0.2			Qiagen QiaAMP Viral Mini-RNA Kit	0.06				MVS	StarCityWWTP-01	GG	3/28/21 11:55	Composite	3/28/21 11:55	3/28/21 12:00	10.979		Pass	Josh Lambert	4/9/21		Monongalia	Processing	Complete
A01-0003	19784	OneStep RT-ddPCR	Human RNase P	32.13344097	34141.78103					8/16/21	Manual	DQ	58477036	QX 200	CDC nCov-2 Triplex		AP000000	A02	JL	SARS-CoV-2 N1	23.7983346	0	1714.019012	25285.73	SARS-CoV-2 N2	30.94253302	0	1783.141785	32876.44184																																				CDC N1/N2/RP Triplex	0.005	Sample		8/16/21	10	NT04155	Halcyon	Ceres Nanotrap	0.425		CP000000	A02	JL	WWTP	Sample	8/16/21	0.4	2102028	Halcyon	Thermo Magmax Microbiome Ultra Nucleic Acid Isolation Kit	0.05		EP000000	A02	JL	StarCityWWTP-01	GG	8/11/21 23:55	Composite	8/11/21 23:55	8/11/21 0:00	10.042		Pass	Josh Lambert	8/13/21	6.87	Monongalia	Processing	Complete
L01-0036																																																																																											WestUnionWWTP-01												Doddridge		
C01-0035	17206	OneStep RT-ddPCR	Human RNase P	1.367551684	1453.023665	None				11/22/21	Manual	DQ	58477038	QX 200	CDC nCov-2 Triplex	I3	AP0021	A03	JL	SARS-CoV-2 N1	10.9426403	1109.141006	0	11626.55532	SARS-CoV-2 N2	6.838553548	1229.36615	0	7265.963145																																					0.005	Sample		11/16/21	10	NT04474	Kookaburra	Ceres Nanotrap	0.425		CP0036	A03	AJ	WWTP	Sample	11/16/21	0.4	2108255	Kookaburra	Thermo Magmax Microbiome Ultra Nucleic Acid Isolation Kit	0.05	I3	EP0036	A03	AJ	WheelingWWTP-01	GZ	11/9/21 7:00	Composite	11/9/21 7:00	11/8/21 7:00			Pass	JL	11/12/21	5.82	Ohio	Processing	Complete
A03-0189																																																																																											NorthES-01												Monongalia		
K01-0045																																																																																											ParkersburgWWTP-01												Wood		
H01-0062																																																																															WWTP												MoundsvilleWWTP-01												Marshall		
E01-0005	9718	OneStep RT-ddPCR	Human RNase P	21.80107355	23163.64065	None				11/8/21	Manual	DQ	58477038	QX 200	CDC nCov-2 Triplex	A6	AP0017	A06	AJ	SARS-CoV-2 N1	33.92151356	0	560.2787018	36041.60815	SARS-CoV-2 N2	41.19677544	0	653.7683868	43771.5739																																					0.005	Sample		11/5/21	10	NT04474	Kookaburra	Ceres Nanotrap	0.425		CP00033	A06	JL	WWTP	Sample	11/5/21	0.4	21108255	Kookaburra	Thermo Magmax Microbiome Ultra Nucleic Acid Isolation Kit	0.05	A6	EP0033	A06	JL	PrincetonWWTP-01	TT	11/4/21 8:00	Composite	11/4/21 8:00	11/3/21 8:00			Pass	JL	11/5/21	6.71	Mercer	Processing	Complete
J01-0042																																																																															WWTP												AlpineLakeWWTP-01												Preston		
L01-0015																																																																																											WestUnionWWTP-01												Doddridge		
A02-0177	17213	OneStep RT-ddPCR	Human RNase P	0	0	None				10/20/21	Manual	DQ	58477038	QX One	CDC nCov-2 Triplex	L6	AP0014	F07	JL	SARS-CoV-2 N1	0	0	2152.007294	0	SARS-CoV-2 N2	0	0	2493.552246	0																																					0.005	Sample		10/20/21	10	NT04474	Halcyon	Ceres Nanotrap	0.425		CP0027	D02	JL	WVU Morgantown	Sample	10/20/21	0.4	2108255	Halcyon	Thermo Magmax Microbiome Ultra Nucleic Acid Isolation Kit	0.05	L6	EP0027	B06	JL	OaklandE-02	CA	10/20/21 9:28	Composite	10/20/21 9:28	10/18/21 9:28			Pass	JL	10/20/21		Monongalia	Processing	Complete
A02-0173	16130	OneStep RT-ddPCR	Human RNase P	16.05157018	17054.79331	None				10/20/21	Manual	DQ	58477038	QX One	CDC nCov-2 Triplex	E4	AP0014	D01	JL	SARS-CoV-2 N1	14.59188342	0	2152.007294	15503.87613	SARS-CoV-2 N2	8.754044771	0	2493.552246	9301.172569																																					0.005	Sample		10/15/21	10	NT04474	Halcyon	Ceres Nanotrap	0.425		CP0025	A04	JL	WVU Morgantown	Sample	10/15/21	0.4	2108255	Halcyon	Thermo Magmax Microbiome Ultra Nucleic Acid Isolation Kit	0.05	E4	EP0025	A04	JL	CollegePark-02	CA	10/15/21 10:14	Composite	10/15/21 10:15	10/13/21 10:28			Pass	JL	10/15/21	7.44	Monongalia	Processing	Complete
G01-0067	4630	OneStep RT-ddPCR	Human RNase P	15.25078058	16203.95437	None				11/8/21	Manual	DQ	58477038	QX 200	CDC nCov-2 Triplex	A2	AP0017	A02	AJ	SARS-CoV-2 N1	20.33657074	0	560.2787018	21607.60641	SARS-CoV-2 N2	15.25078058	0	653.7683868	16203.95437																																					0.005	Sample		11/5/21	10	NT04474	Kookaburra	Ceres Nanotrap	0.425		CP00033	A02	JL	WWTP	Sample	11/5/21	0.4	21108255	Kookaburra	Thermo Magmax Microbiome Ultra Nucleic Acid Isolation Kit	0.05	A2	EP0033	A02	JL	KeyserWWTP-01	ML	11/3/21 8:20	Composite	11/3/21 8:00	11/2/21 9:00			Pass	JL	11/5/21	6.66	Mineral	Processing	Complete
J01-0011																																																																															WWTP												AlpineLakeWWTP-01												Preston		
A03-0132																																																																																											MorgantownHS-01												Monongalia		
K01-0035																																																																																											ParkersburgWWTP-01												Wood		
A03-0083	10607	OneStep RT-ddPCR	Human RNase P	0	0	None				2021-12-03	Manual	DQ	58477038	QX 200	CDC nCov-2 Triplex	F1	AP0023	F01	JL	SARS-CoV-2 N1	0	0	1030.21682739258	0	SARS-CoV-2 N2	0	0	1109.43168640137	0																																					0.005			2021-12-02	10	NT04474	Kookaburra	Ceres Nanotrap	0.475		CP0042	B03	LW			2021-12-02	0.4	2108255	Kookaburra	Thermo Magmax Microbiome Ultra Nucleic Acid Isolation Kit	0.075	F1	EP0042	B01	LW														Processing	Complete
A01-0050	10558	OneStep RT-ddPCR	Human RNase P	19.86253142	21103.93964					10/5/21	Manual	DQ	58477037	QX One	CDC nCov-2 Triplex	C7	AP0011	G01	JL	SARS-CoV-2 N1	48.58279228	1355.395355	0	51619.2168	SARS-CoV-2 N2	53.00443649	1548.404388	0	56317.21377																																				CDC N1/N2/RP Triplex	0.005	Sample		10/1/21	10	NT04474	Halcyon	Ceres Nanotrap	0.425	C7	CP0019	B01	JL	WWTP	Sample	10/1/21	0.4	2108052	Halcyon	Thermo Magmax Microbiome Ultra Nucleic Acid Isolation Kit	0.05	C7	EP0019	A07	JL	StarCityWWTP-01	JF	9/28/21 11:10	Composite	9/27/21 23:55	9/27/21 0:00	7.004		Pass	JL	10/1/21		Monongalia	Processing	Complete
A02-0328																																																																																											WVU-Morgantown												Monongalia		
A02-0126	13428	OneStep RT-ddPCR	Human RNase P	38.58144045	40992.78048					9/29/21	Manual	DQ	58477037	QX 200	CDC nCov-2 Triplex	L2	AP0010	B02	JL	SARS-CoV-2 N1	50.87062836	0	1097.667847	54050.04263	SARS-CoV-2 N2	63.16624165	0	1200.682373	67114.13175																																				CDC N1/N2/RP Triplex	0.005	Sample		9/27/21	10	NT04474	Halcyon	Ceres Nanotrap	0.425		CP0017	B04	JL	WVU Morgantown	Sample	9/27/21	0.4	2105049	Halcyon	Thermo Magmax Microbiome Ultra Nucleic Acid Isolation Kit	0.05	L2	EP0017	A10	JL	NorthHighSt-02 (MUB)	EL	9/24/21 10:21	Composite	9/24/21 10:21	9/22/21 10:21			Pass	JL	9/27/21	7.05	Monongalia	Processing	Complete
H01-0079																																																																															WWTP												MoundsvilleWWTP-01											7.08	Marshall		
K01-0005																																																																																											ParkersburgWWTP-01												Wood		
A02-0066	14107	OneStep RT-ddPCR	Human RNase P	48.27194691	51288.94359					9/2/21	Manual	DQ		QX One	BRSV Triplex	H3	AP000000	C03	JL	SARS-CoV-2 N1	1.506840289	0	3138.026123	1601.017807	SARS-CoV-2 N2	10.55012584	0	3336.080627	11209.5087																																				CDC N1/N2/RP Triplex	0.005	Sample		9/2/21	10	 NT04155	Kookaburra	Ceres Nanotrap	0.425		CP0007	D01	JL	WVU Morgantown	Sample	9/2/21	0.4	2102028	Halcyon	Thermo Magmax Microbiome Ultra Nucleic Acid Isolation Kit	0.05	H3	EP0007	B07	JL	Evansdale-01	EL	9/1/21 9:08	Grab	9/1/21 9:08	9/1/21 9:08			Pass	JL	9/1/21	7.36	Monongalia	Processing	Complete
J01-0005																																																																															WWTP												AlpineLakeWWTP-01												Preston		
A1036	11015	OneStep RT-ddPCR	Human RNase P		38475					5/3/21	Manual	DQ		QX 200	CDC nCov-2 Triplex					SARS-CoV-2 N1				28845	SARS-CoV-2 N2				38475																																				CDC N1/N2/RP Triplex	0.005	Sample		4/30/21	100			PEG Precipitation	7.5				KED	WWTP	Sample	5/3/21	0.2			Qiagen QiaAMP Viral Mini-RNA Kit	0.06				KED	StarCityWWTP-01	EL	4/30/21 11:06	Composite	4/25/21 11:59	4/25/21 12:00	8.393		Pass	MVS	4/30/21		Monongalia	Processing	Complete
A02-0122	15934	OneStep RT-ddPCR	Human RNase P	96.18047714	102191.757					9/24/21	Manual	DQ		QX 200	CDC nCov-2 Triplex	J3	AP0009	C03	JL	SARS-CoV-2 N1	32.50939846	0	878.4640503	34541.23586	SARS-CoV-2 N2	28.07365417	0	968.4371185	29828.25756																																				CDC N1/N2/RP Triplex	0.005	Sample		9/24/21	10		Halcyon	Ceres Nanotrap	0.425		CP0016	D01	JL	WVU Morgantown	Sample	9/24/21	0.4	XXXXXX	Halcyon	Thermo Magmax Microbiome Ultra Nucleic Acid Isolation Kit	0.05	J3	EP0016	B07	JL	NorthHighSt-02 (MUB)	EL	9/22/21 10:03	Composite	9/22/21 10:03	9/20/21 10:03			Pass	JL	9/22/21	7.11	Monongalia	Processing	Complete
B01-0006	10015	OneStep RT-ddPCR	Human RNase P	0	0					9/24/21	Manual	DQ	XXXXXX	QX 200	CDC nCov-2 Triplex	I1	AP0009	B01	JL	SARS-CoV-2 N1	58.80885601	0	878.4640503	62484.40951	SARS-CoV-2 N2	32.91484833	0	968.4371185	34972.02635																																				CDC N1/N2/RP Triplex	0.005	Sample		9/24/21	10		Halcyon	Ceres Nanotrap	0.425		CP0016	B03	JL	WWTP	Sample	9/24/21	0.4	XXXXXX	Halcyon	Thermo Magmax Microbiome Ultra Nucleic Acid Isolation Kit	0.05	I1	EP0016	A09	JL	CharlestonWWTP-01	KM	9/20/21 7:25	Composite	9/20/21 7:00	9/19/21 7:00			Pass	JL	9/21/21	6.65	Kanawha	Processing	Complete
A02-0010	17250	OneStep RT-ddPCR	Human RNase P	8.185566664	8697.16458					8/16/21	Manual	DQ	58477036	QX 200	CDC nCov-2 Triplex		AP000000	A08	JL	SARS-CoV-2 N1	0	0	1714.019012	0	SARS-CoV-2 N2	0	0	1783.141785	0																																				CDC N1/N2/RP Triplex	0.005	Sample		8/16/21	10	NT04155	Halcyon	Ceres Nanotrap	0.425		CP000000	B02	JL	WVU Morgantown	Sample	8/16/21	0.4	2102028	Halcyon	Thermo Magmax Microbiome Ultra Nucleic Acid Isolation Kit	0.05		EP000000	A08	JL	Evansdale-01	Alexander Brun	8/16/21 9:28	Composite	8/16/21 9:00	8/14/21 9:00			Pass	Josh Lambert	8/16/21	6.85	Monongalia	Processing	Complete
A02-0116	19777	OneStep RT-ddPCR	Human RNase P	33.33621502	35419.72846					9/24/21	Manual	DQ		QX 200	CDC nCov-2 Triplex	H4	AP0009	A04	JL	SARS-CoV-2 N1	231.9483185	0	878.4640503	246445.0884	SARS-CoV-2 N2	249.9780655	0	968.4371185	265601.6946																																				CDC N1/N2/RP Triplex	0.005	Sample		9/24/21	10		Halcyon	Ceres Nanotrap	0.425		CP0016	A04	JL	WVU Morgantown	Sample	9/24/21	0.4	XXXXXX	Halcyon	Thermo Magmax Microbiome Ultra Nucleic Acid Isolation Kit	0.05	H4	EP0016	A04	JL	HonorsSummit-01 (MUB)	EL	9/20/21 9:44	Composite	9/20/21 9:00	9/18/21 9:00							Monongalia	Processing	Complete
A1087	11452	OneStep RT-ddPCR		113.28		BRSV		269040		7/9/21	Manual	DQ			BRSV Triplex					SARS-CoV-2 N1	0			0	SARS-CoV-2 N2	2.05			4868.75																																				N1/N2/BRSV Triplex	0.005	Sample		7/9/21	10			Ceres Nanotrap	0.95	pH - 6.57				WWTP	Sample	7/9/21	0.4			Thermo Magmax Microbiome Ultra Nucleic Acid Isolation Kit	0.05				JL	StarCityWWTP-01	EL	7/7/21 23:55	Composite	7/7/21 23:55	7/7/21 0:00	7.73		Pass	JL	7/9/21	6.57	Monongalia	Processing	Complete
A1064	15063	OneStep RT-ddPCR		126.87		BRSV		301316.25		7/7/21	Manual	DQ			BRSV Triplex					SARS-CoV-2 N1	0			0	SARS-CoV-2 N2	1.56			3705																																				N1/N2/BRSV Triplex	0.005	Sample		7/7/21	10			Ceres Nanotrap	0.95	pH - 				WWTP	Sample	7/7/21	0.4			Thermo Magmax Microbiome Ultra Nucleic Acid Isolation Kit	0.05				JL	StarCityWWTP-01	EL	6/6/21 23:55	Composite	6/6/21 23:55	6/6/21 0:00	6.384		Pass	JL	6/11/21		Monongalia	Processing	Complete
G01-0063	10689	OneStep RT-ddPCR	Human RNase P	8.806741834	9357.163198	None				11/4/21	Manual	DQ	58477038	QX 200	CDC nCov-2 Triplex	I5	AP0016	D05	JL	SARS-CoV-2 N1	86.00666046	0	1040.980072	91382.07674	SARS-CoV-2 N2	26.43012047	0	1205.935364	28082.003																																					0.005	Sample		11/3/21	10	NT04474	Halcyon	Ceres Nanotrap	0.425		CP0032	A05	JL	WWTP	Sample	11/3/21	0.4	21108255	Kookaburra	Thermo Magmax Microbiome Ultra Nucleic Acid Isolation Kit	0.05	I5	EP0032	A05	JL	KeyserWWTP-01	-	10/28/21 8:35	Composite	10/28/21 8:00	10/27/21 9:00			Pass	JL	11/2/21	6.98	Mineral	Processing	Complete
A01-0062	8430	OneStep RT-ddPCR	Human RNase P	11.16725802	11865.21165	None				10/20/21	Manual	DQ	58477038	QX One	CDC nCov-2 Triplex	K2	AP0014	B06	JL	SARS-CoV-2 N1	47.4974966	0	2152.007294	50466.09014	SARS-CoV-2 N2	8.374946117	0	2493.552246	8898.38025																																					0.005	Sample		10/20/21	10	NT04474	Halcyon	Ceres Nanotrap	0.425		CP0027	A02	JL	WWTP	Sample	10/20/21	0.4	2108255	Halcyon	Thermo Magmax Microbiome Ultra Nucleic Acid Isolation Kit	0.05	K2	EP0027	A02	JL	StarCityWWTP-01	GG	10/13/21 23:55	Composite	10/13/21 23:55	10/13/21 0:00	6.883 		Pass	JL	10/20/21		Monongalia	Processing	Complete
G01-0060	14336	OneStep RT-ddPCR	Human RNase P	1.641338766	1743.922438	None				11/4/21	Manual	DQ	58477038	QX 200	CDC nCov-2 Triplex	F2	AP0016	A02	JL	SARS-CoV-2 N1	62.45150089	0	1040.980072	66354.7197	SARS-CoV-2 N2	47.64537334	0	1205.935364	50623.20918																																					0.005	Sample		11/2/21	10	NT04474	Kookaburra	Ceres Nanotrap	0.425		CP0031	B01	JL	WWTP	Sample	11/2/21	0.4	21108255	Kookaburra	Thermo Magmax Microbiome Ultra Nucleic Acid Isolation Kit	0.05	F2	EP0031	A02	JL	KeyserWWTP-01	KK	10/25/21 8:35	Composite	10/25/21 8:00	10/24/21 9:00			Pass	JL	10/27/21	6.65	Mineral	Processing	Complete
A01-0075	10153	OneStep RT-ddPCR	Human RNase P	6.953478456	7388.070859	None				11/4/21	Manual	DQ	58477038	QX 200	CDC nCov-2 Triplex	F6	AP0016	A06	JL	SARS-CoV-2 N1	30.14659166	0	1040.980072	32030.75364	SARS-CoV-2 N2	25.5061388	0	1205.935364	27100.27248																																					0.005	Sample		11/2/21	10	NT04474	Kookaburra	Ceres Nanotrap	0.425		CP0031	B02	JL	WWTP	Sample	11/2/21	0.4	21108255	Kookaburra	Thermo Magmax Microbiome Ultra Nucleic Acid Isolation Kit	0.05	F6	EP0031	A06	JL	StarCityWWTP-01	GG	10/28/21 23:55	Composite	10/28/21 23:55	10/28/21 0:00	7.845 		Pass	JL	10/29/21	6.71	Monongalia	Processing	Complete
A02-0151 c	12328	OneStep RT-ddPCR	Human RNase P		13752					3/11/21	Manual	DQ		QX 200	CDC nCov-2 Triplex					SARS-CoV-2 N1				13752	SARS-CoV-2 N2				9168																																				CDC N1/N2/RP Triplex	0.005	Sample	Was A04-0009	2/19/21	100			PEG Precipitation	4				AT	WWTP	Sample	2/24/21	0.2			Qiagen QiaAMP Viral Mini-RNA Kit	0.06				AT	StarCityWWTP-01	GG	2/17/21 8:00	Composite	2/17/21 11:55	2/17/21 12:00	11.943		Pass	TD	2/18/21		Monongalia	Rejected	Test
A02-0133	12270	OneStep RT-ddPCR	Human RNase P	17.26506948	18344.13633					9/29/21	Manual	DQ	58477037	QX 200	CDC nCov-2 Triplex	B6	AP0010	D06	JL	SARS-CoV-2 N1	3.835587502	0	1097.667847	4075.31172	SARS-CoV-2 N2	5.753615499	0	1200.682373	6113.216467																																				CDC N1/N2/RP Triplex	0.005	Sample		9/29/21	10	NT04474	Halcyon	Ceres Nanotrap	0.425		CP0018	A06	JL	WVU Morgantown	Sample	9/29/21	0.4	2105049	Halcyon	Thermo Magmax Microbiome Ultra Nucleic Acid Isolation Kit	0.05	B6	EP0018	A06	JL	CollegePark-02	EL	9/29/21 10:34	Composite	9/29/21 10:34	9/27/21 10:34			Pass	JL	9/29/21	7.71	Monongalia	Processing	Complete
H01-0045	10826	OneStep RT-ddPCR	Human RNase P	8.695273995	15488.4568	None				11/29/21	Manual	DQ	58477038	QX 200	CDC nCov-2 Triplex	C7	AP0022	C07	JL	SARS-CoV-2 N1	36.9771266	0	1092.976303	65865.50675	SARS-CoV-2 N2	30.44752836	0	1279.930573	54234.6599																																					0.005	Sample		2021-11-22	10	NT04474	Halcyon	Ceres Nanotrap	0.475		CP0039	B03	AJ	WWTP	Sample	2021-11-22	0.4	2108255	Halcyon	Ultra 2.0 Microbiome (Thermo)	0.075	C7	EP0039	A07	AJ	MoundsvilleWWTP-01	-	11/16/21 8:15	Composite	11/16/21 8:00	11/15/21 8:00			Pass	AJ	11/19/21	7.07	Marshall	Processing	Complete
F01-0015	9768	OneStep RT-ddPCR	Human RNase P	9.637277126	10239.60695	None				10/20/21	Manual	DQ	58477038	QX One	CDC nCov-2 Triplex	I1	AP0014	A05	JL	SARS-CoV-2 N1	82.04295158	0	2152.007294	87170.63606	SARS-CoV-2 N2	84.4603157	0	2493.552246	89739.08544																																					0.005	Sample		10/18/21	10	NT04474	Halcyon	Ceres Nanotrap	0.425		CP0026	C01	JL	WWTP	Sample	10/18/21	0.4	2108255	Halcyon	Thermo Magmax Microbiome Ultra Nucleic Acid Isolation Kit	0.05	I1	EP0026	B01	JL	WestonWWTP-01	BP	10/15/21 10:15	Composite	10/15/21 10:00	10/14/21 10:00			Pass	JL	10/18/21		Lewis	Processing	Complete
A01-0026	11747	OneStep RT-ddPCR	Human RNase P	33.67873192						9/2/21	Manual	DQ		QX One	BRSV Triplex	I1	AP000000	H03	JL	SARS-CoV-2 N1	21.04382753	0	3138.026123	52609.56883	SARS-CoV-2 N2	33.67873192	0	3336.080627	84196.8298																																				CDC N1/N2/RP Triplex	0.005	Sample		9/2/21	10	 NT04155	Kookaburra	Ceres Nanotrap	0.425		CP0007	C06	JL	WWTP	Sample	9/2/21	0.4	2102028	Halcyon	Thermo Magmax Microbiome Ultra Nucleic Acid Isolation Kit	0.05					StarCityWWTP-01	DW	8/31/21 23:55	Composite	8/31/21 23:55	8/31/21 0:00	10.024		Pass	JL	9/3/21	6.42	Monongalia	Processing	Complete
A1067		OneStep RT-ddPCR				BRSV		0		7/7/21	Manual	DQ			BRSV Triplex					SARS-CoV-2 N1				0	SARS-CoV-2 N2				0																																				N1/N2/BRSV Triplex	0.005	Sample		7/7/21	10			Ceres Nanotrap	0.95	pH - 6.35				WWTP	Sample	7/7/21	0.4			Thermo Magmax Microbiome Ultra Nucleic Acid Isolation Kit	0.05				JL	StarCityWWTP-01	EL	6/9/21 23:55	Composite	6/9/21 23:55	6/9/21 0:00	6.716		Pass	JL	6/11/21	6.35	Monongalia	Processing	Complete
H01-0078																																																																															WWTP												MoundsvilleWWTP-01	-	12/01/2021 08:15 AM	Composite	12/01/2021 08:00 AM	11/30/2021 08:00 AM			Pass	AJ	12/03/2021	7.00	Marshall		
L01-0018																																																																																											WestUnionWWTP-01												Doddridge		
A1063	13878	OneStep RT-ddPCR		3.39		BRSV		8051.25		7/7/21	Manual	DQ			BRSV Triplex					SARS-CoV-2 N1	1.7			4037.5	SARS-CoV-2 N2	1.7			4037.5																																				N1/N2/BRSV Triplex	0.005	Sample		7/7/21	10			Ceres Nanotrap	0.95	pH - 				WWTP	Sample	7/7/21	0.4			Thermo Magmax Microbiome Ultra Nucleic Acid Isolation Kit	0.05				JL	StarCityWWTP-01	EL	6/3/21 23:55	Composite	6/3/21 23:55	6/3/21 0:00	8.332		Pass	JL	6/4/21		Monongalia	Processing	Complete
A1097	12267	OneStep RT-ddPCR		51.85		BRSV		123143.75		7/30/21	Manual	DQ			BRSV Triplex					SARS-CoV-2 N1	0			0	SARS-CoV-2 N2	1.92			4560																																				N1/N2/BRSV Triplex	0.005	Sample		7/30/21	10			Ceres Nanotrap	0.95					WWTP	Sample	7/30/21	0.4			Thermo Magmax Microbiome Ultra Nucleic Acid Isolation Kit	0.05				JL	StarCityWWTP-01	EL	7/21/21 23:55	Composite	7/21/21 23:55	7/21/21 0:00	7.124		Pass	JL	7/30/21		Monongalia	Processing	Complete
A02-0214	14786	OneStep RT-ddPCR	Human RNase P	36.6	38887.5					11/18/21	Manual	DQ	58477038	QX 200	CDC nCov-2 Triplex	F3	AP0020	E03	JL	SARS-CoV-2 N1	1.6	0	1193.4	1700	SARS-CoV-2 N2	4.8	0	1245	5100																																					0.005	Sample		11/11/21	10	NT04474	Kookaburra	Ceres Nanotrap	0.425		CP0034	C06	JL	WVU Morgantown	Sample	11/11/21	0.4	2108255	Kookaburra	Thermo Magmax Microbiome Ultra Nucleic Acid Isolation Kit	0.05	F3	EP0034	C03	JL	HonorsSummit-01 (MUB)	EL	11/10/21 9:58	Composite	11/10/21 9:58	11/8/21 10:00			Pass	JL	11/10/21	7.68	Monongalia	Processing	Complete
A02-0073	14033	OneStep RT-ddPCR	Human RNase P	225.4143524	239502.7494					9/2/21	Manual	DQ		QX One	BRSV Triplex	H7	AP000000	G03	JL	SARS-CoV-2 N1	0	0	3138.026123	0	SARS-CoV-2 N2	0	0	3336.080627	0																																				CDC N1/N2/RP Triplex	0.005	Sample		9/2/21	10	 NT04155	Kookaburra	Ceres Nanotrap	0.425		CP0007	D05	JL	WVU Morgantown	Sample	9/2/21	0.4	2102028	Halcyon	Thermo Magmax Microbiome Ultra Nucleic Acid Isolation Kit	0.05	H7	EP0007	B11	JL	CollegePark-02	EL	9/1/21 10:59	Grab	9/1/21 10:59	9/1/21 10:59			Pass	JL	9/1/21	7.76	Monongalia	Processing	Complete
A01-0113																																																																																											StarCityWWTP-01	GG	11/30/2021 12:00 AM	Composite	11/30/2021 12:00 AM	11/29/2021 12:00 AM			Pass	AJ	12/03/2021	7.17	Monongalia		
A1049	12384	OneStep RT-ddPCR		78.03		BRSV		185321.25		6/4/21	Manual	DQ			BRSV Triplex					SARS-CoV-2 N1	0			0	SARS-CoV-2 N2	0			0																																				N1/N2/BRSV Triplex	0.005	Sample		6/4/21	10			Ceres Nanotrap	0.95	pH -  6.58				WWTP	Sample		0.4			Thermo Magmax Microbiome Ultra Nucleic Acid Isolation Kit	0.05					StarCityWWTP-01	EL	5/16/21 23:55	Composite	5/16/21 23:59	5/16/21 0:00	7.808		Pass	MVS	6/4/21	6.58	Monongalia	Processing	Complete
A03-0163																																																																																											SuncrestES-01												Monongalia		
A02-0211	15527	OneStep RT-ddPCR	Human RNase P	7.578154802	8051.789477	None				11/8/21	Manual	DQ	58477038	QX 200	CDC nCov-2 Triplex	C4	AP0017	C04	AJ	SARS-CoV-2 N1	0	0	560.2787018	0	SARS-CoV-2 N2	3.030968904	0	653.7683868	3220.404461																																					0.005	Sample		11/5/21	10	NT04474	Kookaburra	Ceres Nanotrap	0.425		CP00033	D02	JL	WVU Morgantown	Sample	11/5/21	0.4	21108255	Kookaburra	Thermo Magmax Microbiome Ultra Nucleic Acid Isolation Kit	0.05	C4	EP0033	C04	JL	CollegePark-02	EL	11/5/21 11:48	Composite	11/5/21 11:30	11/3/21 11:30			Pass	JL	11/5/21	7.36	Monongalia	Processing	Complete
A03-0148																																																																																											MorgantownHS-01												Monongalia		
A02-0162	14790	OneStep RT-ddPCR	Human RNase P	33.35080147	35435.22656					10/14/21	Manual	DQ	58477038	QX One	CDC nCov-2 Triplex	B4	AP0013	D01	JL	SARS-CoV-2 N1	1.448956132	0	1707.766876	1539.51589	SARS-CoV-2 N2	5.79641223	0	1836.244965	6158.687994																																				CDC N1/N2/RP Triplex	0.005	Sample		10/11/21	10	NT04474	Halcyon	Ceres Nanotrap	0.425		CP0023	A04	JL	WVU Morgantown	Sample	10/11/21	0.4	2108255	Halcyon	Thermo Magmax Microbiome Ultra Nucleic Acid Isolation Kit	0.05	B4	EP0023	A04	JL	CollegePark-02	EL	10/11/21 9:51	Composite	10/11/21 9:00	10/9/21 9:00			Pass	JL	10/11/21	6.76	Monongalia	Processing	Complete
A0224	13877	OneStep RT-ddPCR	Human RNase P		4080					2/22/21	Manual	DQ			CDC nCov-2 Triplex					SARS-CoV-2 N1				44784	SARS-CoV-2 N2				44784																																				CDC N1/N2/RP Triplex	0.005	Sample		2/5/21	100			PEG Precipitation	4				MS	WWTP	Sample	2/19/21	0.2			Qiagen QiaAMP Viral Mini-RNA Kit	0.06				MS	StarCityWWTP-01	GS	1/20/21 0:00	Composite	1/20/21 23:59	1/20/21 0:00	8.431		Pass	TD	1/22/21		Monongalia	Processing	Complete
A02-0319																																																																																											WVU-Morgantown												Monongalia		
I01-0047																																																																															WWTP												WarmSpringsWWTP-01	-	12/01/2021 08:00 AM	Composite	12/01/2021 07:30 AM	11/30/2021 07:30 AM			Pass	AJ	12/03/2021	7.24	Morgan		
G01-0069	14892	OneStep RT-ddPCR	Human RNase P	0	0					11/18/21	Manual	DQ	58477038	QX 200	CDC nCov-2 Triplex	E5	AP0020	C05	JL	SARS-CoV-2 N1	1.6	0	1193.4	1700	SARS-CoV-2 N2	1.6	0	1245	1700																																					0.005	Sample		11/11/21	10	NT04474	Kookaburra	Ceres Nanotrap	0.425		CP0034	D01	JL	WWTP	Sample	11/11/21	0.4	2108255	Kookaburra	Thermo Magmax Microbiome Ultra Nucleic Acid Isolation Kit	0.05	E5	EP0034	B05	JL	KeyserWWTP-01	G	11/7/21 8:10	Composite	11/7/21 8:00	11/6/21 9:00			Pass	JL	11/9/21	6.81	Mineral	Processing	Complete
A02-0149	21492	OneStep RT-ddPCR	Human RNase P	55.13774395	58583.85295					10/11/21	Manual	DQ	58477037	QX One	CDC nCov-2 Triplex	K3	AP0012	C04	JL	SARS-CoV-2 N1	7.445496321	0	1593.187866	7910.839841	SARS-CoV-2 N2	52.15488911	0	2077.493896	55414.56968																																				CDC N1/N2/RP Triplex	0.005	Sample		10/8/21	10	NT04474	Halcyon	Ceres Nanotrap	0.425		CP0022	A03	JL	WVU Morgantown	Sample	10/8/21	0.4	2108052	Halcyon	Thermo Magmax Microbiome Ultra Nucleic Acid Isolation Kit	0.05	K3	EP0022	A03	JL	HonorsSummit-01 (MUB)	EL	10/8/21 9:37	Composite	10/8/21 9:38	10/6/21 9:37			Pass	JL	10/8/21	7.45	Monongalia	Processing	Complete
C01-0020	13874	OneStep RT-ddPCR	Human RNase P	8.481206894	9011.282325	None				11/8/21	Manual	DQ	58477038	QX 200	CDC nCov-2 Triplex	G8	AP0017	D08	AJ	SARS-CoV-2 N1	15.26837349	0	560.2787018	16222.64683	SARS-CoV-2 N2	11.87454581	0	653.7683868	12616.70493																																					0.005	Sample		10/15/21	10	NT04474	Halcyon	Ceres Nanotrap	0.425		CP0025	D06	JL	WWTP	Sample	10/15/21	0.4	2108255	Halcyon	Thermo Magmax Microbiome Ultra Nucleic Acid Isolation Kit	0.05	G8	EP0025	D06	JL	WheelingWWTP-01	MVC	10/14/21 7:00	Composite	10/14/21 7:00	10/13/21 7:00			Pass	JL	10/15/21	6.31	Ohio	Processing	Complete
A02-0008	18971	OneStep RT-ddPCR	Human RNase P	33.51149797	35605.9666					8/16/21	Manual	DQ	58477036	QX 200	CDC nCov-2 Triplex		AP000000	A06	JL	SARS-CoV-2 N1	6.202232838	0	1714.019012	6589.87239	SARS-CoV-2 N2	1.240315884	0	1783.141785	1317.83566																																				CDC N1/N2/RP Triplex	0.005	Sample		8/16/21	10	NT04155	Halcyon	Ceres Nanotrap	0.425		CP000000	A06	JL	WVU Morgantown	Sample	8/16/21	0.4	2102028	Halcyon	Thermo Magmax Microbiome Ultra Nucleic Acid Isolation Kit	0.05		EP000000	A06	JL	NorthHighSt-02 (MUB)	Eric Lundstrom	8/13/21 10:02	Composite	8/13/21 9:45	8/11/21 9:45			Pass	Josh Lambert	8/13/21	7.5	Monongalia	Processing	Complete
A02-0367																																																																																											WVU-Morgantown												Monongalia		
A02-0212	15295	OneStep RT-ddPCR	Human RNase P	20	21250					11/18/21	Manual	DQ	58477038	QX 200	CDC nCov-2 Triplex	D4	AP0020	B04	JL	SARS-CoV-2 N1	6.2	0	1193.4	6587.5	SARS-CoV-2 N2	3	0	1245	3187.5																																					0.005	Sample		11/11/21	10	NT04474	Kookaburra	Ceres Nanotrap	0.425		CP0034	A04	JL	WVU Morgantown	Sample	11/11/21	0.4	2108255	Kookaburra	Thermo Magmax Microbiome Ultra Nucleic Acid Isolation Kit	0.05	D4	EP0034	A04	JL	HonorsSummit-01 (MUB)	CA	11/8/21 10:00	Composite	11/8/21 9:00	11/6/21 9:00			Pass	JL	11/8/21	7.1	Monongalia	Processing	Complete
G02-0016																																																																			Sample												WVU Keyser	Sample											PotomacState-01	-	10/28/21 11:30	Composite	10/28/21 11:00	10/27/21 11:00			Pass	JL	11/2/21	7.04	Mineral	Processing	Processing
A02-0069	14426	OneStep RT-ddPCR	Human RNase P	73.22541714	77802.00571					9/2/21	Manual	DQ		QX One	BRSV Triplex	H5	AP000000	E03	JL	SARS-CoV-2 N1	7.16750741	0	3138.026123	7615.476623	SARS-CoV-2 N2	5.733807087	0	3336.080627	6092.17003																																				CDC N1/N2/RP Triplex	0.005	Sample		9/2/21	10	 NT04155	Kookaburra	Ceres Nanotrap	0.425		CP0007	D03	JL	WVU Morgantown	Sample	9/2/21	0.4	2102028	Halcyon	Thermo Magmax Microbiome Ultra Nucleic Acid Isolation Kit	0.05	H5	EP0007	B09	JL	NorthHighSt-02 (MUB)	EL	9/1/21 10:01	Grab	9/1/21 10:01	9/1/21 10:01			Pass	JL	9/1/21	8.3	Monongalia	Processing	Complete
L01-0014																																																																																											WestUnionWWTP-01												Doddridge		
A1081	12866	OneStep RT-ddPCR		58.59		BRSV		139151.25		7/9/21	Manual	DQ			BRSV Triplex					SARS-CoV-2 N1	0			0	SARS-CoV-2 N2	0			0																																				N1/N2/BRSV Triplex	0.005	Sample		7/9/21	10			Ceres Nanotrap	0.95	pH - 6.47				WWTP	Sample	7/9/21	0.4			Thermo Magmax Microbiome Ultra Nucleic Acid Isolation Kit	0.05				JL	StarCityWWTP-01	EL	6/29/21 23:55	Composite	6/29/21 23:55	6/29/21 0:00	7.266		Pass	JL	7/9/21	6.47	Monongalia	Processing	Complete
B01-0019																																																																			Sample		10/25/21	10	NT04474	Halcyon	Ceres Nanotrap	0.425		CP0028	C01	JL	WWTP	Sample	10/25/21	0.4	2108255	Halcyon	Thermo Magmax Microbiome Ultra Nucleic Acid Isolation Kit	0.05	B5	EP0028	B05	JL	CharlestonWWTP-01	KM	10/20/21 8:30	Composite	10/20/21 7:00	10/19/21 7:00	6.558		Pass	JL	10/25/21	7.14	Kanawha	Processing	Processing
C01-0046	15747	OneStep RT-ddPCR	Human RNase P	55.3510236740112	98594.0109193324	None				2021-12-03	Manual	DQ	58477038	QX 200	CDC nCov-2 Triplex	G4	AP0023	C04	JL	SARS-CoV-2 N1	112.333889007568	0	1030.21682739258	200094.739794731	SARS-CoV-2 N2	59.8446607589722	0	1109.43168640137	106598.301976919																																					0.005			2021-11-30	10	NT04474	Halcyon	Ceres Nanotrap	0.475		CP0041	A04	AJ	WWTP		2021-11-30	0.4	2108255	Halcyon	Thermo Magmax Microbiome Ultra Nucleic Acid Isolation Kit	0.075	G4	EP0041	A04	AJ	WheelingWWTP-01	-	11/26/2021 07:00 AM		11/26/2021 07:00 AM	11/25/2021 07:00 AM			Pass	AJ	11/30/2021		Ohio	Processing	Complete
H01-0052																																																																															WWTP												MoundsvilleWWTP-01												Marshall		
L01-0046																																																																																											WestUnionWWTP-01												Doddridge		
A03-0196																																																																																											MorgantownHS-01												Monongalia		
H01-0043																																																																				SAT AT FEDEX OVER WEEKEND											WWTP												MoundsvilleWWTP-01		11/19/2021 08:15 AM	Composite	11/19/2021 08:00 AM	11/18/2021 08:00 AM			Fail: Temperature Above Threshold	JL	11/29/2021		Marshall		
A01-0005	14966	OneStep RT-ddPCR	Human RNase P	23.59469414	25069.36252					8/18/21	Manual	DQ	58477036	QX 200	CDC nCov-2 Triplex	G5	AP000000	A05	JL	SARS-CoV-2 N1	210.036068	0	1685.59967	223163.3263	SARS-CoV-2 N2	238.6065865	1.36802882	1874.414978	253519.4941																																				CDC N1/N2/RP Triplex	0.005	Sample		8/18/21	10	NT04155	Kookaburra	Ceres Nanotrap	0.425		CP000000	A05	JL	WWTP	Sample	8/18/21	0.4	2102028	Kookaburra	Thermo Magmax Microbiome Ultra Nucleic Acid Isolation Kit	0.05		EP000000	A05	JL	StarCityWWTP-01	GG	8/14/21 23:55	Composite	8/14/21 23:55	8/14/21 0:00	9.531		Pass	JL	8/18/21	6.85	Monongalia	Processing	Complete
A1061	13947	OneStep RT-ddPCR		157.42		BRSV		373872.5		7/7/21	Manual	DQ			BRSV Triplex					SARS-CoV-2 N1	0			0	SARS-CoV-2 N2	0			0																																				N1/N2/BRSV Triplex	0.005	Sample		7/7/21	10			Ceres Nanotrap	0.95	pH - 6.92				WWTP	Sample	7/7/21	0.4			Thermo Magmax Microbiome Ultra Nucleic Acid Isolation Kit	0.05				JL	StarCityWWTP-01	EL	6/1/21 23:55	Composite	6/1/21 23:55	6/1/21 0:00	7.215		Pass	JL	6/4/21	6.92	Monongalia	Processing	Complete
A02-0166	20008	OneStep RT-ddPCR	Human RNase P	46.69902325	49617.7122					10/14/21	Manual	DQ	58477038	QX One	CDC nCov-2 Triplex	D1	AP0013	A03	JL	SARS-CoV-2 N1	80.55788994	0	1707.766876	85592.75806	SARS-CoV-2 N2	114.4524097	0	1836.244965	121605.6854																																				CDC N1/N2/RP Triplex	0.005	Sample		10/13/21	10	NT04474	Halcyon	Ceres Nanotrap	0.425		CP0024	C01	JL	WVU Morgantown	Sample	10/13/21	0.4	2108255	Halcyon	Thermo Magmax Microbiome Ultra Nucleic Acid Isolation Kit	0.05	D1	EP0024	B01	JL	OaklandE-02	EL	10/13/21 9:44	Composite	10/13/21 9:44	10/11/21 9:44			Pass	JL	10/13/21	7.22	Monongalia	Processing	Complete
G01-0022	19854	OneStep RT-ddPCR	Human RNase P	27.27360725	48581.11292	None				11/29/21	Manual	DQ	58477038	QX 200	CDC nCov-2 Triplex	B1	AP0022	B06	JL	SARS-CoV-2 N1	106.9034576	0	1092.976303	190421.7839	SARS-CoV-2 N2	81.91583633	0	1279.930573	145912.5835																																					0.005	Sample		2021-11-19	10	NT04474	Halcyon	Ceres Nanotrap	0.475		CP0038	D02	AJ	WWTP	Sample	2021-11-19	0.4	2108255	Halcyon	Ultra 2.0 Microbiome (Thermo)	0.075	B1	EP0038	B06	AJ	KeyserWWTP-01	-	11/18/21 8:45	Composite	11/18/21 8:00	11/17/21 9:00			Pass	AJ	11/19/21	7.31	Mineral	Processing	Complete
K01-0009																																																																																											ParkersburgWWTP-01												Wood		
A02-0130	9389	OneStep RT-ddPCR	Human RNase P	15.04117608	15981.24959					9/29/21	Manual	DQ	58477037	QX 200	CDC nCov-2 Triplex	B3	AP0010	D03	JL	SARS-CoV-2 N1	0	0	1097.667847	0	SARS-CoV-2 N2	0	0	1200.682373	0																																				CDC N1/N2/RP Triplex	0.005	Sample		9/29/21	10	NT04474	Halcyon	Ceres Nanotrap	0.425		CP0018	A03	JL	WVU Morgantown	Sample	9/29/21	0.4	2105049	Halcyon	Thermo Magmax Microbiome Ultra Nucleic Acid Isolation Kit	0.05	B3	EP0018	A03	JL	Evansdale-01	EL	9/29/21 9:28	Composite	9/29/21 9:28	9/27/21 9:28			Pass	JL	9/29/21	7.02	Monongalia	Processing	Complete
A02-0312																																																																																											WVU-Morgantown												Monongalia		
E02-0001	12931	OneStep RT-ddPCR	Human RNase P	9	9562.5					11/18/21	Manual	DQ	58477038	QX 200	CDC nCov-2 Triplex	D7	AP0020	B07	JL	SARS-CoV-2 N1	9	0	1193.4	9562.5	SARS-CoV-2 N2	3.6	0	1245	3825																																					0.005	Sample		11/11/21	10	NT04474	Kookaburra	Ceres Nanotrap	0.425		CP0034	B03	JL	WWTP	Sample	11/11/21	0.4	2108255	Kookaburra	Thermo Magmax Microbiome Ultra Nucleic Acid Isolation Kit	0.05	D7	EP0034	A07	JL	AthensWWTP-01	-	11/3/21 8:00	Grab	11/3/21 8:00	11/2/21 8:00			Pass	JL	11/8/21	6.22	Mercer	Processing	Complete
H01-0035	15921	OneStep RT-ddPCR	Human RNase P	3	3187.5					11/18/21	Manual	DQ	58477038	QX 200	CDC nCov-2 Triplex	G7	AP0020	D07	JL	SARS-CoV-2 N1	6	0	1193.4	6375	SARS-CoV-2 N2	6	0	1245	6375																																					0.005	Sample		11/12/21	10	NT04474	Kookaburra	Ceres Nanotrap	0.425		CP0035	B03	AJ	WWTP	Sample	11/12/21	0.4	2108255	Kookaburra	Thermo Magmax Microbiome Ultra Nucleic Acid Isolation Kit	0.05	G7	EP0035	A07	AJ	MoundsvilleWWTP-01	DRC	11/5/21 8:15	Composite	11/5/21 8:00	11/4/21 8:00			Pass	AJ	11/11/21	6.84	Marshall	Processing	Complete
K01-0027																																																																																											ParkersburgWWTP-01												Wood		
B01-0012	13628	OneStep RT-ddPCR	Human RNase P	0	0					10/11/21	Manual	DQ	58477037	QX One	CDC nCov-2 Triplex	H1	AP0012	A02	JL	SARS-CoV-2 N1	76.10450268	0	1593.187866	80861.0341	SARS-CoV-2 N2	42.7867651	0	2077.493896	45460.93792																																				CDC N1/N2/RP Triplex	0.005	Sample		10/7/21	10	NT04474	Halcyon	Ceres Nanotrap	0.425		CP0021	A01	JL	WWTP	Sample	10/7/21	0.4	2108052	Halcyon	Thermo Magmax Microbiome Ultra Nucleic Acid Isolation Kit	0.05	H1	EP0021	A01	JL	CharlestonWWTP-01	KM	9/30/21 7:20	Composite	9/30/21 7:00	9/29/21 7:00			Pass	JL	10/6/21	6.36	Kanawha	Processing	Complete
A02-0321																																																																																											WVU-Morgantown												Monongalia		
A03-0082	10860	OneStep RT-ddPCR	Human RNase P	0	0	None				2021-12-03	Manual	DQ	58477038	QX 200	CDC nCov-2 Triplex	NAB14 E1	AP0023	E01	JL	SARS-CoV-2 N1	0	0	1030.21682739258	0	SARS-CoV-2 N2	2.16671213507652	0	1109.43168640137	3859.45599060505																																					0.005			2021-12-02	10	NT04474	Kookaburra	Ceres Nanotrap	0.475		CP0042	A01	LW			2021-12-02	0.4	2108255	Kookaburra	Thermo Magmax Microbiome Ultra Nucleic Acid Isolation Kit	0.075	NAB_14 E1	EP0042	A01	LW														Processing	Complete
A02-0078	15687	OneStep RT-ddPCR	Human RNase P	15.00408888	15941.84443					9/9/21	Manual	DQ	58477037	QX 200	CDC nCov-2 Triplex	I5	AP0007	B07	JL	SARS-CoV-2 N1	254.8636055	0	1303.838043	270792.5808	SARS-CoV-2 N2	66.08967781	0	1366.207123	70220.28267																																				CDC N1/N2/RP Triplex	0.005	Sample		9/3/21	10	NT04155	Halcyon	Ceres Nanotrap	0.425		CP0008	A05	JL	WVU Morgantown	Sample	9/3/21	0.4	2102028	Halcyon	Thermo Magmax Microbiome Ultra Nucleic Acid Isolation Kit	0.05	I5	EP0008	A05	JL	NorthHighSt-02 (MUB)	WL	9/3/21 10:32	Composite	9/3/21 10:32	9/1/21 10:32			Pass	JL	9/3/21	6.92	Monongalia	Processing	Complete
A01-0020																																																																			Sample													Sample																									Unknown
A03-0089	15062	OneStep RT-ddPCR	Human RNase P	3.124548495	3319.832776	None				11/29/21	Manual	DQ	58477038	QX 200	CDC nCov-2 Triplex	D5	AP0022	F05	JL	SARS-CoV-2 N1	0	0	1092.976303	0	SARS-CoV-2 N2	7.812149525	0	1279.930573	8300.40887																																					0.005	Sample		2021-11-15	10	NT04474	Halcyon	Ceres Nanotrap	0.425		CP0035	C01	LW	K-12	Sample	2021-11-15	0.4	2108255	Halcyon	Ultra 2.0 Microbiome (Thermo)	0.05	D5	EP0035	B05	JL	SuncrestES-01	BL	11/11/21 12:25	Composite	11/10/21 14:00	11/10/21 6:00			Pass	JL	11/12/21		Monongalia	Processing	Complete
K01-0024																																																																																											ParkersburgWWTP-01												Wood		
K01-0028																																																																																											ParkersburgWWTP-01												Wood		
A03-0026	4935	OneStep RT-ddPCR	Human RNase P	0	0					9/29/21	Manual	DQ	58477037	QX 200	CDC nCov-2 Triplex	L8	AP0010	B08	JL	SARS-CoV-2 N1	0	0	1097.667847	0	SARS-CoV-2 N2	0	0	1200.682373	0																																				CDC N1/N2/RP Triplex	0.005	Sample		9/27/21	10	NT04474	Halcyon	Ceres Nanotrap	0.425		CP0017	C04	JL	K-12	Sample	9/27/21	0.4	2105049	Halcyon	Thermo Magmax Microbiome Ultra Nucleic Acid Isolation Kit	0.05	L8	EP0017	B04	JL	MorgantownHS-01	BL	9/23/21 9:35	Composite	9/22/21 14:00	9/22/21 6:00			Pass	JL	9/24/21	8.09	Monongalia	Processing	Complete
A02-0139	14025	OneStep RT-ddPCR	Human RNase P	0	0					10/11/21	Manual	DQ	58477037	QX One	CDC nCov-2 Triplex	F2	AP0012	B01	JL	SARS-CoV-2 N1	0	0	1593.187866	0	SARS-CoV-2 N2	0	0	2077.493896	0																																				CDC N1/N2/RP Triplex	0.005	Sample		10/5/21	10	NT04474	Halcyon	Ceres Nanotrap	0.425		CP0020	A02	JL	WVU Morgantown	Sample	10/5/21	0.4	2108052	Halcyon	Thermo Magmax Microbiome Ultra Nucleic Acid Isolation Kit	0.05	F2	EP0020	A02	JL	Evansdale-01	EL	10/4/21 9:17	Composite	10/4/21 9:00	10/2/21 9:00			Pass	JL	10/4/21	6.76	Monongalia	Processing	Complete
H01-0022		OneStep RT-ddPCR	Human RNase P			None				11/1/21	CHECK	ABS	58477038	QX 200	CDC nCov-2 Triplex	C7	AP0015	C07	JL	SARS-CoV-2 N1					SARS-CoV-2 N2																																									0.005	Sample		10/25/21	10	NT04474	Halcyon	Ceres Nanotrap	0.425		CP0028	D05	JL	WWTP	Sample	10/25/21	0.4	2108255	Halcyon	Thermo Magmax Microbiome Ultra Nucleic Acid Isolation Kit	0.05	C7	EP0028	C07	JL	MoundsvilleWWTP-01	DRC	10/20/21 8:15	Composite	10/20/21 8:00	10/19/21 8:00			Pass	JL	10/25/21	7.06	Marshall	Processing	Processing
A03-0130																																																																																											MountainviewES-01												Monongalia		
G02-0019																																																																															WWTP												PotomacState-01	-	12/01/2021 10:30 AM	Composite	12/01/2021 10:30 AM	11/29/2021 02:00 PM			Pass	AJ	12/03/2021	7.08	Mineral		
A02-0148	21276	OneStep RT-ddPCR	Human RNase P	119.220562	126671.8471					10/11/21	Manual	DQ	58477037	QX One	CDC nCov-2 Triplex	K2	AP0012	B04	JL	SARS-CoV-2 N1	224.2829704	0	1593.187866	238300.6561	SARS-CoV-2 N2	82.82402992	0	2077.493896	88000.53179																																				CDC N1/N2/RP Triplex	0.005	Sample		10/8/21	10	NT04474	Halcyon	Ceres Nanotrap	0.425		CP0022	A02	JL	WVU Morgantown	Sample	10/8/21	0.4	2108052	Halcyon	Thermo Magmax Microbiome Ultra Nucleic Acid Isolation Kit	0.05	K2	EP0022	A02	JL	OaklandE-02	EL	10/8/21 9:28	Composite	10/8/21 9:28	10/6/21 9:28			Pass	JL	10/8/21	7.69	Monongalia	Processing	Complete
A02-0014	19433	OneStep RT-ddPCR	Human RNase P	18.168962	19304.52213					8/16/21	Manual	DQ	58477036	QX 200	CDC nCov-2 Triplex		AP000000	B03	JL	SARS-CoV-2 N1	31.50179148	0	1714.019012	33470.65294	SARS-CoV-2 N2	30.28940439	0	1783.141785	32182.49166																																				CDC N1/N2/RP Triplex	0.005	Sample		8/16/21	10	NT04155	Halcyon	Ceres Nanotrap	0.425		CP000000	B05	JL	WVU Morgantown	Sample	8/16/21	0.4	2102028	Halcyon	Thermo Magmax Microbiome Ultra Nucleic Acid Isolation Kit	0.05		EP000000	A11	JL	NorthHighSt-02 (MUB)	Eric Lundstrom	8/16/21 10:05	Composite	8/16/21 9:00	8/14/21 9:00			Pass	Josh Lambert	8/16/21	7.83	Monongalia	Processing	Complete
H01-0064																																																																															WWTP												MoundsvilleWWTP-01												Marshall		
B01-0067	16019	OneStep RT-ddPCR	Human RNase P	0	0	None				11/8/21	Manual	DQ	58477038	QX 200	CDC nCov-2 Triplex	B1	AP0017	B01	AJ	SARS-CoV-2 N1	13.22331071	0	560.2787018	14049.76763	SARS-CoV-2 N2	14.69302654	0	653.7683868	15611.3407																																				CDC N1/N2/RP Triplex	0.005	Sample		11/5/21	10	NT04474	Kookaburra	Ceres Nanotrap	0.425		CP00033	B03	JL	WWTP	Sample	11/5/21	0.4	21108255	Kookaburra	Thermo Magmax Microbiome Ultra Nucleic Acid Isolation Kit	0.05	B1	EP0033	B01	JL	CharlestonWWTP-01	-	11/3/21 7:45	Composite	11/3/21 7:00	11/2/21 7:00			Pass	JL	11/5/21	6.86	Kanawha	Processing	Complete
A03-0064	14511	OneStep RT-ddPCR	Human RNase P	11.35315418	12062.72632	None				11/29/21	Manual	DQ	58477038	QX 200	CDC nCov-2 Triplex	C2	AP0022	E02	JL	SARS-CoV-2 N1	1.621543914	0	1092.976303	1722.890409	SARS-CoV-2 N2	3.243199289	0	1279.930573	3445.899244																																					0.005	Sample		2021-11-15	10	NT04474	Halcyon	Ceres Nanotrap	0.425		CP0035	A02	LW	K-12	Sample	2021-11-15	0.4	2108255	Halcyon	Ultra 2.0 Microbiome (Thermo)	0.05	C2	EP0035	A02	JL	NorthES-01	BL	11/4/21 10:30	Composite	11/3/21 14:00	11/3/21 6:00			Pass	JL	11/5/21		Monongalia	Processing	Complete
A1035	9076	OneStep RT-ddPCR	Human RNase P		43554					4/26/21	Manual	DQ		QX 200	CDC nCov-2 Triplex					SARS-CoV-2 N1				10878	SARS-CoV-2 N2				10878																																				CDC N1/N2/RP Triplex	0.005	Sample		4/23/21	100			PEG Precipitation	7				MVS	WWTP	Sample	4/26/21	0.2			Qiagen QiaAMP Viral Mini-RNA Kit	0.06				MVS	StarCityWWTP-01	EL	4/23/21 10:58	Composite	4/22/21 11:59	4/22/21 12:00	8.62		Pass	MVS	4/23/21		Monongalia	Processing	Complete
L01-0006																																																																																											WestUnionWWTP-01												Doddridge		
J01-0014																																																																															WWTP												AlpineLakeWWTP-01												Preston		
A01-0035	14278	OneStep RT-ddPCR	Human RNase P	67.66309261	71892.0359					9/20/21	Manual	DQ	58477037	QX 200	CDC nCov-2 Triplex	D3	AP0008	C03	JL	SARS-CoV-2 N1	127.2354507	0	1320.22522	135187.6664	SARS-CoV-2 N2	109.0167713	0	1524.019623	115830.3195																																				CDC N1/N2/RP Triplex	0.005	Sample		9/15/21	10	NT04155	Kookaburra	Ceres Nanotrap	0.425		CP0012	A03	JL	WWTP	Sample	9/15/21	0.4	2105033	Halcyon	Thermo Magmax Microbiome Ultra Nucleic Acid Isolation Kit	0.05	D3	EP0012	A03	JL	StarCityWWTP-01	GG	9/13/21 23:55	Composite	9/13/21 23:55	9/13/21 0:00	8.156		Pass	JL	9/15/21	6.87	Monongalia	Processing	Complete
E02-0002	14544	OneStep RT-ddPCR	Human RNase P	8	8500					11/18/21	Manual	DQ	58477038	QX 200	CDC nCov-2 Triplex	D8	AP0020	B08	JL	SARS-CoV-2 N1	11.4	0	1193.4	12112.5	SARS-CoV-2 N2	9.8	0	1245	10412.5																																					0.005	Sample		11/11/21	10	NT04474	Kookaburra	Ceres Nanotrap	0.425		CP0034	B04	JL	WWTP	Sample	11/11/21	0.4	2108255	Kookaburra	Thermo Magmax Microbiome Ultra Nucleic Acid Isolation Kit	0.05	D8	EP0034	A08	JL	AthensWWTP-01	-	11/4/21 8:00	Composite	11/4/21 8:00	11/3/21 8:00			Pass	JL	11/8/21	6.2	Mercer	Processing	Complete
H01-0063																																																																															WWTP												MoundsvilleWWTP-01												Marshall		
A1056	13749	OneStep RT-ddPCR	Human RNase P	108.06	256642.5					7/7/21	Manual	DQ			CDC nCov-2 Triplex					SARS-CoV-2 N1	0			0	SARS-CoV-2 N2	0			0																																				CDC N1/N2/RP Triplex	0.005	Sample		7/7/21	10			Ceres Nanotrap	0.95	pH - 6.89				WWTP	Sample	7/7/21	0.4			Thermo Magmax Microbiome Ultra Nucleic Acid Isolation Kit	0.05				JL	StarCityWWTP-01	EL	5/25/21 23:55	Composite	5/25/21 23:55	5/25/21 0:00	7.095		Pass	JL	5/28/21	6.89	Monongalia	Processing	Complete
A01-0004	18261	OneStep RT-ddPCR	Human RNase P	20.6251359	21914.20689					8/16/21	Manual	DQ	58477036	QX 200	CDC nCov-2 Triplex		AP000000	A03	JL	SARS-CoV-2 N1	63.22166443	0	1714.019012	67173.01846	SARS-CoV-2 N2	64.51367378	0	1783.141785	68545.77637																																				CDC N1/N2/RP Triplex	0.005	Sample		8/16/21	10	NT04155	Halcyon	Ceres Nanotrap	0.425		CP000000	A03	JL	WWTP	Sample	8/16/21	0.4	2102028	Halcyon	Thermo Magmax Microbiome Ultra Nucleic Acid Isolation Kit	0.05		EP000000	A03	JL	StarCityWWTP-01	GG	8/12/21 23:55	Composite	8/12/21 23:55	8/12/21 0:00	8.144		Pass	Josh Lambert	8/13/21	6.95	Monongalia	Processing	Complete
E02-0005	17825	OneStep RT-ddPCR	Human RNase P	5.280684829	5610.727631	None				11/29/21	Manual	DQ	58477038	QX 200	CDC nCov-2 Triplex	C5	AP0022	G01	JL	SARS-CoV-2 N1	13.20393562	0	1092.976303	14029.1816	SARS-CoV-2 N2	19.8086822	0	1279.930573	21046.72484																																					0.005	Sample		11/17/21	10	NT04474	Halcyon	Ceres Nanotrap	0.425		CP0037	B01	JL	WWTP	Sample	11/17/21	0.4	2108255	Halcyon	Thermo Magmax Microbiome Ultra Nucleic Acid Isolation Kit	0.05	K5	EP0037	A05	JL	AthensWWTP-01	-	11/9/21 8:00	Composite	11/9/21 8:00	11/8/21 8:00			Pass	JL	11/16/21	6.81	Mercer	Processing	Complete
A02-0335																																																																																											WVU-Morgantown												Monongalia		
A0233	17982	OneStep RT-ddPCR	Human RNase P		0					2/22/21	Manual	DQ			CDC nCov-2 Triplex					SARS-CoV-2 N1				37704	SARS-CoV-2 N2				34560																																				CDC N1/N2/RP Triplex	0.005	Sample		2/5/21	100			PEG Precipitation	4				MS	WWTP	Sample	2/19/21	0.2			Qiagen QiaAMP Viral Mini-RNA Kit	0.06				MS	StarCityWWTP-01	GS	2/2/21 0:00	Composite	2/2/21 23:59	2/2/21 0:00	11.234		Pass	TD	2/4/21		Monongalia	Processing	Complete
A02-0011	21209	OneStep RT-ddPCR	Human RNase P	12.20664263	12969.55779					8/20/21	Manual	DQ	58477036	QX 200	CDC nCov-2 Triplex	F1	AP000000	A08	JL	SARS-CoV-2 N1	35.52783012	0	1047.2155	37748.32153	SARS-CoV-2 N2	41.08390331	0	1082.352142	43651.64828																																				CDC N1/N2/RP Triplex	0.005	Sample		8/16/21	10	NT04155	Halcyon	Ceres Nanotrap	0.425		CP000000	B03	JL	WVU Morgantown	Sample	8/16/21	0.4	2102028	Halcyon	Thermo Magmax Microbiome Ultra Nucleic Acid Isolation Kit	0.05		EP000000	A09	JL	OaklandE-02	Eric Lundstrom	8/16/21 9:41	Composite	8/16/21 9:00	8/14/21 9:00			Pass	Josh Lambert	8/16/21	7.31	Monongalia	Processing	Complete
A01-0077	12345	OneStep RT-ddPCR	Human RNase P	9.531865716	10127.60732	None				11/4/21	Manual	DQ	58477038	QX 200	CDC nCov-2 Triplex	I2	AP0016	D02	JL	SARS-CoV-2 N1	129.9654007	0	1040.980072	138088.2382	SARS-CoV-2 N2	53.42825413	0	1205.935364	56767.52001																																					0.005	Sample		11/3/21	10	NT04474	Halcyon	Ceres Nanotrap	0.425		CP0032	A02	JL	WWTP	Sample	11/3/21	0.4	21108255	Kookaburra	Thermo Magmax Microbiome Ultra Nucleic Acid Isolation Kit	0.05	I2	EP0032	A02	JL	StarCityWWTP-01	GG	10/31/21 23:55	Composite	10/31/21 23:55	10/31/21 0:00	10.075		Pass	JL	11/3/21	6.68	Monongalia	Processing	Complete
A02-0354																																																																																											WVU-Morgantown												Monongalia		
A02-0279																																																																																											WVU-Morgantown												Monongalia		
A02-0154 b	13546	OneStep RT-ddPCR	Human RNase P		37512					3/11/21	Manual	DQ		QX 200	CDC nCov-2 Triplex					SARS-CoV-2 N1				37512	SARS-CoV-2 N2				31284																																				CDC N1/N2/RP Triplex	0.005	Sample	Was A06-0017		100			PEG Precipitation	6					WWTP	Sample		0.2			Qiagen QiaAMP Viral Mini-RNA Kit	0.06					StarCityWWTP-01	EL	3/2/21 12:00	Composite	3/2/21 12:00	3/2/21 12:00	12.597		Pass				Monongalia	Rejected	Test
B01-0011	13679	OneStep RT-ddPCR	Human RNase P	12.04386592	12796.60754					9/29/21	Manual	DQ	58477037	QX 200	CDC nCov-2 Triplex	L6	AP0010	B06	JL	SARS-CoV-2 N1	0	0	1097.667847	0	SARS-CoV-2 N2	5.160901546	0	1200.682373	5483.457893																																				CDC N1/N2/RP Triplex	0.005	Sample		9/27/21	10	NT04474	Halcyon	Ceres Nanotrap	0.425		CP0017	C02	JL	WWTP	Sample	9/27/21	0.4	2105049	Halcyon	Thermo Magmax Microbiome Ultra Nucleic Acid Isolation Kit	0.05	L6	EP0017	B02	JL	CharlestonWWTP-01	KM	9/21/21 7:30	Composite	9/21/21 7:00	9/20/21 7:00			Pass	JL	9/24/21	6.9	Kanawha	Processing	Complete
H01-0058																																																																															WWTP												MoundsvilleWWTP-01												Marshall		
E02-0012	7984	OneStep RT-ddPCR	Human RNase P	5.89487969875336	10500.2544634044	None				2021-12-03	Manual	DQ	58477038	QX 200	CDC nCov-2 Triplex	I2	AP0023	G02	JL	SARS-CoV-2 N1	26.5385961532592	0	1030.21682739258	47271.8743979929	SARS-CoV-2 N2	32.440128326416	0	1109.43168640137	57783.9785814285																																					0.005			2021-11-30	10	NT04474	Halcyon	Ceres Nanotrap	0.475		CP0041	C06	AJ	WWTP		2021-11-30	0.4	2108255	Halcyon	Thermo Magmax Microbiome Ultra Nucleic Acid Isolation Kit	0.075	I2	EP0041	C02	AJ	AthensWWTP-01	-	11/19/2021 08:00 AM	Composite	11/19/2021 08:00 AM	11/18/2021 08:00 AM			Pass	AJ	11/30/2021	6.24	Mercer	Processing	Confirming
A02-0300																																																																																											WVU-Morgantown												Monongalia		
A02-0138	11324	OneStep RT-ddPCR	Human RNase P	5.97427547	6347.667687					10/5/21	Manual	DQ	58477037	QX One	CDC nCov-2 Triplex	D5	AP0011	E02	JL	SARS-CoV-2 N1	0	1355.395355	0	0	SARS-CoV-2 N2	3.982674778	1548.404388	0	4231.591951																																				CDC N1/N2/RP Triplex	0.005	Sample		10/1/21	10	NT04474	Halcyon	Ceres Nanotrap	0.425	D5	CP0019	C01	JL	WVU Morgantown	Sample	10/1/21	0.4	2108052	Halcyon	Thermo Magmax Microbiome Ultra Nucleic Acid Isolation Kit	0.05	D5	EP0019	B05	JL	CollegePark-02	EL	10/1/21 10:58	Composite	10/1/21 10:58	9/29/21 10:58			Pass	JL	10/1/21		Monongalia	Processing	Complete
G02-0007	10248	OneStep RT-ddPCR	Human RNase P	9.185793996	9759.906121	None				10/20/21	Manual	DQ	58477038	QX One	CDC nCov-2 Triplex	I8	AP0014	H05	JL	SARS-CoV-2 N1	6.889009476	0	2152.007294	7319.572568	SARS-CoV-2 N2	18.37517619	0	2493.552246	19523.6247																																				CDC N1/N2/RP Triplex	0.005	Sample		10/18/21	10	NT04474	Halcyon	Ceres Nanotrap	0.425		CP0026	D04	JL	WVU Keyser	Sample	10/18/21	0.4	2108255	Halcyon	Thermo Magmax Microbiome Ultra Nucleic Acid Isolation Kit	0.05	I8	EP0026	B08	JL	PotomacState-01	MH	10/8/21 10:50	Composite	10/8/21 10:40	10/7/21 10:40			Pass	JL	10/13/21	6.89	Mineral	Processing	Complete
A01-0009	17879	OneStep RT-ddPCR	Human RNase P	15.79773664	16785.09519					8/20/21	Manual	DQ	58477036	QX 200	CDC nCov-2 Triplex	H5	AP000000	A05	JL	SARS-CoV-2 N1	15.79773664	0	1047.2155	16785.09569	SARS-CoV-2 N2	27.65300512	0	1082.352142	29381.31845																																				CDC N1/N2/RP Triplex	0.005	Sample		8/20/21	10	NT04155	Kookaburra	Ceres Nanotrap	0.425	6.97	CP000000	A05	JL	WWTP	Sample	8/20/21	0.4	2102028	Kookaburra	Thermo Magmax Microbiome Ultra Nucleic Acid Isolation Kit	0.05	H5	EP000000	A05	JL	StarCityWWTP-01	GG	8/18/21 11:59	Composite	8/18/21 11:59	8/18/21 12:01	11.837		Pass	Jl	8/20/21	6.97	Monongalia	Processing	Complete
A0220	12903	OneStep RT-ddPCR	Human RNase P		0					2/22/21	Manual	DQ			CDC nCov-2 Triplex					SARS-CoV-2 N1				43776	SARS-CoV-2 N2				52536																																				CDC N1/N2/RP Triplex	0.005	Sample		2/5/21	100			PEG Precipitation	4				MS	WWTP	Sample	2/19/21	0.2			Qiagen QiaAMP Viral Mini-RNA Kit	0.06				MS	StarCityWWTP-01	GS	1/14/21 0:00	Composite	1/14/21 23:59	1/14/21 0:00	7.173		Pass	TD	1/15/21		Monongalia	Processing	Complete
J01-0039																																																																															WWTP												AlpineLakeWWTP-01												Preston		
H01-0072																																																																															WWTP												MoundsvilleWWTP-01												Marshall		
A02-0329																																																																																											WVU-Morgantown												Monongalia		
A02-0222	13039	OneStep RT-ddPCR	Human RNase P	295.9941864	314493.8231	None				11/22/21	Manual	DQ	58477038	QX 200	CDC nCov-2 Triplex	L6	AP0021	D06	JL	SARS-CoV-2 N1	1.804610342	1109.141006	0	1917.398488	SARS-CoV-2 N2	14.44075942	1229.36615	0	15343.30688																																					0.005	Sample		11/17/21	10	NT04474	Halcyon	Ceres Nanotrap	0.425		CP0037	D02	JL	WVU Morgantown	Sample	11/17/21	0.4	2108255	Halcyon	Thermo Magmax Microbiome Ultra Nucleic Acid Isolation Kit	0.05	L6	EP0037	B06	JL	OaklandE-02	CA	11/17/21 10:03	Composite	11/17/21 10:03	11/15/21 10:03			Pass	JL	11/17/21	8.92	Monongalia	Processing	Complete
L01-0010																																																																																											WestUnionWWTP-01												Doddridge		
K01-0044																																																																																											ParkersburgWWTP-01												Wood		
A01-0061	11182	OneStep RT-ddPCR	Human RNase P	44.2302084	46994.59642	None				10/20/21	Manual	DQ	58477038	QX One	CDC nCov-2 Triplex	I7	AP0014	G05	JL	SARS-CoV-2 N1	107.5607967	0	2152.007294	114283.3465	SARS-CoV-2 N2	141.4069462	0	2493.552246	150244.8803																																				CDC N1/N2/RP Triplex	0.005	Sample		10/18/21	10	NT04474	Halcyon	Ceres Nanotrap	0.425		CP0026	D03	JL	WWTP	Sample	10/18/21	0.4	2108255	Halcyon	Thermo Magmax Microbiome Ultra Nucleic Acid Isolation Kit	0.05	I7	EP0026	B07	JL	StarCityWWTP-01	GG	10/11/21 23:55	Composite	10/11/21 23:55	10/11/21 0:00	7.399		Pass	JL	10/13/21	6.96	Monongalia	Processing	Complete
A1041	13729	OneStep RT-ddPCR	Human RNase P		20580					5/7/21	Manual	DQ		QX 200	CDC nCov-2 Triplex					SARS-CoV-2 N1				10290	SARS-CoV-2 N2				5130																																				CDC N1/N2/RP Triplex	0.005	Sample	Reconc vol estimated	5/7/21	100			PEG Precipitation	5					WWTP	Sample		0.2			Qiagen QiaAMP Viral Mini-RNA Kit	0.06					StarCityWWTP-01	GG	5/2/21 23:55	Composite	5/2/21 23:55	5/2/21 0:00	11.991		Pass	Josh Lambert	5/7/21		Monongalia	Processing	Complete
A1059	16033	OneStep RT-ddPCR		147.22		BRSV		349647.5		7/7/21	Manual	DQ			BRSV Triplex					SARS-CoV-2 N1	1.47			3491.25	SARS-CoV-2 N2	2.94			6982.5																																				N1/N2/BRSV Triplex	0.005	Sample			10			Ceres Nanotrap	0.95	pH - 6.94				WWTP	Sample	7/7/21	0.4			Thermo Magmax Microbiome Ultra Nucleic Acid Isolation Kit	0.05				JL	StarCityWWTP-01	EL	6/4/21 23:55	Composite	5/30/21 23:55	5/30/21 0:00	8.082		Pass	JL	6/4/21	6.94	Monongalia	Processing	Complete
A03-0128																																																																															K-12												MorgantownHS-01	GZ	12/07/2021 10:40 AM	Composite	12/06/2021 02:00 PM	12/06/2021 06:00 AM							Monongalia		
A02-0206	11965	OneStep RT-ddPCR	Human RNase P	29.51630592	31361.07504	None				11/4/21	Manual	DQ	58477038	QX 200	CDC nCov-2 Triplex	K4	AP0016	F04	JL	SARS-CoV-2 N1	7.867395282	0	1040.980072	8359.107487	SARS-CoV-2 N2	5.900299549	0	1205.935364	6269.068271																																					0.005	Sample		11/3/21	10	NT04474	Halcyon	Ceres Nanotrap	0.425		CP0032	D02	JL	WVU Morgantown	Sample	11/3/21	0.4	21108255	Kookaburra	Thermo Magmax Microbiome Ultra Nucleic Acid Isolation Kit	0.05	K4	EP0032	B08	JL	NorthHighSt-02 (MUB)	CA	11/3/21 11:11	Composite	11/3/21 11:11	11/1/21 11:11			Pass	JL	11/3/21	7.12	Monongalia	Processing	Complete
A0235	14491	OneStep RT-ddPCR	Human RNase P		11688					3/11/21	Manual	DQ			CDC nCov-2 Triplex					SARS-CoV-2 N1				35088	SARS-CoV-2 N2				31176																																				CDC N1/N2/RP Triplex	0.005	Sample		2/22/21	100			PEG Precipitation	4				AT	WWTP	Sample	2/24/21	0.2			Qiagen QiaAMP Viral Mini-RNA Kit	0.06				AT	StarCityWWTP-01	GG	2/4/21 8:00	Composite	2/4/21 11:55	2/4/21 12:00	9.892		Pass	TD	2/11/21		Monongalia	Processing	Complete
A02-0124	11375	OneStep RT-ddPCR	Human RNase P	8.275533915	8792.754784					9/29/21	Manual	DQ	58477037	QX 200	CDC nCov-2 Triplex	K8	AP0010	A08	JL	SARS-CoV-2 N1	24.83533859	0	1097.667847	26387.54725	SARS-CoV-2 N2	20.69429398	0	1200.682373	21987.68735																																				CDC N1/N2/RP Triplex	0.005	Sample		9/27/21	10	NT04474	Halcyon	Ceres Nanotrap	0.425		CP0017	B02	JL	WVU Morgantown	Sample	9/27/21	0.4	2105049	Halcyon	Thermo Magmax Microbiome Ultra Nucleic Acid Isolation Kit	0.05	K8	EP0017	A08	JL	Evansdale-01	EL	9/24/21 9:27	Composite	9/24/21 9:27	9/22/21 9:27			Pass	JL	9/27/21	6.88	Monongalia	Processing	Complete
A1039	6779	OneStep RT-ddPCR	Human RNase P		20820					5/3/21	Manual	DQ		QX 200	CDC nCov-2 Triplex					SARS-CoV-2 N1				20820	SARS-CoV-2 N2				20820																																				CDC N1/N2/RP Triplex	0.005	Sample		4/30/21	100			PEG Precipitation	5				KED	WWTP	Sample	5/3/21	0.2			Qiagen QiaAMP Viral Mini-RNA Kit	0.06				KED	StarCityWWTP-01	EL	4/30/21 11:09	Composite	4/28/21 11:59	4/28/21 12:00	8.446		Pass	MVS	4/30/21		Monongalia	Processing	Complete
A03-0042	11157	OneStep RT-ddPCR	Human RNase P	-20	0	None				10/20/21	CHECK	DQ	58477038	QX One	CDC nCov-2 Triplex	H4	AP0014	D04	JL	SARS-CoV-2 N1	-20	0	2152.007294	0	SARS-CoV-2 N2	-20	0	2493.552246	0																																					0.005	Sample		10/18/21	10	NT04474	Halcyon	Ceres Nanotrap	0.425		CP0026	A04	JL	K-12	Sample	10/18/21	0.4	2108255	Halcyon	Thermo Magmax Microbiome Ultra Nucleic Acid Isolation Kit	0.05	H4	EP0026	A04	JL	MountainviewES-01	BL	10/14/21 10:35	Composite	10/11/21 14:00	10/11/21 6:00			Pass	JL	10/18/21		Monongalia	Processing	Complete
A02-0075	13958	OneStep RT-ddPCR	Human RNase P	1949.315796	2071148.033					9/3/21	Manual	DQ		QX One	BRSV Triplex	I7	AP000000	F04	JL	SARS-CoV-2 N1	7.796359062	0	3138.026123	8283.631504	SARS-CoV-2 N2	7.796359062	0	3336.080627	8283.631504																																				CDC N1/N2/RP Triplex	0.005	Sample		9/3/21	10	NT04155	Halcyon	Ceres Nanotrap	0.425		CP0008	B01	JL	WVU Morgantown	Sample	9/3/21	0.4	2102028	Halcyon	Thermo Magmax Microbiome Ultra Nucleic Acid Isolation Kit	0.05	I7	EP0008	A07	JL	OaklandE-02	EL	9/3/21 9:51	Grab	9/3/21 9:51	9/3/21 9:51			Pass	JL	9/3/21	8.39	Monongalia	Processing	Complete
A02-0091	16635	OneStep RT-ddPCR	Human RNase P	26.88995123	28570.57318					9/20/21	Manual	DQ	58477037	QX 200	CDC nCov-2 Triplex	A4	AP0008	A04	JL	SARS-CoV-2 N1	8.488243818	0	1320.22522	9018.759057	SARS-CoV-2 N2	14.14877415	0	1524.019623	15033.07253																																				CDC N1/N2/RP Triplex	0.005	Sample		9/13/21	10	NT04155	Halcyon	Ceres Nanotrap	0.425		CP0011	A04	JL	WVU Morgantown	Sample	9/13/21	0.4	2105033	Halcyon	Thermo Magmax Microbiome Ultra Nucleic Acid Isolation Kit	0.05	A4	EP0011	A04	JL	Evansdale-01	EL	9/10/21 9:09	Composite	9/10/21 9:09	9/8/21 9:09			Pass	JL	9/13/21	6.79	Monongalia	Processing	Complete
L01-0034																																																																																											WestUnionWWTP-01												Doddridge		
A02-0317																																																																																											WVU-Morgantown												Monongalia		
K01-0025																																																																																											ParkersburgWWTP-01												Wood		
A0047	17534	OneStep RT-ddPCR	Human RNase P		8844					2/22/21	Manual	DQ			CDC nCov-2 Triplex					SARS-CoV-2 N1				53163	SARS-CoV-2 N2				79761																																				CDC N1/N2/RP Triplex	0.005	Sample		1/3/21	100			PEG Precipitation	5.5				MS	WWTP	Sample	2/17/21	0.2			Qiagen QiaAMP Viral Mini-RNA Kit	0.06				MS	StarCityWWTP-01	GG	12/23/20 0:00	Composite	12/23/20 11:59	12/23/20 12:00	9.563 		Pass	TD	1/7/21		Monongalia	Processing	Complete
A02-0310																																																																																											WVU-Morgantown												Monongalia		
A02-0155 b	11235	OneStep RT-ddPCR	Human RNase P		50280					3/15/21	Manual	DQ		QX 200	CDC nCov-2 Triplex					SARS-CoV-2 N1				5016	SARS-CoV-2 N2				10056																																				CDC N1/N2/RP Triplex	0.005	Sample	Was A07-0012		100			PEG Precipitation	4					WWTP	Sample		0.2			Qiagen QiaAMP Viral Mini-RNA Kit	0.06					StarCityWWTP-01	EL	3/3/21 12:00	Composite	3/3/21 12:00	3/3/21 12:00	11.84		Pass				Monongalia	Rejected	Test
A03-0134																																																																																											MountainviewES-01												Monongalia		
F01-0020	15549	OneStep RT-ddPCR	Human RNase P	1.421480626	1510.323165					10/11/21	Manual	DQ	58477037	QX One	CDC nCov-2 Triplex	L5	AP0012	E05	JL	SARS-CoV-2 N1	76.89107418	0	1593.187866	81696.76632	SARS-CoV-2 N2	92.58691788	0	2077.493896	98373.60024																																				CDC N1/N2/RP Triplex	0.005	Sample		10/8/21	10	NT04474	Halcyon	Ceres Nanotrap	0.425		CP0022	C01	JL	WWTP	Sample	10/8/21	0.4	2108052	Halcyon	Thermo Magmax Microbiome Ultra Nucleic Acid Isolation Kit	0.05	L5	EP0022	B05	JL	WestonWWTP-01	BP	10/7/21 11:00	Composite	10/7/21 10:00	10/6/21 10:00			Pass	JL	10/8/21	7.05	Lewis	Processing	Complete
A02-0309																																																																																											WVU-Morgantown												Monongalia		
J01-0049																																																																															WWTP												AlpineLakeWWTP-01												Preston		
J01-0007																																																																															WWTP												AlpineLakeWWTP-01												Preston		
L01-0030																																																																																											WestUnionWWTP-01												Doddridge		
F01-0001	10798	OneStep RT-ddPCR	Human RNase P	0	0					9/29/21	Manual	DQ	58477037	QX 200	CDC nCov-2 Triplex	B1	AP0010	D01	JL	SARS-CoV-2 N1	15.25831461	0	1097.667847	16211.95927	SARS-CoV-2 N2	13.07795048	0	1200.682373	13895.32238																																				CDC N1/N2/RP Triplex	0.005	Sample	NO METADATA -- 9/23/21 WRITTEN ON LABEL	9/29/21	10	NT04474	Halcyon	Ceres Nanotrap	0.425		CP0018	A01	JL	WWTP	Sample	9/29/21	0.4	2105049	Halcyon	Thermo Magmax Microbiome Ultra Nucleic Acid Isolation Kit	0.05	B1	EP0018	A01	JL	WestonWWTP-01	--		Composite					Fail: Missing Required Data	JL	9/24/21	7.07	Lewis	Rejected	Rejected
A02-0070	13720	OneStep RT-ddPCR	Human RNase P	21.51545763	22860.17373					9/2/21	Manual	DQ		QX One	BRSV Triplex	G7	AP000000	G02	JL	SARS-CoV-2 N1	8.272762299	0	3138.026123	8789.809942	SARS-CoV-2 N2	4.963295758	0	3336.080627	5273.501743																																				CDC N1/N2/RP Triplex	0.005	Sample		9/2/21	10	 NT04155	Kookaburra	Ceres Nanotrap	0.425		CP0007	C03	JL	WVU Morgantown	Sample	9/2/21	0.4	2102028	Halcyon	Thermo Magmax Microbiome Ultra Nucleic Acid Isolation Kit	0.05	G7	EP0007	B03	JL	HonorsSummit-01 (MUB)	EL	9/1/21 10:19	Composite	9/1/21 10:04	8/30/21 10:04			Pass	JL	9/1/21	7.09	Monongalia	Processing	Complete
H01-0013	10905	OneStep RT-ddPCR	Human RNase P	2.157770842	2292.63152	None				10/20/21	Manual	DQ	58477038	QX One	CDC nCov-2 Triplex	F3	AP0014	C02	JL	SARS-CoV-2 N1	47.51672745	0	2152.007294	50486.52291	SARS-CoV-2 N2	4.315739572	0	2493.552246	4585.473295																																					0.005	Sample		10/15/21	10	NT04474	Halcyon	Ceres Nanotrap	0.425		CP0025	B05	JL	WWTP	Sample	10/15/21	0.4	2108255	Halcyon	Thermo Magmax Microbiome Ultra Nucleic Acid Isolation Kit	0.05	F3	EP0025	B05	JL	MoundsvilleWWTP-01	DRC	10/11/21 8:15	Composite	10/11/21 8:00	10/10/21 8:00			Pass	JL	10/15/21	7.07	Marshall	Processing	Complete
A02-0114	13490	OneStep RT-ddPCR	Human RNase P	12.21264958	12975.94018					9/20/21	Manual	DQ	58477037	QX 200	CDC nCov-2 Triplex	G5	AP0008	E05	JL	SARS-CoV-2 N1	141.7069817	0	1320.22522	150563.668	SARS-CoV-2 N2	129.4269562	0	1524.019623	137516.1409																																				CDC N1/N2/RP Triplex	0.005	Sample		9/17/21	10	NT04155	Halcyon	Ceres Nanotrap	0.425		CP0013	D01	JL	WVU Morgantown	Sample	9/17/21	0.4	2105033	Halcyon	Thermo Magmax Microbiome Ultra Nucleic Acid Isolation Kit	0.05	G5	EP0012	B01	JL	CollegePark-02	EL	9/17/21 10:57	Composite	9/17/21 10:57	9/15/21 10:57			Pass	JL	9/17/21	6.85	Monongalia	Processing	Complete
A03-0199																																																																																											SuncrestES-01												Monongalia		
A1022	10709	OneStep RT-ddPCR	Human RNase P		26370					4/12/21	Manual	DQ		QX 200	CDC nCov-2 Triplex					SARS-CoV-2 N1				105540	SARS-CoV-2 N2				112140																																				CDC N1/N2/RP Triplex	0.005	Sample		4/9/21	100			PEG Precipitation	5				MVS	WWTP	Sample	4/12/21	0.2			Qiagen QiaAMP Viral Mini-RNA Kit	0.06				MVS	StarCityWWTP-01	GG	4/5/21 11:55	Composite	4/5/21 11:55	4/5/21 12:00	8.768		Pass	Josh Lambert	4/9/21		Monongalia	Processing	Complete
I01-0007	16315	OneStep RT-ddPCR	Human RNase P	1.442239285	1532.37924	None				11/22/21	Manual	DQ	58477038	QX 200	CDC nCov-2 Triplex	I7	AP0021	A07	JL	SARS-CoV-2 N1	2.884566784	1109.141006	0	3064.852208	SARS-CoV-2 N2	4.326982796	1229.36615	0	4597.419221																																					0.005	Sample		11/16/21	10	NT04474	Kookaburra	Ceres Nanotrap	0.425		CP0036	B03	AJ	WWTP	Sample	11/16/21	0.4	2108255	Kookaburra	Thermo Magmax Microbiome Ultra Nucleic Acid Isolation Kit	0.05	I7	EP0036	A07	AJ	WarmSpringsWWTP-01	-	11/10/21 7:00	Composite	11/10/21 7:00	11/9/21 7:00			Pass	JL	11/12/21	6.71	Morgan	Processing	Complete
L01-0038																																																																																											WestUnionWWTP-01												Doddridge		
A02-0004 1K	16637	OneStep RT-ddPCR				BRSV	0	0		8/13/21	Manual	DQ		QX 200	BRSV Triplex	1k	AP000000	B04	JL	SARS-CoV-2 N1	62.31084824	0	2236.361694	66205.27625	SARS-CoV-2 N2	87.84928322	0	2276.707153	93339.86342																																				CDC N1/N2/RP Triplex	0.005	Sample		8/13/21	10	NT04155	Kookaburra	Ceres Nanotrap	0.425	Spike with 1K HI-SARS	CP000000	B06	JL		Sample	8/13/21	0.4	2102028	Kookaburra	Thermo Magmax Microbiome Ultra Nucleic Acid Isolation Kit	0.05	Spike with 1K HI-SARS	EP000000	B06	JL														Rejected	Test
A1028	8596	OneStep RT-ddPCR	Human RNase P		39408					4/19/21	Manual	DQ		QX 200	CDC nCov-2 Triplex					SARS-CoV-2 N1				13152	SARS-CoV-2 N2				26304																																				CDC N1/N2/RP Triplex	0.005	Sample		4/16/21	100			PEG Precipitation	8				JL	WWTP	Sample	4/19/21	0.2			Qiagen QiaAMP Viral Mini-RNA Kit	0.06				JL	StarCityWWTP-01	EL	4/13/21 12:00	Composite	4/14/21 12:00	4/13/21 12:00	10.693		Pass	MVS	4/16/21		Monongalia	Processing	Complete
A03-0058	14842	OneStep RT-ddPCR	Human RNase P	3.170866072	3369.045202	None				11/8/21	Manual	DQ	58477038	QX 200	CDC nCov-2 Triplex	B5	AP0017	B05	AJ	SARS-CoV-2 N1	0	0	560.2787018	0	SARS-CoV-2 N2	1.58537969	0	653.7683868	1684.465921																																					0.005	Sample		11/5/21	10	NT04474	Kookaburra	Ceres Nanotrap	0.425		CP00033	C01	JL	K-12	Sample	11/5/21	0.4	21108255	Kookaburra	Thermo Magmax Microbiome Ultra Nucleic Acid Isolation Kit	0.05	B5	EP0033	B05	JL	MorgantownHS-01	BL	10/28/21 13:30	Composite	10/27/21 14:00	10/27/21 6:00			Pass	JL	11/1/21	7.48	Monongalia	Processing	Complete
A0021	14612	OneStep RT-ddPCR	Human RNase P		88968					11/20/20	Manual	DQ			CDC nCov-2 Triplex					SARS-CoV-2 N1				19320	SARS-CoV-2 N2				19320																																				CDC N1/N2/RP Triplex	0.005	Sample		11/19/20	100			PEG Precipitation	4				MS	WWTP	Sample	11/20/20	0.2			Qiagen QiaAMP Viral Mini-RNA Kit	0.06				MS	StarCityWWTP-01	GG	11/18/20 0:00	Composite	11/18/20 23:59	11/18/20 0:00	6.705		Pass	TD	11/19/20		Monongalia	Processing	Complete
I01-0003	15401	OneStep RT-ddPCR	Human RNase P	3.055767715	3246.753197	None				11/4/21	Manual	DQ	58477038	QX 200	CDC nCov-2 Triplex	K1	AP0016	F01	JL	SARS-CoV-2 N1	99.51615334	0	1040.980072	105735.9129	SARS-CoV-2 N2	96.4478302	0	1205.935364	102475.8196																																					0.005	Sample		11/3/21	10	NT04474	Halcyon	Ceres Nanotrap	0.425		CP0032	C05	JL	WWTP	Sample	11/3/21	0.4	21108255	Kookaburra	Thermo Magmax Microbiome Ultra Nucleic Acid Isolation Kit	0.05	K1	EP0032	B05	JL	WarmSpringsWWTP-01	-	10/28/21 12:10	Composite	10/28/21 7:00	10/27/21 7:00			Pass	JL	10/29/21	6.91	Morgan	Processing	Complete
A01-0052	15426	OneStep RT-ddPCR	Human RNase P	86.28489494	91677.70088					10/11/21	Manual	DQ	58477037	QX One	CDC nCov-2 Triplex	F7	AP0012	G01	JL	SARS-CoV-2 N1	184.2996788	0	1593.187866	195818.4087	SARS-CoV-2 N2	274.1783714	0	2077.493896	291314.5196																																				CDC N1/N2/RP Triplex	0.005	Sample		10/5/21	10	NT04474	Halcyon	Ceres Nanotrap	0.425		CP0020	B01	JL	WWTP	Sample	10/5/21	0.4	2108052	Halcyon	Thermo Magmax Microbiome Ultra Nucleic Acid Isolation Kit	0.05	F7	EP0020	A07	JL	StarCityWWTP-01	JF	10/1/21 9:05	Composite	9/30/21 23:55	9/30/21 0:00	7.101		Pass	JL	10/5/21	7.44	Monongalia	Processing	Complete
G01-0027	16435	OneStep RT-ddPCR	Human RNase P	21.48477793	22827.57655	None				11/22/21	Manual	DQ	58477038	QX 200	CDC nCov-2 Triplex	L1	AP0021	D01	JL	SARS-CoV-2 N1	28.65073442	1109.141006	0	30441.40533	SARS-CoV-2 N2	30.08418798	1229.36615	0	31964.44973																																					0.005	Sample		11/17/21	10	NT04474	Halcyon	Ceres Nanotrap	0.425		CP0037	C01	JL	WWTP	Sample	11/17/21	0.4	2108255	Halcyon	Thermo Magmax Microbiome Ultra Nucleic Acid Isolation Kit	0.05	L1	EP0037	B01	JL	KeyserWWTP-01	-	11/15/21 14:00	Composite	11/15/21 8:00	11/14/21 9:00			Pass	JL	11/16/21	7.03	Mineral	Processing	Complete
B01-0021	22071	OneStep RT-ddPCR	Human RNase P	5.811148882	6174.345687					10/14/21	Manual	DQ	58477038	QX One	CDC nCov-2 Triplex	D6	AP0013	F03	JL	SARS-CoV-2 N1	31.97436094	0	1707.766876	33972.7585	SARS-CoV-2 N2	39.24570799	0	1836.244965	41698.56474																																				CDC N1/N2/RP Triplex	0.005	Sample		10/13/21	10	NT04474	Halcyon	Ceres Nanotrap	0.425		CP0024	D02	JL	WWTP	Sample	10/13/21	0.4	2108255	Halcyon	Thermo Magmax Microbiome Ultra Nucleic Acid Isolation Kit	0.05	D6	EP0024	B06	JL	CharlestonWWTP-01	KM	10/11/21 7:30	Composite	10/11/21 7:00	10/10/21 7:00			Pass	JL	10/13/21	6.91	Kanawha	Processing	Complete
E01-0001	14999	OneStep RT-ddPCR	Human RNase P	9.414275289	10002.66749	None				11/4/21	Manual	DQ	58477038	QX 200	CDC nCov-2 Triplex	H7	AP0016	C07	JL	SARS-CoV-2 N1	28.25413227	0	1040.980072	30020.01554	SARS-CoV-2 N2	7.844967842	0	1205.935364	8335.278332																																					0.005	Sample		11/2/21	10	NT04474	Kookaburra	Ceres Nanotrap	0.425		CP0031	C06	JL	WWTP	Sample	11/2/21	0.4	21108255	Kookaburra	Thermo Magmax Microbiome Ultra Nucleic Acid Isolation Kit	0.05	H7	EP0031	C07	JL	PrincetonWWTP-01	TT	10/27/21 7:50	Composite	10/27/21 8:00	10/26/21 8:00			Pass	JL	10/29/21	7.05	Mercer	Processing	Complete
C01-0025		OneStep RT-ddPCR	Human RNase P			None				11/1/21	CHECK	ABS	58477038	QX 200	CDC nCov-2 Triplex	D7	AP0015	D07	JL	SARS-CoV-2 N1					SARS-CoV-2 N2																																									0.005	Sample		10/27/21	10	NT04474	Kookaburra	Ceres Nanotrap	0.425		CP0029	B03	JL	WWTP	Sample	10/27/21	0.4	2108255	Halcyon	Thermo Magmax Microbiome Ultra Nucleic Acid Isolation Kit	0.05	D7	EP0029	A07	JL	WheelingWWTP-01	OR	10/18/21 7:00	Composite	10/18/21 7:00	10/17/21 7:00			Pass	JL	10/27/21	6.89	Ohio	Processing	Processing
A02-0052	10820	OneStep RT-ddPCR	Human RNase P	43.36616039	46076.54542					8/27/21	Manual	DQ	58477036	QX One	CDC nCov-2 Triplex	C5	AP0005	E02	JL	SARS-CoV-2 N1	5.778679848	0	2615.09491	6139.847338	SARS-CoV-2 N2	0	0	2786.116028	0																																				CDC N1/N2/RP Triplex	0.005	Sample		8/27/21	10	NT04155	Kookaburra	Ceres Nanotrap	0.425		CP0005	C01	JL	WVU Morgantown	Sample	8/27/21	0.4	2102028	Kookaburra	Thermo Magmax Microbiome Ultra Nucleic Acid Isolation Kit	0.05	C5	EP0005	B01	JL	OaklandE-02	EL	8/27/21 9:55	Composite	8/27/21 9:25	8/23/21 9:25			Pass	JL	8/27/21	8.03	Monongalia	Processing	Complete
B01-0063	15587	OneStep RT-ddPCR	Human RNase P	1.509601921	1603.952041	None				11/29/21	Manual	DQ	58477038	QX 200	CDC nCov-2 Triplex	NAB_15 B7	AP0022	F07	JL	SARS-CoV-2 N1	1.509601921	0	1092.976303	1603.952041	SARS-CoV-2 N2	1.509601921	0	1279.930573	1603.952041																																				CDC N1/N2/RP Triplex	0.005	Sample		11/16/21	10	NT04474	Kookaburra	Ceres Nanotrap	0.425		CP0036	D03	AJ	WWTP	Sample	11/16/21	0.4	2108255	Kookaburra	Thermo Magmax Microbiome Ultra Nucleic Acid Isolation Kit	0.05	J7	EP0036	B07	AJ	CharlestonWWTP-01	-	11/9/21 7:00	Composite	11/9/21 7:00	11/8/21 7:00			Pass	JL	11/15/21	7.06	Kanawha	Processing	Complete
L01-0013																																																																																											WestUnionWWTP-01												Doddridge		
C01-0022		OneStep RT-ddPCR	Human RNase P			None				11/1/21	CHECK	ABS	58477038	QX 200	CDC nCov-2 Triplex	E2	AP0015	G02	JL	SARS-CoV-2 N1					SARS-CoV-2 N2																																									0.005	Sample		10/27/21	10	NT04474	Kookaburra	Ceres Nanotrap	0.425		CP0029	C02	JL	WWTP	Sample	10/27/21	0.4	2108255	Halcyon	Thermo Magmax Microbiome Ultra Nucleic Acid Isolation Kit	0.05	E2	EP0029	B02	JL	WheelingWWTP-01	OR	10/21/21 7:00	Composite	10/21/21 7:00	10/20/21 7:00			Pass	JL	10/27/21	6.55	Ohio	Processing	Processing
A02-0168	18118	OneStep RT-ddPCR	Human RNase P	29.14935827	30971.19316					10/14/21	Manual	DQ	58477038	QX One	CDC nCov-2 Triplex	D2	AP0013	B03	JL	SARS-CoV-2 N1	30.68438053	0	1707.766876	32602.15431	SARS-CoV-2 N2	35.28995991	0	1836.244965	37495.5824																																				CDC N1/N2/RP Triplex	0.005	Sample		10/13/21	10	NT04474	Halcyon	Ceres Nanotrap	0.425		CP0024	C02	JL	WVU Morgantown	Sample	10/13/21	0.4	2108255	Halcyon	Thermo Magmax Microbiome Ultra Nucleic Acid Isolation Kit	0.05	D2	EP0024	B02	JL	NorthHighSt-02 (MUB)	EL	10/13/21 10:10	Composite	10/13/21 10:10	10/11/21 10:10			Pass	JL	10/13/21	7.75	Monongalia	Processing	Complete
A01-0095	14578	OneStep RT-ddPCR	Human RNase P	14.5308065414429	25882.9991519451	None				2021-12-03	Manual	DQ	58477038	QX 200	CDC nCov-2 Triplex	G7	AP0023	C07	JL	SARS-CoV-2 N1	85.6997680664062	0	1030.21682739258	152652.711868286	SARS-CoV-2 N2	38.76877784729	0	1109.43168640137	69056.8855404853																																					0.005			2021-11-30	10	NT04474	Halcyon	Ceres Nanotrap	0.475		CP0041	B01	AJ	WWTP		2021-11-30	0.4	2108255	Halcyon	Thermo Magmax Microbiome Ultra Nucleic Acid Isolation Kit	0.075	G7	EP0041	A07	AJ	StarCityWWTP-01	-	11/22/2021 12:00 AM	Composite	11/22/2021 12:00 AM	11/21/2021 12:00 AM			Pass	AJ	11/30/2021	6.81	Monongalia	Processing	Complete
L01-0019																																																																																											WestUnionWWTP-01												Doddridge		
I01-0046																																																																															WWTP												WarmSpringsWWTP-01	-	11/30/2021 07:15 AM	Composite	11/30/2021 07:00 AM	11/29/2021 07:00 AM			Pass	AJ	12/03/2021	7.23	Morgan		
G01-0019																																																																															WWTP												KeyserWWTP-01	TD	11/28/2021 08:30 AM	Composite	11/28/2021 08:00 AM	11/27/2021 09:00 AM			Pass	AJ	12/02/2021	7.31	Mineral		
A02-0152 b	11323	OneStep RT-ddPCR	Human RNase P		7488					3/11/21	Manual	DQ		QX 200	CDC nCov-2 Triplex					SARS-CoV-2 N1				89820	SARS-CoV-2 N2				52380																																				CDC N1/N2/RP Triplex	0.005	Sample	Was A05-0004		100			PEG Precipitation	6					WWTP	Sample		0.2			Qiagen QiaAMP Viral Mini-RNA Kit	0.06					StarCityWWTP-01	EL	2/28/21 12:00	Composite	2/28/21 12:00	2/28/21 12:00	11.938		Pass				Monongalia	Rejected	Test
A02-0153 c	13221	OneStep RT-ddPCR	Human RNase P		21360					3/11/21	Manual	DQ		QX 200	CDC nCov-2 Triplex					SARS-CoV-2 N1				34176	SARS-CoV-2 N2				29904																																				CDC N1/N2/RP Triplex	0.005	Sample	Was A06-0005		100			PEG Precipitation	4					WWTP	Sample		0.2			Qiagen QiaAMP Viral Mini-RNA Kit	0.06					StarCityWWTP-01	EL	2/22/21 12:00	Composite	2/22/21 12:00	2/22/21 12:00	11.47		Pass				Monongalia	Rejected	Test
A02-0286																																																																																											WVU-Morgantown												Monongalia		
H01-0050																																																																															WWTP												MoundsvilleWWTP-01	-	11/25/2021 08:15 AM	Composite	11/25/2021 08:00 AM	11/24/2021 08:00 AM			Pass	AJ	12/03/2021	6.69	Marshall		
H01-0014	14227	OneStep RT-ddPCR	Human RNase P	3.307944834	3514.691386	None				10/20/21	Manual	DQ	58477038	QX One	CDC nCov-2 Triplex	F4	AP0014	D02	JL	SARS-CoV-2 N1	16.54437661	0	2152.007294	17578.40015	SARS-CoV-2 N2	4.962091744	0	2493.552246	5272.222478																																					0.005	Sample		10/15/21	10	NT04474	Halcyon	Ceres Nanotrap	0.425		CP0025	B06	JL	WWTP	Sample	10/15/21	0.4	2108255	Halcyon	Thermo Magmax Microbiome Ultra Nucleic Acid Isolation Kit	0.05	F4	EP0025	B06	JL	MoundsvilleWWTP-01	DRC	10/12/21 8:15	Composite	10/12/21 8:00	10/11/21 8:00			Pass	JL	10/15/21	7.08	Marshall	Processing	Complete
H01-0092																																																																															WWTP												MoundsvilleWWTP-01												Marshall		
A03-0004	19229	OneStep RT-ddPCR	Human RNase P	14.32316542	15218.36326					10/5/21	Manual	DQ	58477037	QX One	CDC nCov-2 Triplex	NAB_10 F1	AP0011	A04	JL	SARS-CoV-2 N1	0	1355.395355	0	0	SARS-CoV-2 N2	1.591131687	1548.404388	0	1690.577418																																				CDC N1/N2/RP Triplex	0.005	Sample		9/17/21	10	NT04155	Halcyon	Ceres Nanotrap	0.425		CP0013	A01	JL	K-12	Sample	9/17/21	0.4	2105033	Halcyon	Thermo Magmax Microbiome Ultra Nucleic Acid Isolation Kit	0.05	F1	EP0012	A01	JL	NorthES-01	TD	9/16/21 18:00	Composite	9/15/21 14:00	9/15/21 6:00			Pass	TD	9/16/21	7.24	Monongalia	Processing	Complete
A03-0072	16059	OneStep RT-ddPCR	Human RNase P	2.930553257	3113.712836	None				11/29/21	Manual	DQ	58477038	QX 200	CDC nCov-2 Triplex	C5	AP0022	E05	JL	SARS-CoV-2 N1	14.65641737	0	1092.976303	15572.44346	SARS-CoV-2 N2	7.327067256	0	1279.930573	7785.008959																																					0.005	Sample		2021-11-15	10	NT04474	Halcyon	Ceres Nanotrap	0.425		CP0035	A05	LW	K-12	Sample	2021-11-15	0.4	2108255	Halcyon	Ultra 2.0 Microbiome (Thermo)	0.05	C5	EP0035	A05	JL	NorthES-01	BL	11/5/21 14:05	Composite	11/5/21 14:00	11/5/21 6:00			Pass	JL	11/10/21		Monongalia	Processing	Complete
L01-0004																																																																																											WestUnionWWTP-01												Doddridge		
A03-0179																																																																																											SuncrestES-01												Monongalia		
J01-0028																																																																															WWTP												AlpineLakeWWTP-01												Preston		
G02-0003		OneStep RT-ddPCR	Human RNase P			None				11/1/21	CHECK	ABS	58477038	QX 200	CDC nCov-2 Triplex	D2	AP0015	D02	JL	SARS-CoV-2 N1					SARS-CoV-2 N2																																									0.005	Sample		10/27/21	10	NT04474	Kookaburra	Ceres Nanotrap	0.425		CP0029	A02	JL	WVU Keyser	Sample	10/27/21	0.4	2108255	Halcyon	Thermo Magmax Microbiome Ultra Nucleic Acid Isolation Kit	0.05	D2	EP0029	A02	JL	PotomacState-01	SC	10/14/21 9:30	Grab	10/14/21 9:30	10/14/21 9:30			Pass	JL	10/27/21	6.96	Mineral	Processing	Confirming
A0218	16501	OneStep RT-ddPCR	Human RNase P		0					2/22/21	Manual	DQ			CDC nCov-2 Triplex					SARS-CoV-2 N1				41088	SARS-CoV-2 N2				61632																																				CDC N1/N2/RP Triplex	0.005	Sample		2/5/21	100			PEG Precipitation	4				MS	WWTP	Sample	2/17/21	0.2			Qiagen QiaAMP Viral Mini-RNA Kit	0.06				MS	StarCityWWTP-01	GS	1/12/21 0:00	Composite	1/12/21 23:59	1/12/21 0:00	7.288		Pass	TD	1/15/21		Monongalia	Processing	Complete
A1095	11895	OneStep RT-ddPCR		85.21		BRSV		202373.75		7/30/21	Manual	DQ			BRSV Triplex					SARS-CoV-2 N1	1.98			4702.5	SARS-CoV-2 N2	0			0																																				N1/N2/BRSV Triplex	0.005	Sample		7/30/21	10			Ceres Nanotrap	0.95					WWTP	Sample	7/30/21	0.4			Thermo Magmax Microbiome Ultra Nucleic Acid Isolation Kit	0.05				JL	StarCityWWTP-01	EL	7/19/21 23:55	Composite	7/19/21 23:55	7/19/21 0:00	7.303		Pass	JL	7/30/21		Monongalia	Processing	Complete
J01-0024																																																																															WWTP												AlpineLakeWWTP-01												Preston		
A03-0181																																																																																											NorthES-01												Monongalia		
A03-0108		OneStep RT-ddPCR	Human RNase P			None				11/1/21	OK	ABS	58477038	QX 200	CDC nCov-2 Triplex	B3	AP0015	F03	JL	SARS-CoV-2 N1					SARS-CoV-2 N2																																									0.005	Sample		10/28/21	10	NT04474	Halcyon	Ceres Nanotrap	0.425		CP0030	B05	JL	K-12	Sample	10/28/21	0.4	2108255	Halcyon	Thermo Magmax Microbiome Ultra Nucleic Acid Isolation Kit	0.05	B3	EP0030	B03	JL	SuncrestES-01	BL	10/15/21 15:30	Composite	10/15/21 14:00	10/15/21 6:00			Pass	JL	10/22/21		Monongalia	Processing	Processing
A0217	15849	OneStep RT-ddPCR	Human RNase P		4440					2/22/21	Manual	DQ			CDC nCov-2 Triplex					SARS-CoV-2 N1				129270	SARS-CoV-2 N2				142680																																				CDC N1/N2/RP Triplex	0.005	Sample		2/5/21	100			PEG Precipitation	5				MS	WWTP	Sample	2/17/21	0.2			Qiagen QiaAMP Viral Mini-RNA Kit	0.06				MS	StarCityWWTP-01	GS	1/11/21 0:00	Composite	1/11/21 23:59	1/11/21 0:00	7.54		Pass	TD	1/15/21		Monongalia	Processing	Complete
H01-0100																																																																															WWTP												MoundsvilleWWTP-01												Marshall		
A02-0260																																																																																											WVU-Morgantown												Monongalia		
A02-0228	12305	OneStep RT-ddPCR	Human RNase P	11.47589564	20441.43911	None				11/29/21	Manual	DQ	58477038	QX 200	CDC nCov-2 Triplex	A6	AP0022	B03	JL	SARS-CoV-2 N1	0	0	1092.976303	0	SARS-CoV-2 N2	3.824676871	0	1279.930573	6812.705677																																					0.005	Sample		2021-11-19	10	NT04474	Halcyon	Ceres Nanotrap	0.475		CP0038	C03	AJ	WVU Morgantown	Sample	2021-11-19	0.4	2108255	Halcyon	Ultra 2.0 Microbiome (Thermo)	0.075	A6	EP0038	B03	AJ	HonorsSummit-01 (MUB)	EL	11/19/21 11:01	Composite	11/19/21 10:01	11/17/21 10:00						7.4	Monongalia	Processing	Complete
F01-0023	17257	OneStep RT-ddPCR	Human RNase P	6.8	7225					11/18/21	Manual	DQ	58477038	QX 200	CDC nCov-2 Triplex	G8	AP0020	D08	JL	SARS-CoV-2 N1	16.4	0	1193.4	17425	SARS-CoV-2 N2	9.6	0	1245	10200																																					0.005	Sample		11/12/21	10	NT04474	Kookaburra	Ceres Nanotrap	0.425		CP0035	B04	AJ	WWTP	Sample	11/12/21	0.4	2108255	Kookaburra	Thermo Magmax Microbiome Ultra Nucleic Acid Isolation Kit	0.05	G8	EP0035	A08	AJ	WestonWWTP-01	BP	11/9/21 10:30	Composite	11/9/21 10:00	11/8/21 10:00			Pass	AJ	11/11/21	7	Lewis	Processing	Complete
A1032	10235	OneStep RT-ddPCR	Human RNase P		0					4/26/21	Manual	DQ		QX 200	CDC nCov-2 Triplex					SARS-CoV-2 N1				19320	SARS-CoV-2 N2				9660																																				CDC N1/N2/RP Triplex	0.005	Sample		4/23/21	100			PEG Precipitation	7				MVS	WWTP	Sample	4/26/21	0.2			Qiagen QiaAMP Viral Mini-RNA Kit	0.06				MVS	StarCityWWTP-01	EL	4/23/21 10:56	Composite	4/19/21 11:59	4/19/21 12:00	8.689		Pass	MVS	4/23/21		Monongalia	Processing	Complete
J01-0023																																																																															WWTP												AlpineLakeWWTP-01												Preston		
A01-0045	15418	OneStep RT-ddPCR	Human RNase P	32.14008331	34148.83852					10/5/21	Manual	DQ	58477037	QX One	CDC nCov-2 Triplex	C8	AP0011	H01	JL	SARS-CoV-2 N1	1011.184082	1355.395355	0	1074383.087	SARS-CoV-2 N2	1037.693405	1548.404388	0	1102549.243																																				CDC N1/N2/RP Triplex	0.005	Sample		10/1/21	10	NT04474	Halcyon	Ceres Nanotrap	0.425	C8	CP0019	B02	JL	WWTP	Sample	10/1/21	0.4	2108052	Halcyon	Thermo Magmax Microbiome Ultra Nucleic Acid Isolation Kit	0.05	C8	EP0019	A08	JL	StarCityWWTP-01	JF	9/29/21 13:05	Composite	9/28/21 23:55	9/28/21 0:00	9.301		Pass	JL	10/1/21		Monongalia	Processing	Complete
A1044	14661	OneStep RT-ddPCR	Human RNase P		19260					5/7/21	Manual	DQ		QX 200	CDC nCov-2 Triplex					SARS-CoV-2 N1				4800	SARS-CoV-2 N2				4800																																				CDC N1/N2/RP Triplex	0.005	Sample	Reconc vol estimated	5/7/21	100			PEG Precipitation	5					WWTP	Sample		0.2			Qiagen QiaAMP Viral Mini-RNA Kit	0.06					StarCityWWTP-01	GG	5/5/21 23:55	Composite	5/5/21 23:55	5/5/21 0:00	12.711		Pass	Josh Lambert	5/7/21		Monongalia	Processing	Complete
A03-0161																																																																																											NorthES-01												Monongalia		
A01-0072		OneStep RT-ddPCR	Human RNase P			None				11/1/21	CHECK	ABS	58477038	QX 200	CDC nCov-2 Triplex	E5	AP0015	G05	JL	SARS-CoV-2 N1					SARS-CoV-2 N2																																									0.005	Sample		10/27/21	10	NT04474	Kookaburra	Ceres Nanotrap	0.425		CP0029	C05	JL	WWTP	Sample	10/27/21	0.4	2108255	Halcyon	Thermo Magmax Microbiome Ultra Nucleic Acid Isolation Kit	0.05	E5	EP0029	B05	JL	StarCityWWTP-01	GG	10/25/21 23:55	Composite	10/25/21 23:55	10/25/21 0:00	7.970 		Pass	JL	10/27/21	7.05	Monongalia	Processing	Processing
A01-0013	12800	OneStep RT-ddPCR	Human RNase P	10.60049534	11263.0263					9/2/21	Manual	DQ		QX One	BRSV Triplex	F2	AP000000	B01	JL	SARS-CoV-2 N1	22.9740262	0	3138.026123	24409.90284	SARS-CoV-2 N2	21.20596409	0	3336.080627	22531.33684																																				CDC N1/N2/RP Triplex	0.005	Sample		9/2/21	10	 NT04155	Kookaburra	Ceres Nanotrap	0.425		CP0007	A02	JL	WWTP	Sample	9/2/21	0.4	2102028	Halcyon	Thermo Magmax Microbiome Ultra Nucleic Acid Isolation Kit	0.05	F2	EP0007	A02	JL	StarCityWWTP-01	JL	8/23/21 23:59	Composite	8/23/21 23:59	8/23/21 0:00	9.509		Pass	JL	8/24/21	6.99	Monongalia	Processing	Complete
G01-0003	17930	OneStep RT-ddPCR	Human RNase P	17.73581624	18844.30476					10/14/21	Manual	DQ	58477038	QX One	CDC nCov-2 Triplex	B2	AP0013	B01	JL	SARS-CoV-2 N1	487.7756119	0	1707.766876	518261.5876	SARS-CoV-2 N2	522.0035934	0	1836.244965	554628.818																																				CDC N1/N2/RP Triplex	0.005	Sample		10/11/21	10	NT04474	Halcyon	Ceres Nanotrap	0.425		CP0023	A02	JL	WWTP	Sample	10/11/21	0.4	2108255	Halcyon	Thermo Magmax Microbiome Ultra Nucleic Acid Isolation Kit	0.05	B2	EP0023	A02	JL	KeyserWWTP-01	ML	10/7/21 8:30	Composite	10/7/21 8:00	10/6/21 9:00			Pass	JL	10/8/21	6.39	Mineral	Processing	Complete
A02-0348																																																																																											WVU-Morgantown												Monongalia		
A03-0079	14980	OneStep RT-ddPCR	Human RNase P	18.85621428	20034.72768	None				11/29/21	Manual	DQ	58477038	QX 200	CDC nCov-2 Triplex	C6	AP0022	E06	JL	SARS-CoV-2 N1	0	0	1092.976303	0	SARS-CoV-2 N2	0	0	1279.930573	0																																					0.005	Sample		2021-11-15	10	NT04474	Halcyon	Ceres Nanotrap	0.425		CP0035	A06	LW	K-12	Sample	2021-11-15	0.4	2108255	Halcyon	Ultra 2.0 Microbiome (Thermo)	0.05	C6	EP0035	A06	JL	MountainviewES-01	BL	11/5/21 13:45	Composite	11/5/21 13:45	11/5/21 6:00			Pass	JL	11/10/21		Monongalia	Processing	Complete
L01-0050																																																																																											WestUnionWWTP-01												Doddridge		
K01-0048																																																																																											ParkersburgWWTP-01												Wood		
A03-0185																																																																																											NorthES-01												Monongalia		
A02-0303																																																																																											WVU-Morgantown												Monongalia		
A02-0035	16385	OneStep RT-ddPCR	Human RNase P	23.59385252	25068.4683					8/25/21	CHECK	DQ	58477036	QX One	CDC nCov-2 Triplex	L1	AP0004	A02	JL	SARS-CoV-2 N1	47.20788956	-20	2835.271912	50158.38265	SARS-CoV-2 N2	37.08511591	-20	3151.898499	39402.93565																																				CDC N1/N2/RP Triplex	0.005	Sample		8/25/21	10	NT04155	Kookaburra	Ceres Nanotrap	0.425		CP0004	A01	JL	WVU Morgantown	Sample	8/25/21	0.4	2102028	Kookaburra	Thermo Magmax Microbiome Ultra Nucleic Acid Isolation Kit	0.05	L1	EP0004	A01	JL	Evansdale-01	EL	8/25/21 9:12	Composite	8/25/21 9:16	8/23/21 9:16			Pass	JL	8/25/21	6.55	Monongalia	Processing	Complete
A02-0200	16432	OneStep RT-ddPCR	Human RNase P	0	0	None				11/4/21	Manual	DQ	58477038	QX 200	CDC nCov-2 Triplex	G6	AP0016	B06	JL	SARS-CoV-2 N1	0	0	1040.980072	0	SARS-CoV-2 N2	0	0	1205.935364	0																																					0.005	Sample		11/2/21	10	NT04474	Kookaburra	Ceres Nanotrap	0.425		CP0031	B04	JL	WVU Morgantown	Sample	11/2/21	0.4	21108255	Kookaburra	Thermo Magmax Microbiome Ultra Nucleic Acid Isolation Kit	0.05	G6	EP0031	B06	JL	Evansdale-01	EL	11/1/21 9:32	Composite	11/1/21 9:00	10/30/21 9:00			Pass	JL	11/1/21	6.87	Monongalia	Processing	Complete
A03-0017	20164	OneStep RT-ddPCR	Human RNase P	0	0					10/11/21	Manual	DQ	58477037	QX One	CDC nCov-2 Triplex	H7	AP0012	G02	JL	SARS-CoV-2 N1	0	0	1593.187866	0	SARS-CoV-2 N2	3.177180886	0	2077.493896	3375.754692																																				CDC N1/N2/RP Triplex	0.005	Sample		10/7/21	10	NT04474	Halcyon	Ceres Nanotrap	0.425		CP0021	B03	JL	K-12	Sample	10/7/21	0.4	2108052	Halcyon	Thermo Magmax Microbiome Ultra Nucleic Acid Isolation Kit	0.05	H7	EP0021	A07	JL	UniversityHS-01	BL	9/30/21 11:45	Composite	9/29/21 14:00	9/29/21 6:00			Pass	JL	10/6/21	8.29	Monongalia	Processing	Complete
A02-0305																																																																																											WVU-Morgantown												Monongalia		
H01-0027	11870	OneStep RT-ddPCR	Human RNase P	4	4250	None				11/17/21	Manual	DQ	58477038	QX 200	CDC nCov-2 Triplex	J7	AP0019	A06	JL	SARS-CoV-2 N1	8	0	1166.6	8500	SARS-CoV-2 N2	13.8	0	1342.8	14662.5																																					0.005	Sample		11/3/21	10	NT04474	Halcyon	Ceres Nanotrap	0.425		CP0032	C03	JL	WWTP	Sample	11/3/21	0.4	21108255	Kookaburra	Thermo Magmax Microbiome Ultra Nucleic Acid Isolation Kit	0.05	J7	EP0032	B03	JL	MoundsvilleWWTP-01	DRC	10/28/21 8:15	Composite	11/28/21 8:00	10/27/21 8:00			Pass	JL	10/29/21	7.04	Marshall	Processing	Complete
H01-0068																																																																															WWTP												MoundsvilleWWTP-01												Marshall		
B01-0024		OneStep RT-ddPCR	Human RNase P			None				11/1/21	CHECK	ABS	58477038	QX 200	CDC nCov-2 Triplex	B6	AP0015	B06	JL	SARS-CoV-2 N1					SARS-CoV-2 N2																																									0.005	Sample		10/25/21	10	NT04474	Halcyon	Ceres Nanotrap	0.425		CP0028	C02	JL	WWTP	Sample	10/25/21	0.4	2108255	Halcyon	Thermo Magmax Microbiome Ultra Nucleic Acid Isolation Kit	0.05	B6	EP0028	B06	JL	CharlestonWWTP-01	KM	10/21/21 7:25	Composite	10/21/21 7:00	10/20/21 7:00			Pass	JL	10/25/21	7.14	Kanawha	Processing	Processing
K01-0010																																																																																											ParkersburgWWTP-01												Wood		
A01-0098	9174	OneStep RT-ddPCR	Human RNase P	2.56493300199508	4568.78690980374	None				2021-12-03	Manual	DQ	58477038	QX 200	CDC nCov-2 Triplex	H2	AP0023	D02	JL	SARS-CoV-2 N1	25.6619191169738	0	1030.21682739258	45710.2934271096	SARS-CoV-2 N2	12.8274619579315	0	1109.43168640137	22848.9166125655																																					0.005			2021-11-30	10	NT04474	Halcyon	Ceres Nanotrap	0.475		CP0041	B04	AJ	WWTP		2021-11-30	0.4	2108255	Halcyon	Thermo Magmax Microbiome Ultra Nucleic Acid Isolation Kit	0.075	H2	EP0041	B02	AJ	StarCityWWTP-01	-	11/25/2021 12:00 AM	Composite	11/25/2021 12:00 AM	11/24/2021 12:00 AM			Pass	AJ	11/30/2021	6.96	Monongalia	Processing	Complete
K01-0008																																																																																											ParkersburgWWTP-01												Wood		
G01-0057	51.4	OneStep RT-ddPCR	Human RNase P			None				11/1/21	OK	ABS	58477038	QX 200	CDC nCov-2 Triplex	B8	AP0015	B08	JL	SARS-CoV-2 N1					SARS-CoV-2 N2																																									0.005	Sample		10/25/21	10	NT04474	Halcyon	Ceres Nanotrap	0.425		CP0028	C04	JL	WWTP	Sample	10/25/21	0.4	2108255	Halcyon	Thermo Magmax Microbiome Ultra Nucleic Acid Isolation Kit	0.05	B8	EP0028	B08	JL	KeyserWWTP-01	--	10/21/21 9:00	Composite	10/21/21 8:00	10/20/21 9:00			Pass	JL	10/25/21	7.11	Mineral	Processing	Confirming
A0207	15701	OneStep RT-ddPCR	Human RNase P		14400					2/22/21	Manual	DQ			CDC nCov-2 Triplex					SARS-CoV-2 N1				3600	SARS-CoV-2 N2				21576																																				CDC N1/N2/RP Triplex	0.005	Sample		1/4/21	100			PEG Precipitation	4				MS	WWTP	Sample	2/17/21	0.2			Qiagen QiaAMP Viral Mini-RNA Kit	0.06				MS	StarCityWWTP-01	GG	1/3/21 0:00	Composite	1/3/21 23:59	1/3/21 0:00	12.379		Pass	TD	1/7/21		Monongalia	Processing	Complete
A1057	15590	OneStep RT-ddPCR		101.34		BRSV		240682.5		7/7/21	Manual	DQ			BRSV Triplex					SARS-CoV-2 N1	0			0	SARS-CoV-2 N2	0			0																																				N1/N2/BRSV Triplex	0.005	Sample			10			Ceres Nanotrap	0.95	pH - 6.80				WWTP	Sample	7/7/21	0.4			Thermo Magmax Microbiome Ultra Nucleic Acid Isolation Kit	0.05				JL	StarCityWWTP-01	EL	5/26/21 23:55	Composite	5/26/21 23:55	5/26/21 0:00	7.093		Pass	JL	5/28/21	6.8	Monongalia	Processing	Complete
A02-0291																																																																																											WVU-Morgantown												Monongalia		
H01-0024		OneStep RT-ddPCR	Human RNase P			None				11/1/21	CHECK	ABS	58477038	QX 200	CDC nCov-2 Triplex	C4	AP0015	C04	JL	SARS-CoV-2 N1					SARS-CoV-2 N2																																									0.005	Sample		10/25/21	10	NT04474	Halcyon	Ceres Nanotrap	0.425		CP0028	D02	JL	WWTP	Sample	10/25/21	0.4	2108255	Halcyon	Thermo Magmax Microbiome Ultra Nucleic Acid Isolation Kit	0.05	C4	EP0028	C04	JL	MoundsvilleWWTP-01	DRC	10/17/21 8:15	Composite	10/17/21 8:00	10/16/21 8:00			Pass	JL	10/25/21	7.08	Marshall	Processing	Processing
A03-0027	12856	OneStep RT-ddPCR	Human RNase P	0	0					9/29/21	Manual	DQ	58477037	QX 200	CDC nCov-2 Triplex	A2	AP0010	C02	JL	SARS-CoV-2 N1	0	0	1097.667847	0	SARS-CoV-2 N2	0	0	1200.682373	0																																				CDC N1/N2/RP Triplex	0.005	Sample		9/27/21	10	NT04474	Halcyon	Ceres Nanotrap	0.425		CP0017	C06	JL	K-12	Sample	9/27/21	0.4	2105049	Halcyon	Thermo Magmax Microbiome Ultra Nucleic Acid Isolation Kit	0.05	A2	EP0017	B06	JL	UniversityHS-01	BL	9/24/21 14:30	Composite	9/24/21 14:00	9/24/21 6:00			Pass	JL	9/27/21	8.71	Monongalia	Processing	Complete
A1074	10295	OneStep RT-ddPCR		87.01		BRSV		206648.75		7/7/21	Manual	DQ			BRSV Triplex					SARS-CoV-2 N1	0			0	SARS-CoV-2 N2	4.57			10853.75																																				N1/N2/BRSV Triplex	0.005	Sample		7/7/21	10			Ceres Nanotrap	0.95	pH - 6.47				WWTP	Sample	7/7/21	0.4			Thermo Magmax Microbiome Ultra Nucleic Acid Isolation Kit	0.05				JL	StarCityWWTP-01	EL	6/20/21 23:55	Composite	6/20/21 23:55	6/20/21 0:00	7.122		Pass	JL	6/25/21	6.47	Monongalia	Processing	Complete
A03-0022																																																																			Sample													Sample																									Unknown
C01-0004	14701	OneStep RT-ddPCR	Human RNase P	91.40761375	97120.58961					9/20/21	Manual	DQ	58477037	QX 200	CDC nCov-2 Triplex	F8	AP0008	D08	JL	SARS-CoV-2 N1	131.6109657	0	1320.22522	139836.6511	SARS-CoV-2 N2	101.0501575	0	1524.019623	107365.7924																																				CDC N1/N2/RP Triplex	0.005	Sample	Water was very dirty with solid matter; water was colored black essentially when unsettled.	9/17/21	10	NT04155	Halcyon	Ceres Nanotrap	0.425		CP0013	B04	JL	WWTP	Sample	9/17/21	0.4	2105033	Halcyon	Thermo Magmax Microbiome Ultra Nucleic Acid Isolation Kit	0.05	F8	EP0012	A08	JL	WheelingWWTP-01	MVC	9/16/21 7:00	Composite	9/16/21 7:00	9/15/21 7:00			Pass	JL	9/17/21	4.36	Ohio	Processing	Complete
A02-0203	10373	OneStep RT-ddPCR	Human RNase P	4.537102282	4820.671175	None				11/4/21	Manual	DQ	58477038	QX 200	CDC nCov-2 Triplex	G5	AP0016	B05	JL	SARS-CoV-2 N1	0	0	1040.980072	0	SARS-CoV-2 N2	6.805981398	0	1205.935364	7231.355235																																					0.005	Sample		11/2/21	10	NT04474	Kookaburra	Ceres Nanotrap	0.425		CP0031	A04	JL	WVU Morgantown	Sample	11/2/21	0.4	21108255	Kookaburra	Thermo Magmax Microbiome Ultra Nucleic Acid Isolation Kit	0.05	G5	EP0031	B05	JL	NorthHighSt-02 (MUB)	EL	11/1/21 10:18	Composite	11/1/21 9:00	10/30/21 9:00			Pass	JL	11/1/21	6.89	Monongalia	Processing	Complete
K01-0034																																																																																											ParkersburgWWTP-01												Wood		
H01-0094																																																																															WWTP												MoundsvilleWWTP-01												Marshall		
A02-0077																																																																			Sample		9/3/21	10	NT04155	Halcyon	Ceres Nanotrap	0.425		CP0008	B03	JL	WVU Morgantown	Sample	9/3/21	0.4	2102028	Halcyon	Thermo Magmax Microbiome Ultra Nucleic Acid Isolation Kit	0.05	J1	EP0008	A09	JL	HonorsSummit-01 (MUB)	EL	9/3/21 10:11	Grab	9/3/21 10:11	9/3/21 10:11			Pass	JL	9/3/21	8.36	Monongalia	Processing	Confirming
A02-0302																																																																																											WVU-Morgantown												Monongalia		
E01-0010	15875	OneStep RT-ddPCR	Human RNase P	7.412005067	13202.63403	None				11/29/21	Manual	DQ	58477038	QX 200	CDC nCov-2 Triplex	D5	AP0022	D05	JL	SARS-CoV-2 N1	40.05259991	0	1092.976303	71343.69358	SARS-CoV-2 N2	40.05259991	0	1279.930573	71343.69358																																					0.005	Sample		2021-11-22	10	NT04474	Halcyon	Ceres Nanotrap	0.475		CP0039	D01	AJ	WWTP	Sample	2021-11-22	0.4	2108255	Halcyon	Ultra 2.0 Microbiome (Thermo)	0.075	D5	EP0039	B05	AJ	PrincetonWWTP-01	-	11/18/21 8:00	Composite	11/18/21 8:00	11/17/21 8:00			Pass	AJ	11/19/21	6.91	Mercer	Processing	Complete
K01-0040																																																																																											ParkersburgWWTP-01												Wood		
A0225	16115	OneStep RT-ddPCR	Human RNase P		5256					2/22/21	Manual	DQ			CDC nCov-2 Triplex					SARS-CoV-2 N1				39438	SARS-CoV-2 N2				31554																																				CDC N1/N2/RP Triplex	0.005	Sample		2/5/21	100			PEG Precipitation	3				MS	WWTP	Sample	2/19/21	0.2			Qiagen QiaAMP Viral Mini-RNA Kit	0.06				MS	StarCityWWTP-01	GS	1/21/21 0:00	Composite	1/21/21 23:59	1/21/21 0:00	8.324		Pass	TD	1/22/21		Monongalia	Processing	Complete
A0234	18510	OneStep RT-ddPCR	Human RNase P		17172					2/22/21	Manual	DQ			CDC nCov-2 Triplex					SARS-CoV-2 N1				75546	SARS-CoV-2 N2				51516																																				CDC N1/N2/RP Triplex	0.005	Sample		2/5/21	100			PEG Precipitation	4.5				MS	WWTP	Sample	2/19/21	0.2			Qiagen QiaAMP Viral Mini-RNA Kit	0.06				MS	StarCityWWTP-01	GS	2/3/21 0:00	Composite	2/3/21 23:59	2/3/21 0:00	10.441		Pass	TD	2/4/21		Monongalia	Processing	Complete
A02-0326																																																																																											WVU-Morgantown												Monongalia		
H01-0087																																																																															WWTP												MoundsvilleWWTP-01												Marshall		
A02-0094	14993	OneStep RT-ddPCR	Human RNase P	53.41882706	56757.50375					9/20/21	Manual	DQ	58477037	QX 200	CDC nCov-2 Triplex	A7	AP0008	A07	JL	SARS-CoV-2 N1	157.4616909	0	1320.22522	167303.0466	SARS-CoV-2 N2	155.881834	0	1524.019623	165624.4487																																				CDC N1/N2/RP Triplex	0.005	Sample		9/13/21	10	NT04155	Halcyon	Ceres Nanotrap	0.425		CP0011	B01	JL	WVU Morgantown	Sample	9/13/21	0.4	2105033	Halcyon	Thermo Magmax Microbiome Ultra Nucleic Acid Isolation Kit	0.05	A7	EP0011	A07	JL	NorthHighSt-02 (MUB)	EL	9/10/21 9:39	Composite	9/10/21 9:40	9/8/21 9:40			Pass	JL	9/13/21	7.29	Monongalia	Processing	Complete
A03-0068	14562	OneStep RT-ddPCR	Human RNase P	30.7204175	32640.44359	None				11/29/21	Manual	DQ	58477038	QX 200	CDC nCov-2 Triplex	C7	AP0022	E07	JL	SARS-CoV-2 N1	102.0168114	0	1092.976303	108392.8621	SARS-CoV-2 N2	43.66734028	0	1279.930573	46396.54905																																					0.005	Sample		2021-11-15	10	NT04474	Halcyon	Ceres Nanotrap	0.425		CP0035	B01	LW	K-12	Sample	2021-11-15	0.4	2108255	Halcyon	Ultra 2.0 Microbiome (Thermo)	0.05	C7	EP0035	A07	JL	MorgantownHS-01	BL	11/5/21 13:30	Composite	11/5/21 13:30	11/5/21 6:00			Pass	JL	11/10/21		Monongalia	Processing	Complete
A02-0071	9657	OneStep RT-ddPCR	Human RNase P	242.6992989	257868.005					9/2/21	Manual	DQ		QX One	BRSV Triplex	H6	AP000000	F03	JL	SARS-CoV-2 N1	2.51566112	0	3138.026123	2672.88994	SARS-CoV-2 N2	2.51566112	0	3336.080627	2672.88994																																				CDC N1/N2/RP Triplex	0.005	Sample		9/2/21	10	 NT04155	Kookaburra	Ceres Nanotrap	0.425		CP0007	D04	JL	WVU Morgantown	Sample	9/2/21	0.4	2102028	Halcyon	Thermo Magmax Microbiome Ultra Nucleic Acid Isolation Kit	0.05	H6	EP0007	B10	JL	HonorsSummit-01 (MUB)	EL	9/1/21 10:20	Grab	9/1/21 10:20	9/1/21 10:20			Pass	JL	9/1/21	8.16	Monongalia	Processing	Complete
A03-0172																																																																																											MorgantownHS-01												Monongalia		
H01-0077																																																																															WWTP												MoundsvilleWWTP-01	-	11/30/2021 08:15 AM	Composite	11/30/2021 08:00 AM	11/29/2021 08:00 AM			Pass	AJ	12/03/2021	6.92	Marshall		
A02-0171	12494	OneStep RT-ddPCR	Human RNase P	66.0064888	70131.89435	None				10/20/21	Manual	DQ	58477038	QX One	CDC nCov-2 Triplex	E2	AP0014	B01	JL	SARS-CoV-2 N1	54.67792988	0	2152.007294	58095.3005	SARS-CoV-2 N2	24.49508429	0	2493.552246	26026.02705																																					0.005	Sample		10/15/21	10	NT04474	Halcyon	Ceres Nanotrap	0.425		CP0025	A02	JL	WVU Morgantown	Sample	10/15/21	0.4	2108255	Halcyon	Thermo Magmax Microbiome Ultra Nucleic Acid Isolation Kit	0.05	E2	EP0025	A02	JL	HonorsSummit-01 (MUB)	CA	10/15/21 9:47	Composite	10/15/21 9:47	10/13/21 9:58			Pass	JL	10/15/21	7.5	Monongalia	Processing	Complete
A02-0334																																																																																											WVU-Morgantown												Monongalia		
E01-0003	6430	OneStep RT-ddPCR	Human RNase P	14.64182496	15556.93902	None				11/8/21	Manual	DQ	58477038	QX 200	CDC nCov-2 Triplex	A4	AP0017	A04	AJ	SARS-CoV-2 N1	65.96008301	0	560.2787018	70082.5882	SARS-CoV-2 N2	69.62996006	0	653.7683868	73981.83256																																					0.005	Sample		11/5/21	10	NT04474	Kookaburra	Ceres Nanotrap	0.425		CP00033	A04	JL	WWTP	Sample	11/5/21	0.4	21108255	Kookaburra	Thermo Magmax Microbiome Ultra Nucleic Acid Isolation Kit	0.05	A4	EP0033	A04	JL	PrincetonWWTP-01	TT	11/2/21 8:00	Composite	11/2/21 8:00	11/1/21 8:00			Pass	JL	11/5/21	6.63	Mercer	Processing	Confirming
A01-0133																																																																																											StarCityWWTP-01												Monongalia		
K01-0047																																																																																											ParkersburgWWTP-01												Wood		
A02-0338																																																																																											WVU-Morgantown												Monongalia		
B01-0068	11949	OneStep RT-ddPCR	Human RNase P	1.969235688	2092.312919	None				11/29/21	Manual	DQ	58477038	QX 200	CDC nCov-2 Triplex	B8	AP0022	F08	JL	SARS-CoV-2 N1	1.969235688	0	1092.976303	2092.312919	SARS-CoV-2 N2	1.969235688	0	1279.930573	2092.312919																																				CDC N1/N2/RP Triplex	0.005	Sample		11/16/21	10	NT04474	Kookaburra	Ceres Nanotrap	0.425		CP0036	D04	AJ	WWTP	Sample	11/16/21	0.4	2108255	Kookaburra	Thermo Magmax Microbiome Ultra Nucleic Acid Isolation Kit	0.05	J8	EP0036	B08	AJ	CharlestonWWTP-01	-	11/10/21 7:30	Composite	11/10/21 7:00	11/9/21 7:00			Pass	JL	11/15/21	7.05	Kanawha	Processing	Complete
A03-0021	10591	OneStep RT-ddPCR	Human RNase P	57.83371449	61448.32164					9/29/21	Manual	DQ	58477037	QX 200	CDC nCov-2 Triplex	A3	AP0010	C03	JL	SARS-CoV-2 N1	15.55663705	0	1097.667847	16528.92686	SARS-CoV-2 N2	33.34825277	0	1200.682373	35432.51857																																				CDC N1/N2/RP Triplex	0.005	Sample		9/27/21	10	NT04474	Halcyon	Ceres Nanotrap	0.425		CP0017	D01	JL	K-12	Sample	9/27/21	0.4	2105049	Halcyon	Thermo Magmax Microbiome Ultra Nucleic Acid Isolation Kit	0.05	A3	EP0017	B07	JL	MorgantownHS-01	BL	9/24/21 14:30	Composite	9/24/21 14:00	9/24/21 6:00			Pass	JL	9/27/21	9.04	Monongalia	Processing	Complete
A01-0114																																																																																											StarCityWWTP-01	JF	12/01/2021 12:00 AM	Composite	12/01/2021 12:00 AM	11/30/2021 12:00 AM			Pass	AJ	12/03/2021	7.18	Monongalia		
A03-0135																																																																																											SuncrestES-01												Monongalia		
A03-0153																																																																																											NorthES-01												Monongalia		
A02-0054	14197	OneStep RT-ddPCR	Human RNase P	45.63396931	48486.09239					8/27/21	Manual	DQ	58477036	QX One	CDC nCov-2 Triplex	C6	AP0005	F02	JL	SARS-CoV-2 N1	382.9641342	0	2615.09491	406899.3926	SARS-CoV-2 N2	188.1644058	0	2786.116028	199924.6812																																				CDC N1/N2/RP Triplex	0.005	Sample		8/27/21	10	NT04155	Kookaburra	Ceres Nanotrap	0.425		CP0005	C02	JL	WVU Morgantown	Sample	8/27/21	0.4	2102028	Kookaburra	Thermo Magmax Microbiome Ultra Nucleic Acid Isolation Kit	0.05	C6	EP0005	B02	JL	HonorsSummit-01 (MUB)	EL	8/27/21 10:17	Composite	8/27/21 9:38	8/25/21 9:38			Pass	JL	8/27/21	6.9	Monongalia	Processing	Complete
J01-0045																																																																															WWTP												AlpineLakeWWTP-01												Preston		
A02-0174	10841	OneStep RT-ddPCR	Human RNase P	32.57869005	34614.85818	None				10/20/21	Manual	DQ	58477038	QX One	CDC nCov-2 Triplex	H6	AP0014	F04	JL	SARS-CoV-2 N1	2.170509696	0	2152.007294	2306.166552	SARS-CoV-2 N2	4.341219664	0	2493.552246	4612.545893																																					0.005	Sample		10/18/21	10	NT04474	Halcyon	Ceres Nanotrap	0.425		CP0026	B02	JL	WVU Morgantown	Sample	10/18/21	0.4	2108255	Halcyon	Thermo Magmax Microbiome Ultra Nucleic Acid Isolation Kit	0.05	H6	EP0026	A06	JL	HonorsSummit-01 (MUB)	EL	10/18/21 9:49	Composite	10/18/21 9:00	10/16/21 9:00			Pass	JL	10/18/21		Monongalia	Processing	Complete
A02-0337																																																																																											WVU-Morgantown												Monongalia		
A02-0102	14312	OneStep RT-ddPCR	Human RNase P	321.1239243	341194.1695					9/20/21	Manual	DQ	58477037	QX 200	CDC nCov-2 Triplex	B8	AP0008	B08	JL	SARS-CoV-2 N1	23.02773714	0	1320.22522	24466.97071	SARS-CoV-2 N2	37.84319401	0	1524.019623	40208.39363																																				CDC N1/N2/RP Triplex	0.005	Sample		9/13/21	10	NT04155	Halcyon	Ceres Nanotrap	0.425		CP0011	C04	JL	WVU Morgantown	Sample	9/13/21	0.4	2105033	Halcyon	Thermo Magmax Microbiome Ultra Nucleic Acid Isolation Kit	0.05	B8	EP0011	B04	JL	NorthHighSt-02 (MUB)	EL	9/13/21 10:00	Grab	9/13/21 10:00	9/13/21 10:00			Pass	JL	9/13/21	8.78	Monongalia	Processing	Complete
L01-0041																																																																																											WestUnionWWTP-01												Doddridge		
A01-0042	10961	OneStep RT-ddPCR	Human RNase P	34.37146425	36519.68077					9/29/21	Manual	DQ	58477037	QX 200	CDC nCov-2 Triplex	K3	AP0010	A03	JL	SARS-CoV-2 N1	124.8361778	0	1097.667847	132638.4389	SARS-CoV-2 N2	1628.575592	0	1200.682373	1730361.567																																				CDC N1/N2/RP Triplex	0.005	Sample		9/27/21	10	NT04474	Halcyon	Ceres Nanotrap	0.425		CP0017	A03	JL	WWTP	Sample	9/27/21	0.4	2105049	Halcyon	Thermo Magmax Microbiome Ultra Nucleic Acid Isolation Kit	0.05	K3	EP0017	A03	JL	StarCityWWTP-01	GG	9/20/21 23:55	Composite	9/20/21 23:55	9/20/21 0:00	7.36		Pass	JL	9/24/21	6.57	Monongalia	Processing	Complete
A03-0094	15518	OneStep RT-ddPCR	Human RNase P	12.1332538127899	21612.358354032	None				2021-12-03	Manual	DQ	58477038	QX 200	CDC nCov-2 Triplex	NAB14 G2	AP0023	G06	JL	SARS-CoV-2 N1	3.03272694349288	0	1030.21682739258	5402.04486809669	SARS-CoV-2 N2	3.03272694349288	0	1109.43168640137	5402.04486809669																																					0.005			2021-12-02	10	NT04474	Kookaburra	Ceres Nanotrap	0.475		CP0042	C06	LW			2021-12-02	0.4	2108255	Kookaburra	Thermo Magmax Microbiome Ultra Nucleic Acid Isolation Kit	0.075	G2	EP0042	C02	LW														Processing	Complete
A02-0089	14167	OneStep RT-ddPCR	Human RNase P	114.8793602	122059.3202					9/9/21	Manual	DQ	58477037	QX 200	CDC nCov-2 Triplex	L4	AP0007	B04	JL	SARS-CoV-2 N1	149.9542713	0	1303.838043	159326.4133	SARS-CoV-2 N2	68.19400787	0	1366.207123	72456.13337																																				CDC N1/N2/RP Triplex	0.005	Sample		9/8/21	10	NT04155	Halcyon	Ceres Nanotrap	0.425		CP0010	A04	JL	WVU Morgantown	Sample	9/8/21	0.4	2102028	Halcyon	Thermo Magmax Microbiome Ultra Nucleic Acid Isolation Kit	0.05	L4	EP0010	A04	JL	NorthHighSt-02 (MUB)	EL	9/8/21 9:55	Composite	9/8/21 8:48	9/6/21 8:48			Pass	JL	9/8/21	7.26	Monongalia	Processing	Complete
A01-0123																																																																																											StarCityWWTP-01												Monongalia		
A03-0013	20145	OneStep RT-ddPCR	Human RNase P	0	0					10/11/21	Manual	DQ	58477037	QX One	CDC nCov-2 Triplex	H4	AP0012	D02	JL	SARS-CoV-2 N1	1.487158239	0	1593.187866	1580.105629	SARS-CoV-2 N2	2.974390388	0	2077.493896	3160.289787																																				CDC N1/N2/RP Triplex	0.005	Sample		10/7/21	10	NT04474	Halcyon	Ceres Nanotrap	0.425		CP0021	A04	JL	K-12	Sample	10/7/21	0.4	2108052	Halcyon	Thermo Magmax Microbiome Ultra Nucleic Acid Isolation Kit	0.05	H4	EP0021	A04	JL	SuncrestES-01	BL	9/30/21 12:25	Composite	9/29/21 14:00	9/29/21 6:00			Pass	JL	10/6/21	6.64	Monongalia	Processing	Complete
A1055	15989	OneStep RT-ddPCR		131.34		BRSV		311932.5		7/7/21	Manual	DQ			BRSV Triplex					SARS-CoV-2 N1	2.94			6982.5	SARS-CoV-2 N2	2.94			6982.5																																				N1/N2/BRSV Triplex	0.005	Sample			10			Ceres Nanotrap	0.95	pH - 6.88				WWTP	Sample	7/7/21	0.4			Thermo Magmax Microbiome Ultra Nucleic Acid Isolation Kit	0.05				JL	StarCityWWTP-01	EL	5/24/21 23:55	Composite	5/24/21 23:55	5/24/21 0:00	7.396		Pass	JL	5/28/21	6.88	Monongalia	Processing	Complete
A02-0350																																																																																											WVU-Morgantown												Monongalia		
B01-0010	9461	OneStep RT-ddPCR	Human RNase P	0	0					10/5/21	Manual	DQ	58477037	QX One	CDC nCov-2 Triplex	C2	AP0011	B01	JL	SARS-CoV-2 N1	18.26411724	1355.395355	0	19405.62457	SARS-CoV-2 N2	18.26411724	1548.404388	0	19405.62457																																				CDC N1/N2/RP Triplex	0.005	Sample		10/1/21	10	NT04474	Halcyon	Ceres Nanotrap	0.425	C2	CP0019	A02	JL	WWTP	Sample	10/1/21	0.4	2108052	Halcyon	Thermo Magmax Microbiome Ultra Nucleic Acid Isolation Kit	0.05	C2	EP0019	A02	JL	CharlestonWWTP-01	KM	9/27/21 8:00	Composite	9/27/21 7:00	9/26/21 7:00			Pass	JL	9/30/21		Kanawha	Processing	Complete
A03-0144																																																																																											MorgantownHS-01												Monongalia		
A01-0103		OneStep RT-ddPCR	Human RNase P			None				11/1/21	CHECK	ABS	58477038	QX 200	CDC nCov-2 Triplex	A5	AP0015	E05	JL	SARS-CoV-2 N1					SARS-CoV-2 N2																																									0.005			10/28/21	10	NT04474	Halcyon	Ceres Nanotrap	0.425		CP0030	A05	LW		Sample	10/28/21	0.4	2108255	Halcyon	Thermo Magmax Microbiome Ultra Nucleic Acid Isolation Kit	0.05	A5	EP0030	A05	LW															
L01-0045																																																																																											WestUnionWWTP-01												Doddridge		
A1075	13655	OneStep RT-ddPCR		207.69		BRSV		493263.75		7/7/21	Manual	DQ			BRSV Triplex					SARS-CoV-2 N1	0			0	SARS-CoV-2 N2	0			0																																				N1/N2/BRSV Triplex	0.005	Sample		7/7/21	10			Ceres Nanotrap	0.95	pH - 6.48				WWTP	Sample	7/7/21	0.4			Thermo Magmax Microbiome Ultra Nucleic Acid Isolation Kit	0.05				JL	StarCityWWTP-01	EL	6/21/21 23:55	Composite	6/21/21 23:55	6/21/21 0:00	9.229		Pass	JL	6/25/21	6.48	Monongalia	Processing	Complete
A02-0151 b	10482	OneStep RT-ddPCR	Human RNase P		36378					3/11/21	Manual	DQ		QX 200	CDC nCov-2 Triplex					SARS-CoV-2 N1				32328	SARS-CoV-2 N2				16164																																				CDC N1/N2/RP Triplex	0.005	Sample	Was A04-0009		100			PEG Precipitation	3					WWTP	Sample		0.2			Qiagen QiaAMP Viral Mini-RNA Kit	0.06					StarCityWWTP-01	EL	2/18/21 12:00	Composite	2/18/21 12:00	2/18/21 12:00	11.463		Pass				Monongalia	Rejected	Test
A0250	11742	OneStep RT-ddPCR	Human RNase P		36571.2					11/17/20	Manual	DQ			CDC nCov-2 Triplex					SARS-CoV-2 N1				45714	SARS-CoV-2 N2				54856.8																																				CDC N1/N2/RP Triplex	0.005	Sample		11/13/20	100			PEG Precipitation	3.8				MS	WWTP	Sample	11/17/20	0.2			Qiagen QiaAMP Viral Mini-RNA Kit	0.06				MS	StarCityWWTP-01	DW	11/12/20 0:00	Composite	11/12/20 23:59	11/12/20 0:00	6.315		Pass	TD	11/13/20		Monongalia	Processing	Complete
A02-0324																																																																																											WVU-Morgantown												Monongalia		
A1076	11430	OneStep RT-ddPCR		70.1		BRSV		166487.5		7/7/21	Manual	DQ			BRSV Triplex					SARS-CoV-2 N1	0			0	SARS-CoV-2 N2	2.06			4892.5																																				N1/N2/BRSV Triplex	0.005	Sample		7/7/21	10			Ceres Nanotrap	0.95	pH - 6.47				WWTP	Sample	7/7/21	0.4			Thermo Magmax Microbiome Ultra Nucleic Acid Isolation Kit	0.05				JL	StarCityWWTP-01	EL	6/22/21 23:55	Composite	6/22/21 23:55	6/22/21 0:00	12.985		Pass	JL	6/25/21	6.47	Monongalia	Processing	Complete
A03-0095	14635	OneStep RT-ddPCR	Human RNase P	22.5192642211914	40112.4393939972	None				2021-12-03	Manual	DQ	58477038	QX 200	CDC nCov-2 Triplex	F2	AP0023	F02	JL	SARS-CoV-2 N1	0	0	1030.21682739258	0	SARS-CoV-2 N2	1.60780429840088	0	1109.43168640137	2863.90140652656																																					0.005			2021-12-02	10	NT04474	Kookaburra	Ceres Nanotrap	0.475		CP0042	B04	LW			2021-12-02	0.4	2108255	Kookaburra	Thermo Magmax Microbiome Ultra Nucleic Acid Isolation Kit	0.075	F2	EP0042	B02	LW														Processing	Complete
A01-0027	17102	OneStep RT-ddPCR	Human RNase P	45.44618607	48286.57269					9/9/21	Manual	DQ	58477037	QX 200	CDC nCov-2 Triplex	K1	AP0007	A01	JL	SARS-CoV-2 N1	71.65204525	0	1303.838043	76130.29808	SARS-CoV-2 N2	82.69483566	0	1366.207123	87863.26289																																				CDC N1/N2/RP Triplex	0.005	Sample		9/8/21	10	NT04155	Halcyon	Ceres Nanotrap	0.425		CP0009	A01	JL	WWTP	Sample	9/8/21	0.4	2102028	Halcyon	Thermo Magmax Microbiome Ultra Nucleic Acid Isolation Kit	0.05	K1	EP0009	A01	JL	StarCityWWTP-01	DW	9/4/21 23:55	Composite	9/4/21 23:55	9/4/21 0:00	9.983		Pass	JL	9/7/21	6.38	Monongalia	Processing	Complete
A0247	15880	OneStep RT-ddPCR	Human RNase P		71160					3/22/21	Manual	DQ			CDC nCov-2 Triplex					SARS-CoV-2 N1				1542888	SARS-CoV-2 N2				961152																																				CDC N1/N2/RP Triplex	0.005	Sample		11/13/20	100			PEG Precipitation	4				MS	WWTP	Sample	11/17/20	0.2			Qiagen QiaAMP Viral Mini-RNA Kit	0.06				MS	StarCityWWTP-01	GS	11/9/20 0:00	Composite	11/9/20 23:59	11/9/20 0:00	6.909		Pass	TD	11/13/20		Monongalia	Processing	Complete
A02-0128	13251	OneStep RT-ddPCR	Human RNase P	28.4278965	30204.64003					9/29/21	Manual	DQ	58477037	QX 200	CDC nCov-2 Triplex	L7	AP0010	B07	JL	SARS-CoV-2 N1	17.76340961	0	1097.667847	18873.62272	SARS-CoV-2 N2	26.65014505	0	1200.682373	28315.77912																																				CDC N1/N2/RP Triplex	0.005	Sample		9/27/21	10	NT04474	Halcyon	Ceres Nanotrap	0.425		CP0017	C03	JL	WVU Morgantown	Sample	9/27/21	0.4	2105049	Halcyon	Thermo Magmax Microbiome Ultra Nucleic Acid Isolation Kit	0.05	L7	EP0017	B03	JL	Evansdale-01	EL	9/27/21 9:15	Composite	9/27/21 9:15	9/25/21 9:15			Pass	JL	9/27/21	6.74	Monongalia	Processing	Complete
A03-0118	14124	OneStep RT-ddPCR	Human RNase P	0	0	None				2021-12-03	Manual	DQ	58477038	QX 200	CDC nCov-2 Triplex	F5	AP0023	F05	JL	SARS-CoV-2 N1	0	0	1030.21682739258	0	SARS-CoV-2 N2	0	0	1109.43168640137	0																																					0.005			2021-12-02	10	NT04474	Kookaburra	Ceres Nanotrap	0.475		CP0042	C01	LW			2021-12-02	0.4	2108255	Kookaburra	Thermo Magmax Microbiome Ultra Nucleic Acid Isolation Kit	0.075	F5	EP0042	B05	LW														Processing	Complete
A02-0067	9943	OneStep RT-ddPCR	Human RNase P	624.9224854	663980.1407					9/2/21	Manual	DQ		QX One	BRSV Triplex	H4	AP000000	D03	JL	SARS-CoV-2 N1	578.3364487	0	3138.026123	614482.4767	SARS-CoV-2 N2	573.4379578	0	3336.080627	609277.8301																																				CDC N1/N2/RP Triplex	0.005	Sample		9/2/21	10	 NT04155	Kookaburra	Ceres Nanotrap	0.425		CP0007	D02	JL	WVU Morgantown	Sample	9/2/21	0.4	2102028	Halcyon	Thermo Magmax Microbiome Ultra Nucleic Acid Isolation Kit	0.05	H4	EP0007	B08	JL	OaklandE-02	EL	9/1/21 9:27	Grab	9/1/21 9:27	9/1/21 9:27			Pass	JL	9/1/21	8.64	Monongalia	Processing	Complete
H01-0031	13666	OneStep RT-ddPCR	Human RNase P	6.888000965	12269.25172	None				11/29/21	Manual	DQ	58477038	QX 200	CDC nCov-2 Triplex	B3	AP0022	B08	JL	SARS-CoV-2 N1	39.6335721	0	1092.976303	70597.30031	SARS-CoV-2 N2	17.22378492	0	1279.930573	30679.8669																																					0.005	Sample		2021-11-19	10	NT04474	Halcyon	Ceres Nanotrap	0.475		CP0038	D05	AJ	WWTP	Sample	2021-11-19	0.4	2108255	Halcyon	Ultra 2.0 Microbiome (Thermo)	0.075	B3	EP0038	B08	AJ	MoundsvilleWWTP-01	-	11/11/21 8:15	Composite	11/11/21 8:00	11/10/21 8:00			Pass	AJ	11/19/21	7.27	Marshall	Processing	Complete
A01-0017	13951	OneStep RT-ddPCR	Human RNase P	18.61194968	19775.19654					9/2/21	Manual	DQ		QX One	BRSV Triplex	H1	AP000000	A03	JL	SARS-CoV-2 N1	175.9004974	0	3138.026123	186894.2785	SARS-CoV-2 N2	189.9719429	0	3336.080627	201845.1893																																				CDC N1/N2/RP Triplex	0.005	Sample		9/2/21	10	 NT04155	Kookaburra	Ceres Nanotrap	0.425		CP0007	C05	JL	WWTP	Sample	9/2/21	0.4	2102028	Halcyon	Thermo Magmax Microbiome Ultra Nucleic Acid Isolation Kit	0.05	H1	EP0007	B05	JL	StarCityWWTP-01	JT	8/29/21 23:55	Composite	8/29/21 23:55	8/29/21 0:00	9.281		Pass	JL	9/1/21	6.91	Monongalia	Processing	Complete
B01-0002	17169	OneStep RT-ddPCR	Human RNase P	4.111736417	4368.719943					9/24/21	Manual	DQ	XXXXXX	QX 200	CDC nCov-2 Triplex	H8	AP0009	A08	JL	SARS-CoV-2 N1	32.91402817	0	878.4640503	34971.15493	SARS-CoV-2 N2	38.40417862	0	968.4371185	40804.43978																																				CDC N1/N2/RP Triplex	0.005	Sample		9/24/21	10		Halcyon	Ceres Nanotrap	0.425		CP0016	B02	JL	WWTP	Sample	9/24/21	0.4	XXXXXX	Halcyon	Thermo Magmax Microbiome Ultra Nucleic Acid Isolation Kit	0.05	H8	EP0016	A08	JL	CharlestonWWTP-01	KM	9/17/21 8:00	Composite	9/17/21 7:00	9/16/21 7:00			Pass	JL	9/21/21	6.75	Kanawha	Processing	Complete
A1082	11677	OneStep RT-ddPCR		115.14		BRSV		273457.5		7/9/21	Manual	DQ			BRSV Triplex					SARS-CoV-2 N1	2.02			4797.5	SARS-CoV-2 N2	2.02			4797.5																																				N1/N2/BRSV Triplex	0.005	Sample		7/9/21	10			Ceres Nanotrap	0.95	pH - 6.47				WWTP	Sample	7/9/21	0.4			Thermo Magmax Microbiome Ultra Nucleic Acid Isolation Kit	0.05				JL	StarCityWWTP-01	EL	6/30/21 23:55	Composite	6/30/21 23:55	6/30/21 0:00	7.983		Pass	JL	7/9/21	6.47	Monongalia	Processing	Complete
A1042	14297	OneStep RT-ddPCR	Human RNase P		39510					5/7/21	Manual	DQ		QX 200	CDC nCov-2 Triplex					SARS-CoV-2 N1				0	SARS-CoV-2 N2				0																																				CDC N1/N2/RP Triplex	0.005	Sample	Reconc vol estimated	5/7/21	100			PEG Precipitation	5					WWTP	Sample		0.2			Qiagen QiaAMP Viral Mini-RNA Kit	0.06					StarCityWWTP-01	GG	5/3/21 23:55	Composite	5/3/21 23:55	5/3/21 0:00	10.8		Pass	Josh Lambert	5/7/21		Monongalia	Processing	Complete
L01-0024																																																																																											WestUnionWWTP-01												Doddridge		
A03-0002	16149	OneStep RT-ddPCR	Human RNase P	18.9488852	20133.19053					9/24/21	Manual	DQ	XXXXXX	QX 200	CDC nCov-2 Triplex	I2	AP0009	B02	JL	SARS-CoV-2 N1	0	0	878.4640503	0	SARS-CoV-2 N2	0	0	968.4371185	0																																				CDC N1/N2/RP Triplex	0.005	Sample		9/24/21	10		Halcyon	Ceres Nanotrap	0.425		CP0016	B04	JL	K-12	Sample	9/24/21	0.4	XXXXXX	Halcyon	Thermo Magmax Microbiome Ultra Nucleic Acid Isolation Kit	0.05	I2	EP0016	A10	JL	NorthES-01	BL	9/21/21 9:00	Composite	9/20/21 14:00	9/20/21 6:00			Pass	JL	9/21/21	8.62	Monongalia	Processing	Complete
C01-0014	14965	OneStep RT-ddPCR	Human RNase P	13.62097263	14472.28342					10/11/21	Manual	DQ	58477037	QX One	CDC nCov-2 Triplex	A5	AP0012	E06	JL	SARS-CoV-2 N1	31.34185791	0	1593.187866	33300.72403	SARS-CoV-2 N2	46.34850502	0	2077.493896	49245.28658																																				CDC N1/N2/RP Triplex	0.005	Sample	FLOW: 8.81	10/8/21	10	NT04474	Halcyon	Ceres Nanotrap	0.425		CP0022	D03	JL	WWTP	Sample	10/8/21	0.4	2108052	Halcyon	Thermo Magmax Microbiome Ultra Nucleic Acid Isolation Kit	0.05	A5	EP0022	C05	JL	WheelingWWTP-01	MVC	10/5/21 7:05	Composite	10/5/21 7:00	10/4/21 7:00	8.81		Pass	JL	10/8/21	6.64	Ohio	Processing	Complete
B01-0023	11882	OneStep RT-ddPCR	Human RNase P	5.941520333	6312.865354	None				10/20/21	Manual	DQ	58477038	QX One	CDC nCov-2 Triplex	L1	AP0014	A07	JL	SARS-CoV-2 N1	131.0612869	0	2152.007294	139252.6174	SARS-CoV-2 N2	129.0700531	0	2493.552246	137136.9314																																				CDC N1/N2/RP Triplex	0.005	Sample		10/20/21	10	NT04474	Halcyon	Ceres Nanotrap	0.425		CP0027	C01	JL	WWTP	Sample	10/20/21	0.4	2108255	Halcyon	Thermo Magmax Microbiome Ultra Nucleic Acid Isolation Kit	0.05	L1	EP0027	B01	JL	CharlestonWWTP-01	KM	10/15/21 7:30	Composite	10/15/21 7:00	10/14/21 7:00			Pass	JL	10/20/21		Kanawha	Processing	Complete
A02-0349																																																																																											WVU-Morgantown												Monongalia		
C01-0019	12855	OneStep RT-ddPCR	Human RNase P	7.322620749	7780.284546	None				11/8/21	Manual	DQ	58477038	QX 200	CDC nCov-2 Triplex	G7	AP0017	D07	AJ	SARS-CoV-2 N1	25.63914776	0	560.2787018	27241.59449	SARS-CoV-2 N2	23.80685329	0	653.7683868	25294.78163																																					0.005	Sample		10/15/21	10	NT04474	Halcyon	Ceres Nanotrap	0.425		CP0025	D05	JL	WWTP	Sample	10/15/21	0.4	2108255	Halcyon	Thermo Magmax Microbiome Ultra Nucleic Acid Isolation Kit	0.05	G7	EP0025	D05	JL	WheelingWWTP-01	MVC	10/13/21 7:00	Composite	10/13/21 7:00	10/12/21 7:00			Pass	JL	10/15/21	6.31	Ohio	Processing	Complete
A02-0361																																																																																											WVU-Morgantown												Monongalia		
K01-0019																																																																																											ParkersburgWWTP-01												Wood		
C01-0006	10294	OneStep RT-ddPCR	Human RNase P	45.75927258	48619.22711					9/29/21	Manual	DQ	58477037	QX 200	CDC nCov-2 Triplex	A6	AP0010	C06	JL	SARS-CoV-2 N1	34.31110859	0	1097.667847	36455.55288	SARS-CoV-2 N2	70.96486092	0	1200.682373	75400.16472																																				CDC N1/N2/RP Triplex	0.005	Sample	FLOW 7.859	9/27/21	10	NT04474	Halcyon	Ceres Nanotrap	0.425		CP0017	D04	JL	WWTP	Sample	9/27/21	0.4	2105049	Halcyon	Thermo Magmax Microbiome Ultra Nucleic Acid Isolation Kit	0.05	A6	EP0017	B10	JL	WheelingWWTP-01	MVC	9/21/21 7:00	Composite	9/21/21 7:00	9/20/21 7:00	7.859		Pass	JL	9/24/21	6.33	Ohio	Processing	Complete
J01-0032																																																																															WWTP												AlpineLakeWWTP-01												Preston		
H01-0048																																																																															WWTP												MoundsvilleWWTP-01		11/23/2021 08:15 AM	Composite	11/23/2021 08:00 AM	11/22/2021 08:00 AM			Fail: Temperature Above Threshold	JL	11/29/2021		Marshall		
A02-0156 c	11921	OneStep RT-ddPCR	Human RNase P		53310					3/15/21	Manual	DQ		QX 200	CDC nCov-2 Triplex					SARS-CoV-2 N1				29610	SARS-CoV-2 N2				0																																				CDC N1/N2/RP Triplex	0.005	Sample	Was A07-0018		100			PEG Precipitation	5					WWTP	Sample		0.2			Qiagen QiaAMP Viral Mini-RNA Kit	0.06					StarCityWWTP-01	EL	2/25/21 12:00	Composite	2/25/21 12:00	2/25/21 12:00	11.789		Pass				Monongalia	Rejected	Test
A01-0093	15524	OneStep RT-ddPCR	Human RNase P	88.07405472	156881.91	None				11/29/21	Manual	DQ	58477038	QX 200	CDC nCov-2 Triplex	A3	AP0022	A08	JL	SARS-CoV-2 N1	57.66643524	0	1092.976303	102718.3378	SARS-CoV-2 N2	74.38576221	0	1279.930573	132499.6389																																					0.005	Sample		2021-11-19	10	NT04474	Halcyon	Ceres Nanotrap	0.475		CP0038	B04	AJ	WWTP	Sample	2021-11-19	0.4	2108255	Halcyon	Ultra 2.0 Microbiome (Thermo)	0.075	A3	EP0038	A08	AJ	StarCityWWTP-01	GG	11/18/21 23:55	Composite	11/18/21 23:55	11/18/21 0:00			Pass	AJ	11/29/21	7.33	Monongalia	Processing	Complete
G02-0013																																																																			Sample		11/12/21	10	NT04474	Kookaburra	Ceres Nanotrap	0.425		CP0035	D02	AJ	WVU Keyser	Sample	11/12/21	0.4	2108255	Kookaburra	Thermo Magmax Microbiome Ultra Nucleic Acid Isolation Kit	0.05	H6	EP0035	B06	AJ	PotomacState-01	S	11/10/21 9:00	Composite	11/10/21 9:00	11/9/21 11:00			Pass	JL	11/12/21	7.03	Mineral	Processing	Processing
A01-0127																																																																																											StarCityWWTP-01												Monongalia		
A02-0204	16549	OneStep RT-ddPCR	Human RNase P	1.421845555	1510.710903	None				11/4/21	Manual	DQ	58477038	QX 200	CDC nCov-2 Triplex	K2	AP0016	F02	JL	SARS-CoV-2 N1	0	0	1040.980072	0	SARS-CoV-2 N2	0	0	1205.935364	0																																					0.005	Sample		11/3/21	10	NT04474	Halcyon	Ceres Nanotrap	0.425		CP0032	C06	JL	WVU Morgantown	Sample	11/3/21	0.4	21108255	Kookaburra	Thermo Magmax Microbiome Ultra Nucleic Acid Isolation Kit	0.05	K2	EP0032	B06	JL	Evansdale-01	CA	11/3/21 10:17	Composite	11/3/21 9:23	11/1/21 9:23			Pass	JL	11/3/21	7.09	Monongalia	Processing	Complete
H01-0074																																																																															WWTP												MoundsvilleWWTP-01												Marshall		
A02-0064	13180	OneStep RT-ddPCR	Human RNase P	306.2463379	325386.734					8/30/21	Manual	DQ	58477036	QX One	CDC nCov-2 Triplex	E6	AP0005	F04	JL	SARS-CoV-2 N1	11.96506262	0	2615.09491	12712.87903	SARS-CoV-2 N2	23.93648624	0	2786.116028	25432.51663																																				CDC N1/N2/RP Triplex	0.005	Sample		8/27/21	10	XXXXXX	Halcyon	Ceres Nanotrap	0.425		CP000000	A06	JL	WVU Morgantown	Sample	8/30/21	0.4	2102028	Kookaburra	Thermo Magmax Microbiome Ultra Nucleic Acid Isolation Kit	0.05	E6	EP0006	A06	JL	NorthHighSt-02 (MUB)	EL	8/30/21 10:35	Grab	8/30/21 10:35	8/30/21 10:35			Pass	JL	8/30/21	8.11	Monongalia	Processing	Complete
A1040	12025	OneStep RT-ddPCR	Human RNase P		14088					5/3/21	Manual	DQ		QX 200	CDC nCov-2 Triplex					SARS-CoV-2 N1				4692	SARS-CoV-2 N2				4692																																				CDC N1/N2/RP Triplex	0.005	Sample		4/30/21	100			PEG Precipitation	2				KED	WWTP	Sample	5/3/21	0.2			Qiagen QiaAMP Viral Mini-RNA Kit	0.06				KED	StarCityWWTP-01	EL	4/30/21 11:11	Composite	4/30/21 11:59	4/29/21 11:59	7.844		Pass	MVS	4/30/21		Monongalia	Processing	Complete
A02-0109	13554	OneStep RT-ddPCR	Human RNase P	120.0882339	127593.7486					9/20/21	Manual	DQ	58477037	QX 200	CDC nCov-2 Triplex	D8	AP0008	C08	JL	SARS-CoV-2 N1	33.00667524	0	1320.22522	35069.59245	SARS-CoV-2 N2	53.87687206	0	1524.019623	57244.17657																																				CDC N1/N2/RP Triplex	0.005	Sample		9/15/21	10	NT04155	Kookaburra	Ceres Nanotrap	0.425		CP0012	B02	JL	WVU Morgantown	Sample	9/15/21	0.4	2105033	Halcyon	Thermo Magmax Microbiome Ultra Nucleic Acid Isolation Kit	0.05	D8	EP0012	A08	JL	CollegePark-02	EL	9/15/21 10:18	Composite	9/15/21 10:13	9/13/21 10:13			Pass	JL	9/15/21	5.83	Monongalia	Processing	Complete
A1024	12696	OneStep RT-ddPCR	Human RNase P		26676					4/12/21	Manual	DQ		QX 200	CDC nCov-2 Triplex					SARS-CoV-2 N1				46728	SARS-CoV-2 N2				33372																																				CDC N1/N2/RP Triplex	0.005	Sample		4/9/21	100			PEG Precipitation	6				MVS	WWTP	Sample	4/12/21	0.2			Qiagen QiaAMP Viral Mini-RNA Kit	0.06				MVS	StarCityWWTP-01	GG	4/7/21 11:55	Composite	4/7/21 11:55	4/7/21 12:00	9.15		Pass	Josh Lambert	4/9/21		Monongalia	Processing	Complete
B01-0003	8791	OneStep RT-ddPCR	Human RNase P	0	0					10/5/21	Manual	DQ	58477037	QX One	CDC nCov-2 Triplex	L4	AP0011	G04	JL	SARS-CoV-2 N1	14.28930402	1355.395355	0	15182.38552	SARS-CoV-2 N2	7.143839002	1548.404388	0	7590.328939																																				CDC N1/N2/RP Triplex	0.005	Sample		9/27/21	10	NT04474	Halcyon	Ceres Nanotrap	0.425		CP0017	B06	JL	WWTP	Sample	9/27/21	0.4	2105049	Halcyon	Thermo Magmax Microbiome Ultra Nucleic Acid Isolation Kit	0.05	L4	EP0017	A12	JL	CharlestonWWTP-01	KM	9/22/21 7:55	Composite	9/22/21 7:00	9/21/21 7:00			Pass	JL	9/24/21	7.08	Kanawha	Processing	Complete
B01-0025	21162	OneStep RT-ddPCR	Human RNase P	1.500416845	1594.192898					10/11/21	Manual	DQ	58477037	QX One	CDC nCov-2 Triplex	L2	AP0012	B05	JL	SARS-CoV-2 N1	60.07204533	0	1593.187866	63826.54816	SARS-CoV-2 N2	16.50848746	0	2077.493896	17540.26793																																				CDC N1/N2/RP Triplex	0.005	Sample		10/8/21	10	NT04474	Halcyon	Ceres Nanotrap	0.425		CP0022	B04	JL	WWTP	Sample	10/8/21	0.4	2108052	Halcyon	Thermo Magmax Microbiome Ultra Nucleic Acid Isolation Kit	0.05	L2	EP0022	B02	JL	CharlestonWWTP-01	KM	10/6/21 8:00	Composite	10/6/21 7:00	10/5/21 7:00			Pass	JL	10/8/21	7.21	Kanawha	Processing	Complete
A1054	14814	OneStep RT-ddPCR		136.99		BRSV		325351.25		7/7/21	Manual	DQ			BRSV Triplex					SARS-CoV-2 N1	0			0	SARS-CoV-2 N2	1.59			3776.25																																				N1/N2/BRSV Triplex	0.005	Sample		7/7/21	10			Ceres Nanotrap	0.95	pH - 7.02				WWTP	Sample	7/7/21	0.4			Thermo Magmax Microbiome Ultra Nucleic Acid Isolation Kit	0.05				JL	StarCityWWTP-01	EL	5/23/21 0:00	Composite	5/23/21 23:55	5/23/21 0:00	6.439		Pass	JL	5/28/21	7.02	Monongalia	Processing	Complete
A01-0029	16888	OneStep RT-ddPCR	Human RNase P	34.85736132	37035.9464					9/20/21	Manual	DQ	58477037	QX 200	CDC nCov-2 Triplex	A1	AP0008	A01	JL	SARS-CoV-2 N1	103.3279514	0	1320.22522	109785.9484	SARS-CoV-2 N2	115.9258652	0	1524.019623	123171.2317																																				CDC N1/N2/RP Triplex	0.005	Sample		9/13/21	10	NT04155	Halcyon	Ceres Nanotrap	0.425		CP0011	A01	JL	WWTP	Sample	9/13/21	0.4	2105033	Halcyon	Thermo Magmax Microbiome Ultra Nucleic Acid Isolation Kit	0.05	A1	EP0011	A01	JL	StarCityWWTP-01	GG	9/7/21 23:55	Composite	9/7/21 23:55	9/7/21 0:00	9.116		Pass	JL	9/13/21	6.75	Monongalia	Processing	Complete
A02-0245																																																																															WVU Morgantown												Evansdale-01	GZ	12/03/2021 09:07 AM	Composite	12/03/2021 09:00 AM	12/01/2021 09:00 AM			Pass	AJ	12/01/2021	7.90	Monongalia		
A01-0028	15508	OneStep RT-ddPCR	Human RNase P	27.32624531	29034.13564					9/9/21	Manual	DQ	58477037	QX 200	CDC nCov-2 Triplex	K2	AP0007	A02	JL	SARS-CoV-2 N1	80.5516243	0	1303.838043	85586.10082	SARS-CoV-2 N2	71.41872406	0	1366.207123	75882.39431																																				CDC N1/N2/RP Triplex	0.005	Sample		9/8/21	10	NT04155	Halcyon	Ceres Nanotrap	0.425		CP0009	A02	JL	WWTP	Sample	9/8/21	0.4	2102028	Halcyon	Thermo Magmax Microbiome Ultra Nucleic Acid Isolation Kit	0.05	K2	EP0009	A02	JL	StarCityWWTP-01	DW	9/5/21 23:55	Composite	9/5/21 23:55	9/5/21 0:00	10.388		Pass	JL	9/7/21	6.6	Monongalia	Processing	Complete
A1062	13954	OneStep RT-ddPCR		208.32		BRSV		494760		7/7/21	Manual	DQ			BRSV Triplex					SARS-CoV-2 N1	1.69			4013.75	SARS-CoV-2 N2	1.69			4013.75																																				N1/N2/BRSV Triplex	0.005	Sample		7/7/21	10			Ceres Nanotrap	0.95	pH - 7.03				WWTP	Sample	7/7/21	0.4			Thermo Magmax Microbiome Ultra Nucleic Acid Isolation Kit	0.05				JL	StarCityWWTP-01	EL	6/2/21 23:55	Composite	6/2/21 23:55	6/2/21 0:00	8.513		Pass	JL	6/4/21	7.03	Monongalia	Processing	Complete
H01-0073																																																																															WWTP												MoundsvilleWWTP-01												Marshall		
A01-0081	14265	OneStep RT-ddPCR	Human RNase P	19.8	21037.5					11/18/21	Manual	DQ	58477038	QX 200	CDC nCov-2 Triplex	D3	AP0020	B03	JL	SARS-CoV-2 N1	59.4	0	1193.4	63112.5	SARS-CoV-2 N2	59.4	0	1245	63112.5																																					0.005	Sample		11/11/21	10	NT04474	Kookaburra	Ceres Nanotrap	0.425		CP0034	A03	JL	WWTP	Sample	11/11/21	0.4	2108255	Kookaburra	Thermo Magmax Microbiome Ultra Nucleic Acid Isolation Kit	0.05	D3	EP0034	A03	JL	StarCityWWTP-01	GG	11/4/21 23:55	Composite	11/4/21 23:55	11/4/21 0:00			Pass	JL	11/5/21	6.86	Monongalia	Processing	Complete
A02-0358																																																																																											WVU-Morgantown												Monongalia		
F01-0024	6375	OneStep RT-ddPCR	Human RNase P	33.24146271	35319.05413	None				11/8/21	Manual	DQ	58477038	QX 200	CDC nCov-2 Triplex	A7	AP0017	A07	AJ	SARS-CoV-2 N1	14.76818562	0	560.2787018	15691.19722	SARS-CoV-2 N2	11.07527018	0	653.7683868	11767.47456																																					0.005	Sample		11/5/21	10	NT04474	Kookaburra	Ceres Nanotrap	0.425		CP00033	B01	JL	WWTP	Sample	11/5/21	0.4	21108255	Kookaburra	Thermo Magmax Microbiome Ultra Nucleic Acid Isolation Kit	0.05	A7	EP0033	A07	JL	WestonWWTP-01	BP	11/3/21 14:00	Composite	11/3/21 10:00	11/2/21 10:00			Pass	JL	11/5/21	6.81	Lewis	Processing	Confirming
A02-0364																																																																																											WVU-Morgantown												Monongalia		
A01-0091	20727	OneStep RT-ddPCR	Human RNase P	36.3546586	64756.73564	None				11/29/21	Manual	DQ	58477038	QX 200	CDC nCov-2 Triplex	NAB_16 A1	AP0022	A06	JL	SARS-CoV-2 N1	53.41526031	0	1092.976303	95145.93244	SARS-CoV-2 N2	48.86455536	0	1279.930573	87039.98923																																					0.005	Sample		2021-11-19	10	NT04474	Halcyon	Ceres Nanotrap	0.475		CP0038	B02	AJ	WWTP	Sample	2021-11-19	0.4	2108255	Halcyon	Ultra 2.0 Microbiome (Thermo)	0.075	NAB_16 A1	EP0038	A06	AJ	StarCityWWTP-01	GG	11/16/21 23:55	Composite	11/16/21 23:55	11/16/21 0:00			Pass	AJ	11/29/21	7.27	Monongalia	Processing	Complete
A1030	11104	OneStep RT-ddPCR	Human RNase P		68688					4/19/21	Manual	DQ		QX 200	CDC nCov-2 Triplex					SARS-CoV-2 N1				7632	SARS-CoV-2 N2				0																																				CDC N1/N2/RP Triplex	0.005	Sample		4/16/21	100			PEG Precipitation	6				JL	WWTP	Sample	4/19/21	0.2			Qiagen QiaAMP Viral Mini-RNA Kit	0.06				JL	StarCityWWTP-01	EL	4/15/21 12:00	Composite	4/16/21 12:00	4/15/21 12:00	10.003		Pass	MVS	4/16/21		Monongalia	Processing	Complete
A02-0278																																																																																											WVU-Morgantown												Monongalia		
A02-0042	14143	OneStep RT-ddPCR	Human RNase P	1281.591644	1361691.122					8/27/21	Manual	DQ	58477036	QX One	CDC nCov-2 Triplex	C2	AP0005	B02	JL	SARS-CoV-2 N1	1424.533081	0	2615.09491	1513566.399	SARS-CoV-2 N2	1206.389771	0	2786.116028	1281789.131																																				CDC N1/N2/RP Triplex	0.005	Sample		8/27/21	10	NT04155	Kookaburra	Ceres Nanotrap	0.425		CP0005	B04	JL	WVU Morgantown	Sample	8/27/21	0.4	2102028	Kookaburra	Thermo Magmax Microbiome Ultra Nucleic Acid Isolation Kit	0.05	C2	EP0005	A10	JL	NorthHighSt-02 (MUB)	EL	8/25/21 9:48	Grab	8/25/21 9:48	8/25/21 9:48			Pass	JL	8/25/21	8.31	Monongalia	Processing	Complete
A03-0137																																																																																											NorthES-01												Monongalia		
J01-0019																																																																															WWTP												AlpineLakeWWTP-01												Preston		
H01-0023	14822	OneStep RT-ddPCR	Human RNase P	6.350718737	6747.638658	None				11/4/21	Manual	DQ	58477038	QX 200	CDC nCov-2 Triplex	J5	AP0016	E05	JL	SARS-CoV-2 N1	11.11488223	0	1040.980072	11809.56237	SARS-CoV-2 N2	12.70315051	0	1205.935364	13497.09742																																					0.005	Sample	SAME DATES AS H01-0026	11/3/21	10	NT04474	Halcyon	Ceres Nanotrap	0.425		CP0032	C01	JL	WWTP	Sample	11/3/21	0.4	21108255	Kookaburra	Thermo Magmax Microbiome Ultra Nucleic Acid Isolation Kit	0.05	J5	EP0032	B01	JL	MoundsvilleWWTP-01	DRC	10/26/21 8:15	Composite	10/26/21 8:00	10/25/21 8:00			Pass	JL	10/29/21	7.08	Marshall	Processing	Complete
A03-0162																																																																																											MountainviewES-01												Monongalia		
A02-0189		OneStep RT-ddPCR	Human RNase P			None				11/1/21	CHECK	ABS	58477038	QX 200	CDC nCov-2 Triplex	B4	AP0015	B04	JL	SARS-CoV-2 N1					SARS-CoV-2 N2																																									0.005	Sample		10/25/21	10	NT04474	Halcyon	Ceres Nanotrap	0.425		CP0028	B06	JL	WVU Morgantown	Sample	10/25/21	0.4	2108255	Halcyon	Thermo Magmax Microbiome Ultra Nucleic Acid Isolation Kit	0.05	B4	EP0028	B04	JL	NorthHighSt-02 (MUB)	CA	10/25/21 10:44	Composite	10/25/21 10:44	10/23/21 10:44			Pass	JL	10/25/21	7.15	Monongalia	Processing	Processing
A0222	16140	OneStep RT-ddPCR	Human RNase P		3504					2/22/21	Manual	DQ			CDC nCov-2 Triplex					SARS-CoV-2 N1				38496	SARS-CoV-2 N2				52512																																				CDC N1/N2/RP Triplex	0.005	Sample		2/5/21	100			PEG Precipitation	4				MS	WWTP	Sample	2/19/21	0.2			Qiagen QiaAMP Viral Mini-RNA Kit	0.06				MS	StarCityWWTP-01	GS	1/18/21 0:00	Composite	1/18/21 23:59	1/18/21 0:00	8.321		Pass	TD	1/22/21		Monongalia	Processing	Complete
A1043	12654	OneStep RT-ddPCR	Human RNase P		39060					5/7/21	Manual	DQ		QX 200	CDC nCov-2 Triplex					SARS-CoV-2 N1				0	SARS-CoV-2 N2				0																																				CDC N1/N2/RP Triplex	0.005	Sample	Reconc vol estimated	5/7/21	100			PEG Precipitation	5					WWTP	Sample		0.2			Qiagen QiaAMP Viral Mini-RNA Kit	0.06					StarCityWWTP-01	GG	5/4/21 23:55	Composite	5/4/21 23:55	5/4/21 0:00	11.798		Pass	Josh Lambert	5/7/21		Monongalia	Processing	Complete
A02-0013	11125	OneStep RT-ddPCR				BRSV	534.7823715	568206.2697		8/13/21	Manual	DQ		QX 200	BRSV Triplex		AP000000	A04	JL	SARS-CoV-2 N1	12.6934433	0	2236.361694	13486.7835	SARS-CoV-2 N2	10.57739377	0	2276.707153	11238.48063																																				CDC N1/N2/RP Triplex	0.005	Sample		8/13/21	10	NT04155	Kookaburra	Ceres Nanotrap	0.425		CP000000	A04	JL	WVU Morgantown	Sample	8/13/21	0.4	2102028	Kookaburra	Thermo Magmax Microbiome Ultra Nucleic Acid Isolation Kit	0.05		EP000000	A04	JL	CollegePark-02	EL	8/11/21 9:48	Composite	8/11/21 9:00	8/10/21 9:00			Pass	JL	8/11/21	7.87	Monongalia	Processing	Complete
A02-0140	14328	OneStep RT-ddPCR	Human RNase P	25.17905235	26752.74312					10/11/21	Manual	DQ	58477037	QX One	CDC nCov-2 Triplex	F3	AP0012	C01	JL	SARS-CoV-2 N1	0	0	1593.187866	0	SARS-CoV-2 N2	2.960690558	0	2077.493896	3145.733718																																				CDC N1/N2/RP Triplex	0.005	Sample		10/5/21	10	NT04474	Halcyon	Ceres Nanotrap	0.425		CP0020	A03	JL	WVU Morgantown	Sample	10/5/21	0.4	2108052	Halcyon	Thermo Magmax Microbiome Ultra Nucleic Acid Isolation Kit	0.05	F3	EP0020	A03	JL	OaklandE-02	EL	10/4/21 9:35	Composite	10/4/21 9:00	10/2/21 9:00			Pass	JL	10/4/21	8.16	Monongalia	Processing	Complete
A02-0002	20957	OneStep RT-ddPCR				BRSV	0	0		8/13/21	Manual	DQ		QX 200	BRSV Triplex		AP000000	C01	JL	SARS-CoV-2 N1	6.737446785	0	2236.361694	7158.53721	SARS-CoV-2 N2	5.614405274	0	2276.707153	5965.30548																																				CDC N1/N2/RP Triplex	0.005	Sample		8/13/21	10	NT04155	Kookaburra	Ceres Nanotrap	0.425		CP000000	C05	JL	WVU Morgantown	Sample	8/13/21	0.4	2102028	Kookaburra	Thermo Magmax Microbiome Ultra Nucleic Acid Isolation Kit	0.05		EP000000	C05	JL	OaklandE-02	EL	8/12/21 9:00	Composite	8/12/21 9:00	8/11/21 9:00			Pass	JL	8/13/21	6.65	Monongalia	Processing	Complete
H01-0067																																																																															WWTP												MoundsvilleWWTP-01												Marshall		
A0214	16742	OneStep RT-ddPCR	Human RNase P		3384					2/22/21	Manual	DQ			CDC nCov-2 Triplex					SARS-CoV-2 N1				131712	SARS-CoV-2 N2				101280																																				CDC N1/N2/RP Triplex	0.005	Sample		2/5/21	100			PEG Precipitation	4				MS	WWTP	Sample	2/17/21	0.2			Qiagen QiaAMP Viral Mini-RNA Kit	0.06				MS	StarCityWWTP-01	GS	1/6/21 0:00	Composite	1/6/21 23:59	1/6/21 0:00	10.083		Pass	TD	1/8/21		Monongalia	Processing	Complete
A02-0293																																																																																											WVU-Morgantown												Monongalia		
H01-0004	8479	OneStep RT-ddPCR	Human RNase P	5.550698638	5897.617303	None				10/20/21	Manual	DQ	58477038	QX One	CDC nCov-2 Triplex	I2	AP0014	B05	JL	SARS-CoV-2 N1	33.32385063	0	2152.007294	35406.5913	SARS-CoV-2 N2	16.65602565	0	2493.552246	17697.02725																																				CDC N1/N2/RP Triplex	0.005	Sample		10/18/21	10	NT04474	Halcyon	Ceres Nanotrap	0.425		CP0026	C02	JL	WWTP	Sample	10/18/21	0.4	2108255	Halcyon	Thermo Magmax Microbiome Ultra Nucleic Acid Isolation Kit	0.05	I2	EP0026	B02	JL	MoundsvilleWWTP-01	DRC	10/2/21 8:15	Composite	10/2/21 8:00	10/1/21 8:00			Pass	JL	10/8/21	6.88	Marshall	Processing	Complete
A02-0004	14984	OneStep RT-ddPCR				BRSV	0	0		8/13/21	Manual	DQ		QX 200	BRSV Triplex		AP000000	B08	JL	SARS-CoV-2 N1	0	0	2236.361694	0	SARS-CoV-2 N2	0	0	2276.707153	0																																				CDC N1/N2/RP Triplex	0.005	Sample		8/13/21	10	NT04155	Kookaburra	Ceres Nanotrap	0.425		CP000000	C04	JL	WVU Morgantown	Sample	8/13/21	0.4	2102028	Kookaburra	Thermo Magmax Microbiome Ultra Nucleic Acid Isolation Kit	0.05		EP000000	C04	JL	NorthHighSt-02 (MUB)	EL	8/12/21 10:05	Composite	8/12/21 9:00	8/11/21 9:00			Pass	JL	8/12/21		Monongalia	Processing	Complete
A01-0129																																																																																											StarCityWWTP-01												Monongalia		
C01-0037	14517	OneStep RT-ddPCR	Human RNase P	19.45785642	20673.97244	None				11/22/21	Manual	DQ	58477038	QX 200	CDC nCov-2 Triplex	I5	AP0021	A05	JL	SARS-CoV-2 N1	60.04681587	1109.141006	0	63799.74186	SARS-CoV-2 N2	76.30201817	1229.36615	0	81070.8943																																					0.005	Sample		11/16/21	10	NT04474	Kookaburra	Ceres Nanotrap	0.425		CP0036	B01	AJ	WWTP	Sample	11/16/21	0.4	2108255	Kookaburra	Thermo Magmax Microbiome Ultra Nucleic Acid Isolation Kit	0.05	I5	EP0036	A05	AJ	WheelingWWTP-01	GZ	11/11/21 7:00	Composite	11/11/21 7:00	11/10/21 7:00			Pass	JL	11/12/21	6.26	Ohio	Processing	Complete
A0028	10501	OneStep RT-ddPCR	Human RNase P		9676.8					12/14/20	Manual	DQ			CDC nCov-2 Triplex					SARS-CoV-2 N1				9676.8	SARS-CoV-2 N2				9676.8																																				CDC N1/N2/RP Triplex	0.005	Sample		12/4/20	100			PEG Precipitation	3.6				MS	WWTP	Sample	12/7/20	0.2			Qiagen QiaAMP Viral Mini-RNA Kit	0.06				MS	StarCityWWTP-01	GG	11/26/20 0:00	Composite	11/26/20 23:59	11/26/20 0:00	7.039		Pass	TD	11/30/20		Monongalia	Processing	Complete
A1092	14288	OneStep RT-ddPCR		77.53		BRSV		184133.75		7/30/21	Manual	DQ			BRSV Triplex					SARS-CoV-2 N1	0			0	SARS-CoV-2 N2	0			0																																				N1/N2/BRSV Triplex	0.005	Sample		7/30/21	10			Ceres Nanotrap	0.95					WWTP	Sample	7/30/21	0.4			Thermo Magmax Microbiome Ultra Nucleic Acid Isolation Kit	0.05				JL	StarCityWWTP-01	EL	7/14/21 23:55	Composite	7/14/21 23:55	7/14/21 0:00	9.954		Pass	JL	7/30/21		Monongalia	Processing	Complete
A02-0342																																																																																											WVU-Morgantown												Monongalia		
A01-0068	44.8	OneStep RT-ddPCR	Human RNase P			None				11/1/21	OK	ABS	58477038	QX 200	CDC nCov-2 Triplex	B1	AP0015	B01	JL	SARS-CoV-2 N1					SARS-CoV-2 N2																																									0.005	Sample		10/25/21	10	NT04474	Halcyon	Ceres Nanotrap	0.425		CP0028	B03	JL	WWTP	Sample	10/25/21	0.4	2108255	Halcyon	Thermo Magmax Microbiome Ultra Nucleic Acid Isolation Kit	0.05	B1	EP0028	B01	JL	StarCityWWTP-01	GG	10/20/21 23:55	Composite	10/20/21 23:55	10/20/21 0:00	7.189 		Pass	JL	10/25/21	7.36	Monongalia	Processing	Confirming
C01-0003	18909	OneStep RT-ddPCR	Human RNase P	57.30983257	60891.69711					9/20/21	Manual	DQ	58477037	QX 200	CDC nCov-2 Triplex	F7	AP0008	D07	JL	SARS-CoV-2 N1	368.7127686	0	1320.22522	391757.3166	SARS-CoV-2 N2	310.6403351	0	1524.019623	330055.356																																				CDC N1/N2/RP Triplex	0.005	Sample	Water was very dirty with solid matter; water was colored black essentially when unsettled.	9/17/21	10	NT04155	Halcyon	Ceres Nanotrap	0.425		CP0013	B03	JL	WWTP	Sample	9/17/21	0.4	2105033	Halcyon	Thermo Magmax Microbiome Ultra Nucleic Acid Isolation Kit	0.05	F7	EP0012	A07	JL	WheelingWWTP-01	MVC	9/15/21 7:00	Composite	9/15/21 7:00	9/14/21 7:00			Pass	JL	9/17/21	4.81	Ohio	Processing	Complete
A01-0122																																																																																											StarCityWWTP-01												Monongalia		
A03-0018	12261	OneStep RT-ddPCR	Human RNase P	46.10221386	48983.60223	None				11/8/21	Manual	DQ	58477038	QX 200	CDC nCov-2 Triplex	G3	AP0017	D03	AJ	SARS-CoV-2 N1	0	0	560.2787018	0	SARS-CoV-2 N2	0	0	653.7683868	0																																					0.005	Sample		10/15/21	10	NT04474	Halcyon	Ceres Nanotrap	0.425		CP0025	D01	JL	K-12	Sample	10/15/21	0.4	2108255	Halcyon	Thermo Magmax Microbiome Ultra Nucleic Acid Isolation Kit	0.05	G3	EP0025	D01	JL	SuncrestES-01	BL	10/8/21 14:25	Composite	10/1/21 14:00	10/1/21 6:00			Pass	JL	10/15/21		Monongalia	Processing	Complete
A01-0038	12980	OneStep RT-ddPCR	Human RNase P	12.69262791	13485.91715					9/20/21	Manual	DQ	58477037	QX 200	CDC nCov-2 Triplex	G7	AP0008	E07	JL	SARS-CoV-2 N1	83.53430748	0	1320.22522	88755.2017	SARS-CoV-2 N2	68.98528576	0	1524.019623	73296.86612																																				CDC N1/N2/RP Triplex	0.005	Sample		9/17/21	10	NT04155	Halcyon	Ceres Nanotrap	0.425		CP0013	D03	JL	WWTP	Sample	9/17/21	0.4	2105033	Halcyon	Thermo Magmax Microbiome Ultra Nucleic Acid Isolation Kit	0.05	G7	EP0012	B03	JL	StarCityWWTP-01	GG	9/15/21 23:55	Composite	9/15/21 23:55	9/15/21 0:00	7.723		Pass	JL	9/15/21	6.78	Monongalia	Processing	Complete
A02-0045																																																																			Sample													Sample																									Unknown
A02-0272																																																																																											WVU-Morgantown												Monongalia		
E02-0004	11872	OneStep RT-ddPCR	Human RNase P	4	4250					11/18/21	Manual	DQ	58477038	QX 200	CDC nCov-2 Triplex	E2	AP0020	C02	JL	SARS-CoV-2 N1	2	0	1193.4	2125	SARS-CoV-2 N2	0	0	1245	0																																					0.005	Sample		11/11/21	10	NT04474	Kookaburra	Ceres Nanotrap	0.425		CP0034	C02	JL	WWTP	Sample	11/11/21	0.4	2108255	Kookaburra	Thermo Magmax Microbiome Ultra Nucleic Acid Isolation Kit	0.05	E2	EP0034	B02	JL	AthensWWTP-01	-	11/6/21 8:00	Composite	11/6/21 8:00	11/5/21 8:00			Pass	JL	11/8/21	6.65	Mercer	Processing	Complete
A1090	12985	OneStep RT-ddPCR		112.62		BRSV		267472.5		7/30/21	Manual	DQ			BRSV Triplex					SARS-CoV-2 N1	0			0	SARS-CoV-2 N2	1.81			4298.75																																				N1/N2/BRSV Triplex	0.005	Sample		7/30/21	10			Ceres Nanotrap	0.95					WWTP	Sample	7/30/21	0.4			Thermo Magmax Microbiome Ultra Nucleic Acid Isolation Kit	0.05				JL	StarCityWWTP-01	EL	7/12/21 23:55	Composite	7/12/21 23:55	7/12/21 0:00	10.434		Pass	JL	7/30/21		Monongalia	Processing	Complete
A0034	15971	OneStep RT-ddPCR	Human RNase P		84912					12/14/20	Manual	DQ			CDC nCov-2 Triplex					SARS-CoV-2 N1				106176	SARS-CoV-2 N2				99096																																				CDC N1/N2/RP Triplex	0.005	Sample		12/7/20	100			PEG Precipitation	4				MS	WWTP	Sample	12/8/20	0.2			Qiagen QiaAMP Viral Mini-RNA Kit	0.06				MS	StarCityWWTP-01	GG	12/6/20 0:00	Composite	12/6/20 23:59	12/6/20 0:00	8.141 		Pass	TD	12/7/20		Monongalia	Processing	Complete
K01-0032																																																																																											ParkersburgWWTP-01												Wood		
H01-0044																																																																															WWTP												MoundsvilleWWTP-01		11/20/2021 09:15 AM	Composite	11/20/2021 08:00 AM	11/19/2021 08:00 AM			Fail: Temperature Above Threshold	JL	11/29/2021		Marshall		
A02-0340																																																																																											WVU-Morgantown												Monongalia		
A0205	17242	OneStep RT-ddPCR	Human RNase P		4896					2/22/21	Manual	DQ			CDC nCov-2 Triplex					SARS-CoV-2 N1				29484	SARS-CoV-2 N2				29484																																				CDC N1/N2/RP Triplex	0.005	Sample		1/4/21	100			PEG Precipitation	6				MS	WWTP	Sample	2/17/21	0.2			Qiagen QiaAMP Viral Mini-RNA Kit	0.06				MS	StarCityWWTP-01	GG	12/30/20 0:00	Composite	12/30/20 23:59	12/30/20 0:00	9.604		Pass	TD	1/7/21		Monongalia	Processing	Complete
A02-0280																																																																																											WVU-Morgantown												Monongalia		
B01-0065	16236	OneStep RT-ddPCR	Human RNase P	2.89860308170318	5163.13673928379	None				2021-12-03	Manual	DQ	58477038	QX 200	CDC nCov-2 Triplex	H8	AP0023	D08	JL	SARS-CoV-2 N1	1.44925683736801	0	1030.21682739258	2581.48874156177	SARS-CoV-2 N2	4.34803873300552	0	1109.43168640137	7744.94399316608																																					0.005	Sample		2021-11-30	10	NT04474	Halcyon	Ceres Nanotrap	0.475		CP0041	C04	AJ	WWTP	Sample	2021-11-30	0.4	2108255	Halcyon	Thermo Magmax Microbiome Ultra Nucleic Acid Isolation Kit	0.075	H8	EP0041	B08	AJ	CharlestonWWTP-01	-	11/26/2021 07:30 AM	Composite	11/26/2021 07:00 AM	11/25/2021 07:00 AM			Pass	AJ	11/30/2021	7.25	Kanawha	Processing	Unknown
J01-0006																																																																															WWTP												AlpineLakeWWTP-01												Preston		
J01-0012																																																																															WWTP												AlpineLakeWWTP-01												Preston		
A01-0090	11354	OneStep RT-ddPCR	Human RNase P	53.94277096	57314.19414	None				11/22/21	Manual	DQ	58477038	QX 200	CDC nCov-2 Triplex	K4	AP0021	C04	JL	SARS-CoV-2 N1	37.33181953	1109.141006	0	39665.05826	SARS-CoV-2 N2	26.95592642	1229.36615	0	28640.67182																																					0.005	Sample	NO FLOW	11/17/21	10	NT04474	Halcyon	Ceres Nanotrap	0.425		CP0037	A04	JL	WWTP	Sample	11/17/21	0.4	2108255	Halcyon	Thermo Magmax Microbiome Ultra Nucleic Acid Isolation Kit	0.05	K4	EP0037	A04	JL	StarCityWWTP-01	GG	11/15/21 23:55	Composite	11/15/21 23:55	11/15/21 0:00			Pass	JL	11/16/21	7.2	Monongalia	Processing	Complete
A02-0184		OneStep RT-ddPCR	Human RNase P			None				11/1/21	CHECK	ABS	58477038	QX 200	CDC nCov-2 Triplex	A7	AP0015	A07	JL	SARS-CoV-2 N1					SARS-CoV-2 N2																																									0.005	Sample		10/25/21	10	NT04474	Halcyon	Ceres Nanotrap	0.425		CP0028	B01	JL	WVU Morgantown	Sample	10/25/21	0.4	2108255	Halcyon	Thermo Magmax Microbiome Ultra Nucleic Acid Isolation Kit	0.05	A7	EP0028	A07	JL	NorthHighSt-02 (MUB)	EL	10/22/21 10:15	Composite	10/22/21 10:15	10/20/21 10:15			Pass	JL	10/25/21	7.49	Monongalia	Processing	Processing
A02-0257																																																																																											WVU-Morgantown												Monongalia		
A01-0111	14138	OneStep RT-ddPCR	Human RNase P	24.9772644042968	44490.7522201537	None				2021-12-03	Manual	DQ	58477038	QX 200	CDC nCov-2 Triplex	H5	AP0023	D05	JL	SARS-CoV-2 N1	569.355659484864	0	1030.21682739258	1014164.76845741	SARS-CoV-2 N2	509.755172729492	0	1109.43168640137	908001.401424407																																					0.005	Sample		2021-11-30	10	NT04474	Halcyon	Ceres Nanotrap	0.475		CP0041	C01	AJ	WWTP	Sample	2021-11-30	0.4	2108255	Halcyon	Thermo Magmax Microbiome Ultra Nucleic Acid Isolation Kit	0.075	H5	EP0041	B05	AJ	StarCityWWTP-01	-	11/29/21 0:00	Composite	11/28/21 23:55	11/28/21 0:00			Pass	AJ	11/30/21	7.13	Monongalia	Processing	Complete
H01-0071																																																																															WWTP												MoundsvilleWWTP-01												Marshall		
A0031	9322	OneStep RT-ddPCR	Human RNase P		51510					12/14/20	Manual	DQ			CDC nCov-2 Triplex					SARS-CoV-2 N1				82456.8	SARS-CoV-2 N2				82456.8																																				CDC N1/N2/RP Triplex	0.005	Sample		12/4/20	100			PEG Precipitation	3.4				MS	WWTP	Sample	12/7/20	0.2			Qiagen QiaAMP Viral Mini-RNA Kit	0.06				MS	StarCityWWTP-01	GG	12/1/20 0:00	Composite	12/1/20 23:59	12/1/20 0:00	11.562 		Pass	TD	12/4/20		Monongalia	Processing	Complete
A0244	12491	OneStep RT-ddPCR	Human RNase P		37976.4					11/20/20	Manual	DQ			CDC nCov-2 Triplex					SARS-CoV-2 N1				66502.8	SARS-CoV-2 N2				71240.4																																				CDC N1/N2/RP Triplex	0.005	Sample		11/16/20	100			PEG Precipitation	4.2				MS	WWTP	Sample	11/17/20	0.2			Qiagen QiaAMP Viral Mini-RNA Kit	0.06				MS	StarCityWWTP-01	DW	11/16/20 0:00	Composite	11/16/20 23:59	11/16/20 0:00	6.501		Pass	TD	12/7/20		Monongalia	Processing	Complete
L01-0044																																																																																											WestUnionWWTP-01												Doddridge		
A02-0249																																																																															WVU Morgantown												HonorsSummit-01 (MUB)	GZ	12/06/2021 09:36 AM	Composite	12/06/2021 09:00 AM	12/04/2021 09:00 AM			Pass	AJ	12/06/2021	7.55	Monongalia		
A01-0016	12456	OneStep RT-ddPCR	Human RNase P	7.101867199	7545.733899					9/2/21	Manual	DQ		QX One	BRSV Triplex	F3	AP000000	C01	JL	SARS-CoV-2 N1	104.9845505	0	3138.026123	111546.0849	SARS-CoV-2 N2	58.65873337	0	3336.080627	62324.9042																																				CDC N1/N2/RP Triplex	0.005	Sample		9/2/21	10	 NT04155	Kookaburra	Ceres Nanotrap	0.425		CP0007	A03	JL	WWTP	Sample	9/2/21	0.4	2102028	Halcyon	Thermo Magmax Microbiome Ultra Nucleic Acid Isolation Kit	0.05	F3	EP0007	A03	JL	StarCityWWTP-01	GG	8/26/21 23:55	Composite	8/26/21 23:55	8/26/21 0:00	8.963		Pass	JL	8/27/21	6.97	Monongalia	Processing	Complete
A02-0201	11925	OneStep RT-ddPCR	Human RNase P	9.86765027	10484.37841	None				11/4/21	Manual	DQ	58477038	QX 200	CDC nCov-2 Triplex	G4	AP0016	B04	JL	SARS-CoV-2 N1	1.97319895	0	1040.980072	2096.523885	SARS-CoV-2 N2	3.946563601	0	1205.935364	4193.223827																																					0.005	Sample		11/2/21	10	NT04474	Kookaburra	Ceres Nanotrap	0.425		CP0031	D03	JL	WVU Morgantown	Sample	11/2/21	0.4	21108255	Kookaburra	Thermo Magmax Microbiome Ultra Nucleic Acid Isolation Kit	0.05	G4	EP0031	B04	JL	OaklandE-02	EL	11/1/21 9:48	Composite	11/1/21 9:00	10/30/21 9:00			Pass	JL	11/1/21	6.78	Monongalia	Processing	Complete
L01-0009																																																																																											WestUnionWWTP-01												Doddridge		
A1100	16556	OneStep RT-ddPCR		12.79		BRSV		30376.25		7/30/21	Manual	DQ			BRSV Triplex					SARS-CoV-2 N1	0			0	SARS-CoV-2 N2	0			0																																				N1/N2/BRSV Triplex	0.005	Sample		7/30/21	10			Ceres Nanotrap	0.95					WWTP	Sample	7/30/21	0.4			Thermo Magmax Microbiome Ultra Nucleic Acid Isolation Kit	0.05				JL	StarCityWWTP-01	EL	7/29/21 23:55	Composite	7/29/21 23:55	7/29/21 0:00	7.981		Pass	JL	7/30/21		Monongalia	Processing	Complete
G02-0009																																																																			Sample												WVU Keyser	Sample											PotomacState-01	-	11/1/21 11:25	Composite	11/1/21 11:00	10/30/21 10:00			Pass	JL	11/2/21	7.08	Mineral	Processing	Processing
A02-0088	13784	OneStep RT-ddPCR	Human RNase P	61.53271198	65378.50648					9/9/21	Manual	DQ	58477037	QX 200	CDC nCov-2 Triplex	L3	AP0007	B03	JL	SARS-CoV-2 N1	118.0794048	0	1303.838043	125459.3676	SARS-CoV-2 N2	32.45554447	0	1366.207123	34484.016																																				CDC N1/N2/RP Triplex	0.005	Sample		9/8/21	10	NT04155	Halcyon	Ceres Nanotrap	0.425		CP0010	A03	JL	WVU Morgantown	Sample	9/8/21	0.4	2102028	Halcyon	Thermo Magmax Microbiome Ultra Nucleic Acid Isolation Kit	0.05	L3	EP0010	A03	JL	HonorsSummit-01 (MUB)	EL	9/8/21 9:45	Composite	9/8/21 8:38	9/6/21 8:38			Pass	JL	9/8/21	7.21	Monongalia	Processing	Complete
A01-0112	7628	OneStep RT-ddPCR	Human RNase P	0	0	None				2021-12-03	Manual	DQ	58477038	QX 200	CDC nCov-2 Triplex	H6	AP0023	D06	JL	SARS-CoV-2 N1	0	0	1030.21682739258	0	SARS-CoV-2 N2	0	0	1109.43168640137	0																																					0.005			2021-11-30	10	NT04474	Halcyon	Ceres Nanotrap	0.475		CP0041	C02	AJ	WWTP		2021-11-30	0.4	2108255	Halcyon	Thermo Magmax Microbiome Ultra Nucleic Acid Isolation Kit	0.075	H6	EP0041	B06	AJ	StarCityWWTP-01	AJ	11/30/2021 12:00 AM	Composite	11/30/2021 12:00 AM	11/29/2021 12:00 AM			Pass	AJ	11/30/2021	7.18	Monongalia	Processing	Confirming
L01-0047																																																																																											WestUnionWWTP-01												Doddridge		
F01-0022	15262	OneStep RT-ddPCR	Human RNase P	9.252012968	9830.263779	None				11/4/21	Manual	DQ	58477038	QX 200	CDC nCov-2 Triplex	K6	AP0016	F06	JL	SARS-CoV-2 N1	29.31053162	0	1040.980072	31142.43984	SARS-CoV-2 N2	24.68012571	0	1205.935364	26222.63357																																					0.005	Sample		11/3/21	10	NT04474	Halcyon	Ceres Nanotrap	0.425		CP0032	D04	JL	WWTP	Sample	11/3/21	0.4	21108255	Kookaburra	Thermo Magmax Microbiome Ultra Nucleic Acid Isolation Kit	0.05	K6	EP0032	B10	JL	WestonWWTP-01	BP	11/2/21 10:30	Composite	11/2/21 10:00	11/1/21 10:00			Pass	JL	11/3/21	7.07	Lewis	Processing	Complete
A01-0128																																																																																											StarCityWWTP-01												Monongalia		
A02-0060	13857	OneStep RT-ddPCR	Human RNase P	102.1847153	108571.26					8/30/21	Manual	DQ	58477036	QX One	CDC nCov-2 Triplex	E2	AP0005	B04	JL	SARS-CoV-2 N1	5.014951229	0	2615.09491	5328.385681	SARS-CoV-2 N2	5.014951229	0	2786.116028	5328.385681																																				CDC N1/N2/RP Triplex	0.005	Sample		8/27/21	10	XXXXXX	Halcyon	Ceres Nanotrap	0.425		CP000000	A02	JL	WVU Morgantown	Sample	8/30/21	0.4	2102028	Kookaburra	Thermo Magmax Microbiome Ultra Nucleic Acid Isolation Kit	0.05	E2	EP0006	A02	JL	Evansdale-01	EL	8/30/21 9:23	Grab	8/30/21 9:23	8/30/21 9:23			Pass	JL	8/30/21	6.11	Monongalia	Processing	Complete
B01-0016	8988	OneStep RT-ddPCR	Human RNase P	2.61801511	2781.641055	None				10/20/21	Manual	DQ	58477038	QX One	CDC nCov-2 Triplex	J1	AP0014	G07	JL	SARS-CoV-2 N1	18.33222628	0	2152.007294	19477.99042	SARS-CoV-2 N2	34.05694008	0	2493.552246	36185.49883																																				CDC N1/N2/RP Triplex	0.005	Sample		10/18/21	10	NT04474	Halcyon	Ceres Nanotrap	0.425		CP0026	D05	JL	WWTP	Sample	10/18/21	0.4	2108255	Halcyon	Thermo Magmax Microbiome Ultra Nucleic Acid Isolation Kit	0.05	J1	EP0026	B09	JL	CharlestonWWTP-01	KM	10/8/21 8:15	Composite	10/8/21 7:00	10/7/21 7:00			Pass	KM	10/13/21	6.93	Kanawha	Processing	Complete
A02-0100	13193	OneStep RT-ddPCR	Human RNase P	985.2019501	1046777.072					9/20/21	Manual	DQ	58477037	QX 200	CDC nCov-2 Triplex	B7	AP0008	B07	JL	SARS-CoV-2 N1	66.08135223	0	1320.22522	70211.43675	SARS-CoV-2 N2	121.5900517	0	1524.019623	129189.4299																																				CDC N1/N2/RP Triplex	0.005	Sample		9/13/21	10	NT04155	Halcyon	Ceres Nanotrap	0.425		CP0011	C03	JL	WVU Morgantown	Sample	9/13/21	0.4	2105033	Halcyon	Thermo Magmax Microbiome Ultra Nucleic Acid Isolation Kit	0.05	B7	EP0011	B03	JL	HonorsSummit-01 (MUB)	EL	9/13/21 9:51	Grab	9/13/21 9:51	9/13/21 9:51			Pass	JL	9/13/21	8.5	Monongalia	Processing	Complete
A03-0115																																																																															K-12												MountainviewES-01	GZ	12/07/2021 10:25 AM	Composite	12/06/2021 02:00 PM	12/06/2021 06:00 AM							Monongalia		
C01-0044	10238	OneStep RT-ddPCR	Human RNase P	0	0	None				2021-12-03	Manual	DQ	58477038	QX 200	CDC nCov-2 Triplex	G2	AP0023	C02	JL	SARS-CoV-2 N1	85.1890182495118	0	1030.21682739258	151742.938756943	SARS-CoV-2 N2	25.2942633628846	0	1109.43168640137	45055.4066151382																																					0.005			2021-11-30	10	NT04474	Halcyon	Ceres Nanotrap	0.475		CP0041	A02	AJ	WWTP		2021-11-30	0.4	2108255	Halcyon	Thermo Magmax Microbiome Ultra Nucleic Acid Isolation Kit	0.075	G2	EP0041	A02	AJ	WheelingWWTP-01	-	11/24/2021 07:00 AM	Composite	11/24/2021 07:00 AM	11/23/2021 07:00 AM			Pass	AJ	11/30/2021	6.22	Ohio	Processing	Complete
A03-0154																																																																																											MountainviewES-01												Monongalia		
A1091	12917	OneStep RT-ddPCR		104.06		BRSV		247142.5		7/30/21	Manual	DQ			BRSV Triplex					SARS-CoV-2 N1	1.82			4322.5	SARS-CoV-2 N2	1.82			4322.5																																				N1/N2/BRSV Triplex	0.005	Sample		7/30/21	10			Ceres Nanotrap	0.95					WWTP	Sample	7/30/21	0.4			Thermo Magmax Microbiome Ultra Nucleic Acid Isolation Kit	0.05				JL	StarCityWWTP-01	EL	7/13/21 23:55	Composite	7/13/21 23:55	7/13/21 0:00	9.555		Pass	JL	7/30/21		Monongalia	Processing	Complete
A02-0034	14372	OneStep RT-ddPCR	Human RNase P	682.9196167	725602.0927					8/23/21	CHECK	DQ	58477036	QX One	CDC nCov-2 Triplex	J1	AP0004	C04	JL	SARS-CoV-2 N1	18.47408295	-20	2835.271912	19628.71313	SARS-CoV-2 N2	18.47408295	-20	3151.898499	19628.71313																																				CDC N1/N2/RP Triplex	0.005	Sample		8/23/21	10	NT04155	Kookaburra	Ceres Nanotrap	0.425		CP000002	B03	JL	WVU Morgantown	Sample	8/23/21	0.4	2102028	Kookaburra	Thermo Magmax Microbiome Ultra Nucleic Acid Isolation Kit	0.05		EP000002	A09	JL	CollegePark-02	EL	8/23/21 10:12	Composite	8/23/21 9:00	8/21/21 9:00			Pass	JL	8/23/21	8.07	Monongalia	Processing	Complete
A02-0343																																																																																											WVU-Morgantown												Monongalia		
A0030	10315	OneStep RT-ddPCR	Human RNase P		26014.8					12/14/20	Manual	DQ			CDC nCov-2 Triplex					SARS-CoV-2 N1				57250.8	SARS-CoV-2 N2				52029.6																																				CDC N1/N2/RP Triplex	0.005	Sample		12/4/20	100			PEG Precipitation	3.8				MS	WWTP	Sample	12/7/20	0.2			Qiagen QiaAMP Viral Mini-RNA Kit	0.06				MS	StarCityWWTP-01	GG	11/30/20 0:00	Composite	11/30/20 23:59	11/30/20 0:00	10.196		Pass	TD	12/4/20		Monongalia	Processing	Complete
A1038	9780	OneStep RT-ddPCR	Human RNase P		38988					5/3/21	Manual	DQ		QX 200	CDC nCov-2 Triplex					SARS-CoV-2 N1				0	SARS-CoV-2 N2				4338																																				CDC N1/N2/RP Triplex	0.005	Sample		4/30/21	100			PEG Precipitation	3				KED	WWTP	Sample	5/3/21	0.2			Qiagen QiaAMP Viral Mini-RNA Kit	0.06				KED	StarCityWWTP-01	EL	4/30/21 11:08	Composite	4/27/21 11:59	4/27/21 12:00	8.459		Pass	MVS	4/30/21		Monongalia	Processing	Complete
C01-0030	14985	OneStep RT-ddPCR	Human RNase P	4.711064398	5005.505923	None				11/8/21	Manual	DQ	58477038	QX 200	CDC nCov-2 Triplex	C5	AP0017	C05	AJ	SARS-CoV-2 N1	9.423072338	0	560.2787018	10012.01436	SARS-CoV-2 N2	10.99395156	0	653.7683868	11681.07353																																					0.005	Sample		11/5/21	10	NT04474	Kookaburra	Ceres Nanotrap	0.425		CP00033	D03	JL	WWTP	Sample	11/5/21	0.4	21108255	Kookaburra	Thermo Magmax Microbiome Ultra Nucleic Acid Isolation Kit	0.05	C5	EP0033	C05	JL	WheelingWWTP-01	GZ	11/1/21 7:00	Composite	11/1/21 7:00	10/31/21 7:00			Pass	JL	11/5/21	7.08	Ohio	Processing	Complete
I01-0008	14287	OneStep RT-ddPCR	Human RNase P	4.94125068187714	8801.60277709365	None				2021-12-03	Manual	DQ	58477038	QX 200	CDC nCov-2 Triplex	NAB_16 E1	AP0023	A01	JL	SARS-CoV-2 N1	13.1789743900299	0	1030.21682739258	23475.0481322408	SARS-CoV-2 N2	14.8268663883209	0	1109.43168640137	26410.3557541966																																					0.005			2021-11-29	10	NT04474	Halcyon	Ceres Nanotrap	0.475		CP0040	A01	AJ	WWTP		2021-11-29	0.4	2108255	Halcyon	Thermo Magmax Microbiome Ultra Nucleic Acid Isolation Kit	0.075	NAB16 E1	EP0040	A01	AJ	WarmSpringsWWTP-01	-	11/18/21 8:00	Composite	11/18/21 8:00	11/17/21 8:00			Pass	AJ	11/19/21	6.63	Morgan	Processing	Complete
A02-0157	9624	OneStep RT-ddPCR	Human RNase P	20.15955448	21419.52664					10/11/21	Manual	DQ	58477037	QX One	CDC nCov-2 Triplex	I3	AP0012	C03	JL	SARS-CoV-2 N1	3.359052539	0	1593.187866	3568.993323	SARS-CoV-2 N2	0	0	2077.493896	0																																				CDC N1/N2/RP Triplex	0.005	Sample		10/7/21	10	NT04474	Halcyon	Ceres Nanotrap	0.425		CP0021	C03	JL	WVU Morgantown	Sample	10/7/21	0.4	2108052	Halcyon	Thermo Magmax Microbiome Ultra Nucleic Acid Isolation Kit	0.05	I3	EP0021	B03	JL	HonorsSummit-01 (MUB)	BL	10/6/21 9:45	Composite	10/6/21 9:00	10/4/21 10:00			Pass	JL	10/6/21	7.45	Monongalia	Processing	Complete
A02-0079																																																																			Sample		9/3/21	10	NT04155	Halcyon	Ceres Nanotrap	0.425		CP0008	B04	JL	WVU Morgantown	Sample	9/3/21	0.4	2102028	Halcyon	Thermo Magmax Microbiome Ultra Nucleic Acid Isolation Kit	0.05	J2	EP0008	A10	JL	NorthHighSt-02 (MUB)	EL	9/3/21 10:33	Grab	9/3/21 10:33	9/3/21 10:33			Pass	JL	9/3/21	7.98	Monongalia	Processing	Confirming
A01-0066	12829	OneStep RT-ddPCR	Human RNase P	27.52729654	29247.75258	None				10/20/21	Manual	DQ	58477038	QX One	CDC nCov-2 Triplex	K6	AP0014	F06	JL	SARS-CoV-2 N1	27.52729654	0	2152.007294	29247.75258	SARS-CoV-2 N2	29.36359167	0	2493.552246	31198.81615																																					0.005	Sample		10/20/21	10	NT04474	Halcyon	Ceres Nanotrap	0.425		CP0027	B02	JL	WWTP	Sample	10/20/21	0.4	2108255	Halcyon	Thermo Magmax Microbiome Ultra Nucleic Acid Isolation Kit	0.05	K6	EP0027	A06	JL	StarCityWWTP-01	GG	10/18/21 23:55	Composite	10/18/21 23:55	10/18/21 0:00	7.491 		Pass	JL	10/20/21		Monongalia	Processing	Complete
A02-0269																																																																																											WVU-Morgantown												Monongalia		
F01-0012	14950	OneStep RT-ddPCR	Human RNase P	0	0					10/11/21	Manual	DQ	58477037	QX One	CDC nCov-2 Triplex	L4	AP0012	D05	JL	SARS-CoV-2 N1	29.09875631	0	1593.187866	30917.42858	SARS-CoV-2 N2	34.92318392	0	2077.493896	37105.88291																																				CDC N1/N2/RP Triplex	0.005	Sample		10/8/21	10	NT04474	Halcyon	Ceres Nanotrap	0.425		CP0022	B06	JL	WWTP	Sample	10/8/21	0.4	2108052	Halcyon	Thermo Magmax Microbiome Ultra Nucleic Acid Isolation Kit	0.05	L4	EP0022	B04	JL	WestonWWTP-01	BP	10/5/21 11:00	Composite	10/5/21 10:00	10/4/21 10:00			Pass	JL	10/8/21	7.16	Lewis	Processing	Complete
A0243	15333	OneStep RT-ddPCR	Human RNase P		0					3/11/21	Manual	DQ			CDC nCov-2 Triplex					SARS-CoV-2 N1				13800	SARS-CoV-2 N2				4590																																				CDC N1/N2/RP Triplex	0.005	Sample		2/22/21	100			PEG Precipitation	5				AT	WWTP	Sample	2/24/21	0.2			Qiagen QiaAMP Viral Mini-RNA Kit	0.06				AT	StarCityWWTP-01	GG	2/16/21 8:00	Composite	2/16/21 11:55	2/16/21 12:00	12.183		Pass	TD	2/18/21		Monongalia	Processing	Complete
H01-0020	56	OneStep RT-ddPCR	Human RNase P			None				11/1/21	OK	ABS	58477038	QX 200	CDC nCov-2 Triplex	C8	AP0015	C08	JL	SARS-CoV-2 N1					SARS-CoV-2 N2																																									0.005	Sample		10/25/21	10	NT04474	Halcyon	Ceres Nanotrap	0.425		CP0028	D06	JL	WWTP	Sample	10/25/21	0.4	2108255	Halcyon	Thermo Magmax Microbiome Ultra Nucleic Acid Isolation Kit	0.05	C8	EP0028	C08	JL	MoundsvilleWWTP-01	DRC	10/21/21 8:15	Composite	10/21/21 8:00	10/20/21 8:00			Pass	JL	10/25/21	7.02	Marshall	Processing	Confirming
A0242	12322	OneStep RT-ddPCR	Human RNase P		13752					3/11/21	Manual	DQ			CDC nCov-2 Triplex					SARS-CoV-2 N1				41256	SARS-CoV-2 N2				68784																																				CDC N1/N2/RP Triplex	0.005	Sample		2/22/21	100			PEG Precipitation	4				AT	WWTP	Sample	2/24/21	0.2			Qiagen QiaAMP Viral Mini-RNA Kit	0.06				AT	StarCityWWTP-01	GG	2/15/21 8:00	Composite	2/15/21 11:55	2/15/21 12:00	9.8		Pass	TD	2/18/21		Monongalia	Processing	Complete
A02-0156	19654	OneStep RT-ddPCR				BRSV	798.7569427	848679.2517		8/13/21	Manual	DQ		QX 200	BRSV Triplex		AP000000	B02	JL	SARS-CoV-2 N1	0	0	2236.361694	0	SARS-CoV-2 N2	0	0	2276.707153	0																																				CDC N1/N2/RP Triplex	0.005	Sample	Was A07-0018	8/13/21	10	NT04155	Kookaburra	Ceres Nanotrap	0.425		CP000000	B04	JL	WVU Morgantown	Sample	8/13/21	0.4	2102028	Kookaburra	Thermo Magmax Microbiome Ultra Nucleic Acid Isolation Kit	0.05		EP000000	B04	JL	TowersBB-01	EL	8/11/21 9:00	Composite	8/11/21 9:00	8/10/21 9:00			Pass	JL	8/11/21		Monongalia	Processing	Complete
K01-0038																																																																																											ParkersburgWWTP-01												Wood		
A02-0262																																																																																											WVU-Morgantown												Monongalia		
A0248	13948	OneStep RT-ddPCR	Human RNase P		4056					11/17/20	Manual	DQ			CDC nCov-2 Triplex					SARS-CoV-2 N1				85080	SARS-CoV-2 N2				109416																																				CDC N1/N2/RP Triplex	0.005	Sample		11/13/20	100			PEG Precipitation	4				MS	WWTP	Sample	11/17/20	0.2			Qiagen QiaAMP Viral Mini-RNA Kit	0.06				MS	StarCityWWTP-01	GS	11/10/20 0:00	Composite	11/10/20 23:59	11/10/20 0:00	9.203		Pass	TD	11/13/20		Monongalia	Processing	Complete
A02-0311																																																																																											WVU-Morgantown												Monongalia		
B01-0004	18463	OneStep RT-ddPCR	Human RNase P	0	0					10/5/21	Manual	DQ	58477037	QX One	CDC nCov-2 Triplex	L5	AP0011	H04	JL	SARS-CoV-2 N1	33.47253084	1355.395355	0	35564.56402	SARS-CoV-2 N2	22.89853573	1548.404388	0	24329.69421																																				CDC N1/N2/RP Triplex	0.005	Sample		9/27/21	10	NT04474	Halcyon	Ceres Nanotrap	0.425		CP0017	C01	JL	WWTP	Sample	9/27/21	0.4	2105049	Halcyon	Thermo Magmax Microbiome Ultra Nucleic Acid Isolation Kit	0.05	L5	EP0017	B01	JL	CharlestonWWTP-01	KM	9/23/21 7:30	Composite	9/23/21 7:00	9/22/21 7:00			Pass	JL	9/24/21	6.97	Kanawha	Processing	Complete
E01-0011																																																																															WWTP												PrincetonWWTP-01	EU	11/23/2021 08:10 AM	Composite	11/23/2021 08:05 AM	11/22/2021 08:05 AM			Pass	AJ	12/02/2021	7.37	Mercer		
A0223	10196	OneStep RT-ddPCR	Human RNase P		11088					2/22/21	Manual	DQ			CDC nCov-2 Triplex					SARS-CoV-2 N1				77592	SARS-CoV-2 N2				66504																																				CDC N1/N2/RP Triplex	0.005	Sample		2/5/21	100			PEG Precipitation	4				MS	WWTP	Sample	2/19/21	0.2			Qiagen QiaAMP Viral Mini-RNA Kit	0.06				MS	StarCityWWTP-01	GS	1/19/21 0:00	Composite	1/19/21 23:59	1/19/21 0:00	8.058		Pass	TD	1/22/21		Monongalia	Processing	Complete
A03-0150																																																																																											MountainviewES-01												Monongalia		
H01-0029	17215	OneStep RT-ddPCR	Human RNase P	1.4	1487.5					11/18/21	Manual	DQ	58477038	QX 200	CDC nCov-2 Triplex	G2	AP0020	D02	JL	SARS-CoV-2 N1	13.6	0	1193.4	14450	SARS-CoV-2 N2	17.8	0	1245	18912.5																																					0.005	Sample		11/12/21	10	NT04474	Kookaburra	Ceres Nanotrap	0.425		CP0035	A02	AJ	WWTP	Sample	11/12/21	0.4	2108255	Kookaburra	Thermo Magmax Microbiome Ultra Nucleic Acid Isolation Kit	0.05	G2	EP0035	A02	AJ	MoundsvilleWWTP-01	DRC	11/3/21 8:15	Composite	11/3/21 8:00	11/2/21 8:00			Pass	AJ	11/11/21	6.79	Marshall	Processing	Complete
E01-0004	5113	OneStep RT-ddPCR	Human RNase P	4.602329731	4889.975339	None				11/8/21	Manual	DQ	58477038	QX 200	CDC nCov-2 Triplex	A5	AP0017	A05	AJ	SARS-CoV-2 N1	4.602329731	0	560.2787018	4889.975339	SARS-CoV-2 N2	13.80969048	0	653.7683868	14672.79613																																					0.005	Sample		11/5/21	10	NT04474	Kookaburra	Ceres Nanotrap	0.425		CP00033	A05	JL	WWTP	Sample	11/5/21	0.4	21108255	Kookaburra	Thermo Magmax Microbiome Ultra Nucleic Acid Isolation Kit	0.05	A5	EP0033	A05	JL	PrincetonWWTP-01	TT	11/3/21 8:00	Composite	11/3/21 8:00	11/2/21 8:00			Pass	JL	11/5/21	6.64	Mercer	Processing	Confirming
J01-0033																																																																															WWTP												AlpineLakeWWTP-01												Preston		
A01-0049	11160	OneStep RT-ddPCR	Human RNase P	10.81523061	11491.18252					10/5/21	Manual	DQ	58477037	QX One	CDC nCov-2 Triplex	C6	AP0011	F01	JL	SARS-CoV-2 N1	473.8983154	1355.395355	0	503516.9601	SARS-CoV-2 N2	374.8567581	1548.404388	0	398285.3055																																				CDC N1/N2/RP Triplex	0.005	Sample		10/1/21	10	NT04474	Halcyon	Ceres Nanotrap	0.425	C6	CP0019	A06	JL	WWTP	Sample	10/1/21	0.4	2108052	Halcyon	Thermo Magmax Microbiome Ultra Nucleic Acid Isolation Kit	0.05	C6	EP0019	A06	JL	StarCityWWTP-01	JF	9/27/21 12:20	Composite	9/26/21 23:55	9/26/21 0:00	6.828		Pass	JL	10/1/21		Monongalia	Processing	Complete
A02-0356																																																																																											WVU-Morgantown												Monongalia		
A01-0067	0.11	OneStep RT-ddPCR	Human RNase P			None				11/1/21	OK	ABS	58477038	QX 200	CDC nCov-2 Triplex	NAB_13 A1	AP0015	A01	JL	SARS-CoV-2 N1					SARS-CoV-2 N2																																									0.005	Sample		10/25/21	10	NT04474	Halcyon	Ceres Nanotrap	0.425		CP0028	A01	JL	WWTP	Sample	10/25/21	0.4	2108255	Halcyon	Thermo Magmax Microbiome Ultra Nucleic Acid Isolation Kit	0.05	A1	EP0028	A01	JL	StarCityWWTP-01	GG	10/19/21 23:55	Composite	10/19/21 23:55	10/19/21 0:00	7.355 		Pass	JL	10/25/21	7.92	Monongalia	Processing	Confirming
A01-0115																																																																																											StarCityWWTP-01	JF	12/02/2021 12:00 AM	Composite	12/02/2021 12:00 AM	12/01/2021 12:00 AM			Pass	AJ	12/03/2021	7.22	Monongalia		
A03-0191																																																																																											SuncrestES-01												Monongalia		
A03-0147																																																																																											SuncrestES-01												Monongalia		
A03-0141																																																																																											NorthES-01												Monongalia		
A03-0131																																																																															K-12												SuncrestES-01		12/07/2021 10:01 AM	Composite	12/06/2021 02:00 AM	12/06/2021 06:00 AM							Monongalia		
A01-0037	17645	OneStep RT-ddPCR	Human RNase P	8.995605707	9557.831064					10/5/21	Manual	DQ	58477037	QX One	CDC nCov-2 Triplex	G6	AP0011	C04	JL	SARS-CoV-2 N1	231.0940933	1355.395355	0	245537.4742	SARS-CoV-2 N2	238.3429718	1548.404388	0	253239.4075																																				CDC N1/N2/RP Triplex	0.005	Sample		9/17/21	10	NT04155	Halcyon	Ceres Nanotrap	0.425		CP0013	D02	JL	WWTP	Sample	9/17/21	0.4	2105033	Halcyon	Thermo Magmax Microbiome Ultra Nucleic Acid Isolation Kit	0.05	G6	EP0012	B02	JL	StarCityWWTP-01	GG	9/14/21 23:55	Composite	9/14/21 23:55	9/14/21 0:00	7.905		Pass	JL	9/17/21	6.74	Monongalia	Processing	Complete
A1065	14482	OneStep RT-ddPCR		115.64		BRSV		274645		6/7/21	Manual	DQ			BRSV Triplex					SARS-CoV-2 N1	0			0	SARS-CoV-2 N2	0			0																																				N1/N2/BRSV Triplex	0.005	Sample		7/7/21	10			Ceres Nanotrap	0.95	pH - 6.33				WWTP	Sample	6/7/21	0.4			Thermo Magmax Microbiome Ultra Nucleic Acid Isolation Kit	0.05				JL	StarCityWWTP-01	EL	6/7/21 23:55	Composite	6/7/21 23:55	6/7/21 0:00	6.647		Pass	JL	6/11/21	6.33	Monongalia	Processing	Complete
F01-0025	17178	OneStep RT-ddPCR	Human RNase P	0	0					9/24/21	Manual	DQ	XXXXXX	QX 200	CDC nCov-2 Triplex	J5	AP0009	C05	JL	SARS-CoV-2 N1	26.03948355	0	878.4640503	27666.95127	SARS-CoV-2 N2	32.89676905	0	968.4371185	34952.81711																																				CDC N1/N2/RP Triplex	0.005	Sample	NO METADATA 	9/24/21	10		Halcyon	Ceres Nanotrap	0.425		CP0016	D03	JL	WWTP	Sample	9/24/21	0.4	XXXXXX	Halcyon	Thermo Magmax Microbiome Ultra Nucleic Acid Isolation Kit	0.05	J5	EP0016	B09	JL	WestonWWTP-01	--		Composite					Fail: Missing Required Data	JL	9/24/21	6.52	Lewis	Rejected	Rejected
G01-0053	13026	OneStep RT-ddPCR	Human RNase P	3.612961471	3838.771563	None				10/20/21	Manual	DQ	58477038	QX One	CDC nCov-2 Triplex	E7	AP0014	G01	JL	SARS-CoV-2 N1	81.42612457	0	2152.007294	86515.25736	SARS-CoV-2 N2	18.07035685	0	2493.552246	19199.75415																																					0.005	Sample		10/15/21	10	NT04474	Halcyon	Ceres Nanotrap	0.425		CP0025	B01	JL	WWTP	Sample	10/15/21	0.4	2108255	Halcyon	Thermo Magmax Microbiome Ultra Nucleic Acid Isolation Kit	0.05	E7	EP0025	B01	JL	KeyserWWTP-01	ML	10/14/21 8:00	Composite	10/14/21 8:00	10/13/21 9:00			Pass	JL	10/15/21	7.13	Mineral	Processing	Complete
A0022	12254	OneStep RT-ddPCR	Human RNase P		27648					12/14/20	Manual	DQ			CDC nCov-2 Triplex					SARS-CoV-2 N1				49795.2	SARS-CoV-2 N2				49795.2																																				CDC N1/N2/RP Triplex	0.005	Sample		12/4/20	100			PEG Precipitation	4.8				MS	WWTP	Sample	12/7/20	0.2			Qiagen QiaAMP Viral Mini-RNA Kit	0.06				MS	StarCityWWTP-01	GG	11/19/20 0:00	Composite	11/19/20 23:59	11/19/20 0:00	9.875		Pass	TD	11/30/20		Monongalia	Processing	Complete
H01-0053																																																																															WWTP												MoundsvilleWWTP-01												Marshall		
A01-0092	20540	OneStep RT-ddPCR	Human RNase P	44.71856594	79654.94558	None				11/29/21	Manual	DQ	58477038	QX 200	CDC nCov-2 Triplex	A2	AP0022	A07	JL	SARS-CoV-2 N1	28.65596771	0	1092.976303	51043.44249	SARS-CoV-2 N2	41.27565861	0	1279.930573	73522.26689																																					0.005	Sample		2021-11-19	10	NT04474	Halcyon	Ceres Nanotrap	0.475		CP0038	B03	AJ	WWTP	Sample	2021-11-19	0.4	2108255	Halcyon	Ultra 2.0 Microbiome (Thermo)	0.075	A2	EP0038	A07	AJ	StarCityWWTP-01	GG	11/17/21 23:55	Composite	11/17/21 23:55	11/17/21 0:00			Pass	AJ	11/29/21	7.32	Monongalia	Processing	Complete
A02-0192	28	OneStep RT-ddPCR	Human RNase P			None				11/1/21	OK	ABS	58477038	QX 200	CDC nCov-2 Triplex	B5	AP0015	F05	JL	SARS-CoV-2 N1					SARS-CoV-2 N2																																									0.005	Sample		10/28/21	10	NT04474	Halcyon	Ceres Nanotrap	0.425		CP0030	C01	JL	WVU Morgantown	Sample	10/28/21	0.4	2108255	Halcyon	Thermo Magmax Microbiome Ultra Nucleic Acid Isolation Kit	0.05	B5	EP0030	B05	JL	NorthHighSt-02 (MUB)	EL	10/27/21 10:10	Composite	10/27/21 10:10	10/25/21 10:10			Pass	JL	10/27/21		Monongalia	Processing	Confirming
H01-0080																																																																															WWTP												MoundsvilleWWTP-01												Marshall		
A01-0130																																																																																											StarCityWWTP-01												Monongalia		
A03-0029	14941	OneStep RT-ddPCR	Human RNase P	-20	0					9/24/21	CHECK	DQ	XXXXXX	QX 200	CDC nCov-2 Triplex	I6	AP0009	B06	JL	SARS-CoV-2 N1	-20	0	878.4640503	0	SARS-CoV-2 N2	-20	0	968.4371185	0																																				CDC N1/N2/RP Triplex	0.005	Sample		9/24/21	10		Halcyon	Ceres Nanotrap	0.425		CP0016	C02	JL	K-12	Sample	9/24/21	0.4	XXXXXX	Halcyon	Thermo Magmax Microbiome Ultra Nucleic Acid Isolation Kit	0.05	I6	EP0016	B02	JL	UniversityHS-01	BL	9/20/21 10:10	Composite	9/17/21 14:00	9/17/21 6:00			Pass	TD	9/21/21	7.27	Monongalia	Processing	Complete
A02-0194	13476	OneStep RT-ddPCR	Human RNase P	3.492305875	3710.574992	None				11/4/21	Manual	DQ	58477038	QX 200	CDC nCov-2 Triplex	F7	AP0016	A07	JL	SARS-CoV-2 N1	12.22533941	0	1040.980072	12989.42313	SARS-CoV-2 N2	5.238653421	0	1205.935364	5566.06926																																					0.005	Sample		11/2/21	10	NT04474	Kookaburra	Ceres Nanotrap	0.425		CP0031	C02	JL	WVU Morgantown	Sample	11/2/21	0.4	21108255	Kookaburra	Thermo Magmax Microbiome Ultra Nucleic Acid Isolation Kit	0.05	F7	EP0031	A07	JL	Evansdale-01	CA	10/29/21 11:17	Composite	10/29/21 9:25	10/27/21 9:25			Pass	JL	10/29/21	7.01	Monongalia	Processing	Complete
A1094	12740	OneStep RT-ddPCR		90.67		BRSV		215341.25		7/30/21	Manual	DQ			BRSV Triplex					SARS-CoV-2 N1	0			0	SARS-CoV-2 N2	0			0																																				N1/N2/BRSV Triplex	0.005	Sample		7/30/21	10			Ceres Nanotrap	0.95					WWTP	Sample	7/30/21	0.4			Thermo Magmax Microbiome Ultra Nucleic Acid Isolation Kit	0.05				JL	StarCityWWTP-01	EL	7/18/21 23:55	Composite	7/18/21 23:55	7/18/21 0:00	8.102		Pass	JL	7/30/21		Monongalia	Processing	Complete
A02-0172	14641	OneStep RT-ddPCR	Human RNase P	0	0	None				10/20/21	Manual	DQ	58477038	QX One	CDC nCov-2 Triplex	E3	AP0014	C01	JL	SARS-CoV-2 N1	0	0	2152.007294	0	SARS-CoV-2 N2	0	0	2493.552246	0																																					0.005	Sample		10/15/21	10	NT04474	Halcyon	Ceres Nanotrap	0.425		CP0025	A03	JL	WVU Morgantown	Sample	10/15/21	0.4	2108255	Halcyon	Thermo Magmax Microbiome Ultra Nucleic Acid Isolation Kit	0.05	E3	EP0025	A03	JL	NorthHighSt-02 (MUB)	CA	10/15/21 9:59	Composite	10/15/21 9:59	10/13/21 9:59			Pass	JL	10/15/21	7.67	Monongalia	Processing	Complete
A02-0219	15304	OneStep RT-ddPCR	Human RNase P	171.2808609	181985.9147	None				11/22/21	Manual	DQ	58477038	QX 200	CDC nCov-2 Triplex	J6	AP0021	B06	JL	SARS-CoV-2 N1	47.7098465	1109.141006	0	50691.7119	SARS-CoV-2 N2	23.07332993	1229.36615	0	24515.41305																																					0.005	Sample		11/16/21	10	NT04474	Kookaburra	Ceres Nanotrap	0.425		CP0036	D02	AJ	WVU Morgantown	Sample	11/16/21	0.4	2108255	Kookaburra	Thermo Magmax Microbiome Ultra Nucleic Acid Isolation Kit	0.05	J6	EP0036	B06	AJ	OaklandE-02	EL	11/15/21 9:39	Composite	11/15/21 9:00	11/13/21 9:00						7.98	Monongalia	Processing	Complete
A02-0304																																																																																											WVU-Morgantown												Monongalia		
A0044	13954	OneStep RT-ddPCR	Human RNase P		34414.8					2/22/21	Manual	DQ			CDC nCov-2 Triplex					SARS-CoV-2 N1				55059.6	SARS-CoV-2 N2				79172.4																																				CDC N1/N2/RP Triplex	0.005	Sample		12/21/20	100			PEG Precipitation	3.4				AT	WWTP	Sample	12/21/20	0.2			Qiagen QiaAMP Viral Mini-RNA Kit	0.06				AT	StarCityWWTP-01	GG	12/20/20 0:00	Composite	12/20/20 11:59	12/20/20 12:00	11.313 		Pass	TD	12/21/20		Monongalia	Processing	Complete
A02-0153 b	12070	OneStep RT-ddPCR	Human RNase P		28080					3/11/21	Manual	DQ		QX 200	CDC nCov-2 Triplex					SARS-CoV-2 N1				14040	SARS-CoV-2 N2				9360																																				CDC N1/N2/RP Triplex	0.005	Sample	Was A06-0005		100			PEG Precipitation	4					WWTP	Sample		0.2			Qiagen QiaAMP Viral Mini-RNA Kit	0.06					StarCityWWTP-01	EL	3/1/21 12:00	Composite	3/1/21 12:00	3/1/21 12:00	13.937		Pass				Monongalia	Rejected	Test
B01-0017	8540	OneStep RT-ddPCR	Human RNase P	0	0	None				10/20/21	Manual	DQ	58477038	QX One	CDC nCov-2 Triplex	F8	AP0014	H02	JL	SARS-CoV-2 N1	13.78003597	0	2152.007294	14641.28822	SARS-CoV-2 N2	16.53701305	0	2493.552246	17570.57637																																				CDC N1/N2/RP Triplex	0.005	Sample		10/15/21	10	NT04474	Halcyon	Ceres Nanotrap	0.425		CP0025	C04	JL	WWTP	Sample	10/15/21	0.4	2108255	Halcyon	Thermo Magmax Microbiome Ultra Nucleic Acid Isolation Kit	0.05	F8	EP0025	C04	JL	CharlestonWWTP-01	KM	10/14/21 9:55	Composite	10/14/21 7:00	10/13/21 7:00	6.593		Pass	JL	10/15/21	7.09	Kanawha	Processing	Complete
A02-0104	14787	OneStep RT-ddPCR	Human RNase P	275.2945328	292500.4411					9/20/21	Manual	DQ	58477037	QX 200	CDC nCov-2 Triplex	C1	AP0008	F01	JL	SARS-CoV-2 N1	7.957459688	0	1320.22522	8454.800919	SARS-CoV-2 N2	25.47334909	0	1524.019623	27065.43341																																				CDC N1/N2/RP Triplex	0.005	Sample		9/13/21	10	NT04155	Halcyon	Ceres Nanotrap	0.425		CP0011	C05	JL	WVU Morgantown	Sample	9/13/21	0.4	2105033	Halcyon	Thermo Magmax Microbiome Ultra Nucleic Acid Isolation Kit	0.05	C1	EP0011	B05	JL	CollegePark-02	EL	9/13/21 10:14	Grab	9/13/21 10:14	9/13/21 10:14			Pass	JL	9/13/21	8.27	Monongalia	Processing	Complete
K01-0012																																																																																											ParkersburgWWTP-01												Wood		
H01-0061																																																																															WWTP												MoundsvilleWWTP-01												Marshall		
A01-0018	14011	OneStep RT-ddPCR	Human RNase P	65.01821995	69081.85869					9/2/21	Manual	DQ		QX One	BRSV Triplex	H2	AP000000	B03	JL	SARS-CoV-2 N1	86.23013496	0	3138.026123	91619.5184	SARS-CoV-2 N2	45.34046173	0	3336.080627	48174.24059																																				CDC N1/N2/RP Triplex	0.005	Sample		9/2/21	10	 NT04155	Kookaburra	Ceres Nanotrap	0.425		CP0007	C06	JL	WWTP	Sample	9/2/21	0.4	2102028	Halcyon	Thermo Magmax Microbiome Ultra Nucleic Acid Isolation Kit	0.05	H2	EP0007	B06	JL	StarCityWWTP-01	JT	8/30/21 23:55	Composite	8/30/21 23:55	8/30/21 0:00	10.394		Pass	JL	9/1/21	6.89	Monongalia	Processing	Complete
A0043	13397	OneStep RT-ddPCR	Human RNase P		20018.4					2/22/21	Manual	DQ			CDC nCov-2 Triplex					SARS-CoV-2 N1				60100.8	SARS-CoV-2 N2				44072.4																																				CDC N1/N2/RP Triplex	0.005	Sample		12/14/20	100			PEG Precipitation	3.8				AT	WWTP	Sample	12/21/20	0.2			Qiagen QiaAMP Viral Mini-RNA Kit	0.06				AT	StarCityWWTP-01	GG	12/17/20 0:00	Composite	12/17/20 11:59	12/17/20 12:00	11.864 		Pass	TD	12/18/20		Monongalia	Processing	Complete
J01-0030																																																																															WWTP												AlpineLakeWWTP-01												Preston		
A03-0157																																																																																											NorthES-01												Monongalia		
A1070	13234	OneStep RT-ddPCR		80.14		BRSV		190332.5		7/7/21	Manual	DQ			BRSV Triplex					SARS-CoV-2 N1	0			0	SARS-CoV-2 N2	0			0																																				N1/N2/BRSV Triplex	0.005	Sample		7/7/21	10			Ceres Nanotrap	0.95	pH - 6.37				WWTP	Sample	7/7/21	0.4			Thermo Magmax Microbiome Ultra Nucleic Acid Isolation Kit	0.05				JL	StarCityWWTP-01	EL	6/14/21 23:55	Composite	6/14/21 23:55	6/14/21 0:00	11.975		Pass	JL	6/18/21	6.37	Monongalia	Processing	Complete
A03-0197																																																																																											NorthES-01												Monongalia		
A03-0016	18346	OneStep RT-ddPCR	Human RNase P	35.01988888	37208.63193					10/11/21	Manual	DQ	58477037	QX One	CDC nCov-2 Triplex	H6	AP0012	F02	JL	SARS-CoV-2 N1	134.4925785	0	1593.187866	142898.3647	SARS-CoV-2 N2	56.93062305	0	2077.493896	60488.787																																				CDC N1/N2/RP Triplex	0.005	Sample		10/7/21	10	NT04474	Halcyon	Ceres Nanotrap	0.425		CP0021	B02	JL	K-12	Sample	10/7/21	0.4	2108052	Halcyon	Thermo Magmax Microbiome Ultra Nucleic Acid Isolation Kit	0.05	H6	EP0021	A06	JL	MorgantownHS-01	BL	9/30/21 9:40	Composite	9/29/21 14:00	9/29/21 6:00			Pass	JL	10/6/21	8.26	Monongalia	Processing	Complete
G01-0064	14392	OneStep RT-ddPCR	Human RNase P	1.634951979	1737.136478	None				11/4/21	Manual	DQ	58477038	QX 200	CDC nCov-2 Triplex	I6	AP0016	D06	JL	SARS-CoV-2 N1	9.811416268	0	1040.980072	10424.62979	SARS-CoV-2 N2	13.08279753	0	1205.935364	13900.47237																																					0.005	Sample		11/3/21	10	NT04474	Halcyon	Ceres Nanotrap	0.425		CP0032	A06	JL	WWTP	Sample	11/3/21	0.4	21108255	Kookaburra	Thermo Magmax Microbiome Ultra Nucleic Acid Isolation Kit	0.05	I6	EP0032	A06	JL	KeyserWWTP-01	GP	10/31/21 9:05	Composite	10/31/21 9:00	10/30/21 9:00			Pass	JL	11/2/21	7.13	Mineral	Processing	Complete
A0216	14343	OneStep RT-ddPCR	Human RNase P		0					2/22/21	Manual	DQ			CDC nCov-2 Triplex					SARS-CoV-2 N1				161664	SARS-CoV-2 N2				173496																																				CDC N1/N2/RP Triplex	0.005	Sample		2/5/21	100			PEG Precipitation	4				MS	WWTP	Sample	2/17/21	0.2			Qiagen QiaAMP Viral Mini-RNA Kit	0.06				MS	StarCityWWTP-01	GS	1/10/21 0:00	Composite	1/10/21 23:59	1/10/21 0:00	7.624		Pass	TD	1/15/21		Monongalia	Processing	Complete
A02-0325																																																																																											WVU-Morgantown												Monongalia		
A03-0193																																																																																											NorthES-01												Monongalia		
A02-0092	12831	OneStep RT-ddPCR	Human RNase P	22.0158267	23391.81587					9/20/21	Manual	DQ	58477037	QX 200	CDC nCov-2 Triplex	A5	AP0008	A05	JL	SARS-CoV-2 N1	137.9380894	0	1320.22522	146559.22	SARS-CoV-2 N2	27.52300024	0	1524.019623	29243.18776																																				CDC N1/N2/RP Triplex	0.005	Sample		9/13/21	10	NT04155	Halcyon	Ceres Nanotrap	0.425		CP0011	A05	JL	WVU Morgantown	Sample	9/13/21	0.4	2105033	Halcyon	Thermo Magmax Microbiome Ultra Nucleic Acid Isolation Kit	0.05	A5	EP0011	A05	JL	OaklandE-02	EL	9/10/21 9:20	Composite	9/10/21 9:20	9/8/21 9:20			Pass	JL	9/13/21	7.17	Monongalia	Processing	Complete
E02-0009	10584	OneStep RT-ddPCR	Human RNase P	13.34245086	23766.24059	None				11/29/21	Manual	DQ	58477038	QX 200	CDC nCov-2 Triplex	C8	AP0022	C08	JL	SARS-CoV-2 N1	11.11818314	0	1092.976303	19804.26371	SARS-CoV-2 N2	11.11818314	0	1279.930573	19804.26371																																					0.005	Sample		2021-11-22	10	NT04474	Halcyon	Ceres Nanotrap	0.475		CP0039	B04	AJ	WWTP	Sample	2021-11-22	0.4	2108255	Halcyon	Ultra 2.0 Microbiome (Thermo)	0.075	C8	EP0039	A08	AJ	AthensWWTP-01	-	11/16/21 8:00	Composite	11/16/21 8:00	11/15/21 8:00			Pass	AJ	11/19/21	7.18	Mercer	Processing	Complete
A02-0125	15095	OneStep RT-ddPCR	Human RNase P	21.83269978	23197.24351					9/29/21	Manual	DQ	58477037	QX 200	CDC nCov-2 Triplex	L1	AP0010	B01	JL	SARS-CoV-2 N1	2201.01059	0	1097.667847	2338573.751	SARS-CoV-2 N2	2377.96936	0	1200.682373	2526592.445																																				CDC N1/N2/RP Triplex	0.005	Sample		9/27/21	10	NT04474	Halcyon	Ceres Nanotrap	0.425		CP0017	B03	JL	WVU Morgantown	Sample	9/27/21	0.4	2105049	Halcyon	Thermo Magmax Microbiome Ultra Nucleic Acid Isolation Kit	0.05	L1	EP0017	A09	JL	HonorsSummit-01 (MUB)	EL	9/24/21 10:03	Composite	9/24/21 10:04	9/22/21 10:04			Pass	JL	9/27/21	7.15	Monongalia	Processing	Complete
G01-0015																																																																															WWTP												KeyserWWTP-01		11/24/2021 09:00 AM	Composite	11/24/2021 08:00 AM	11/23/2021 08:00 AM			Fail: Temperature Above Threshold	JL	11/29/2021		Mineral		
A03-0182																																																																																											MountainviewES-01												Monongalia		
A0033	9338	OneStep RT-ddPCR	Human RNase P		24192					12/14/20	Manual	DQ			CDC nCov-2 Triplex					SARS-CoV-2 N1				53241.6	SARS-CoV-2 N2				29030.4																																				CDC N1/N2/RP Triplex	0.005	Sample		12/7/20	100			PEG Precipitation	3.2				MS	WWTP	Sample	12/8/20	0.2			Qiagen QiaAMP Viral Mini-RNA Kit	0.06				MS	StarCityWWTP-01	GG	12/3/20 0:00	Composite	12/3/20 23:59	12/3/20 0:00	8.998 		Pass	TD	12/7/20		Monongalia	Processing	Complete
A01-0079	11681	OneStep RT-ddPCR	Human RNase P	16.2	17212.5					11/18/21	Manual	DQ	58477038	QX 200	CDC nCov-2 Triplex	D1	AP0020	B01	JL	SARS-CoV-2 N1	32.2	0	1193.4	34212.5	SARS-CoV-2 N2	50.4	0	1245	53550																																					0.005	Sample		11/11/21	10	NT04474	Kookaburra	Ceres Nanotrap	0.425		CP0034	A01	JL	WWTP	Sample	11/11/21	0.4	2108255	Kookaburra	Thermo Magmax Microbiome Ultra Nucleic Acid Isolation Kit	0.05	D1	EP0034	A01	JL	StarCityWWTP-01	GG	11/2/21 23:55	Composite	11/2/21 23:55	11/2/21 0:00			Pass	JL	11/5/21	6.7	Monongalia	Processing	Complete
A02-0221	16186	OneStep RT-ddPCR	Human RNase P	58.21953297	61858.25378	None				11/22/21	Manual	DQ	58477038	QX 200	CDC nCov-2 Triplex	L5	AP0021	D05	JL	SARS-CoV-2 N1	59.67686653	1109.141006	0	63406.67069	SARS-CoV-2 N2	53.84806633	1229.36615	0	57213.57048																																					0.005	Sample		11/17/21	10	NT04474	Halcyon	Ceres Nanotrap	0.425		CP0037	D01	JL	WVU Morgantown	Sample	11/17/21	0.4	2108255	Halcyon	Thermo Magmax Microbiome Ultra Nucleic Acid Isolation Kit	0.05	L5	EP0037	B05	JL	Evansdale-01	CA	11/17/21 9:48	Composite	11/17/21 9:48	11/15/21 9:48			Pass	JL	11/17/21	7.38	Monongalia	Processing	Complete
A03-0001	9930	OneStep RT-ddPCR	Human RNase P	0	0					9/20/21	Manual	DQ	58477037	QX 200	CDC nCov-2 Triplex	E1	AP0008	F02	JL	SARS-CoV-2 N1	0	0	1320.22522	0	SARS-CoV-2 N2	0	0	1524.019623	0																																				CDC N1/N2/RP Triplex	0.005	Sample		9/15/21	10	NT04155	Kookaburra	Ceres Nanotrap	0.425		CP0012	B03	JL	K-12	Sample	9/15/21	0.4	2105033	Halcyon	Thermo Magmax Microbiome Ultra Nucleic Acid Isolation Kit	0.05	E1	EP0012	A09	JL	SuncrestES-01	BL	9/14/21 15:00	Composite	9/13/21 14:00	9/13/21 6:00			Pass	jl	9/15/21	6.23	Monongalia	Processing	Complete
A1020	11142	OneStep RT-ddPCR	Human RNase P		12660					4/12/21	Manual	DQ		QX 200	CDC nCov-2 Triplex					SARS-CoV-2 N1				6330	SARS-CoV-2 N2				12660																																				CDC N1/N2/RP Triplex	0.005	Sample		4/9/21	100			PEG Precipitation	5				MVS	WWTP	Sample	4/12/21	0.2			Qiagen QiaAMP Viral Mini-RNA Kit	0.06				MVS	StarCityWWTP-01	GG	4/1/21 11:55	Composite	4/1/21 11:55	4/1/21 12:00	10.482		Pass	Josh Lambert	4/9/21		Monongalia	Processing	Complete
H01-0002	11579	OneStep RT-ddPCR	Human RNase P	1.979758739	2103.493661					10/5/21	Manual	DQ	58477037	QX One	CDC nCov-2 Triplex	D7	AP0011	G02	JL	SARS-CoV-2 N1	51.52937889	1355.395355	0	54749.96507	SARS-CoV-2 N2	31.69667721	1548.404388	0	33677.71953																																				CDC N1/N2/RP Triplex	0.005	Sample		10/1/21	10	NT04474	Halcyon	Ceres Nanotrap	0.425	D7	CP0019	C03	JL	WWTP	Sample	10/1/21	0.4	2108052	Halcyon	Thermo Magmax Microbiome Ultra Nucleic Acid Isolation Kit	0.05	D7	EP0019	B07	JL	MoundsvilleWWTP-01	DRC	9/29/21 8:10	Composite	9/29/21 8:00	9/28/21 8:00			Pass	JL	10/1/21		Marshall	Processing	Complete
C01-0032	13248	OneStep RT-ddPCR	Human RNase P	14.21287417	15101.17881	None				11/8/21	Manual	DQ	58477038	QX 200	CDC nCov-2 Triplex	C7	AP0017	C07	AJ	SARS-CoV-2 N1	8.882039785	0	560.2787018	9437.167272	SARS-CoV-2 N2	10.65885067	0	653.7683868	11325.02884																																					0.005	Sample		11/5/21	10	NT04474	Kookaburra	Ceres Nanotrap	0.425		CP00033	D05	JL	WWTP	Sample	11/5/21	0.4	21108255	Kookaburra	Thermo Magmax Microbiome Ultra Nucleic Acid Isolation Kit	0.05	C7	EP0033	C07	JL	WheelingWWTP-01	GZ	11/3/21 7:00	Composite	11/3/21 7:00	11/2/21 7:00			Pass	JL	11/5/21	6.45	Ohio	Processing	Complete
A02-0040	14933	OneStep RT-ddPCR	Human RNase P	453.3557892	481690.526					8/25/21	CHECK	DQ	58477036	QX One	CDC nCov-2 Triplex	L6	AP0004	F02	JL	SARS-CoV-2 N1	17.54501104	-20	2835.271912	18641.57423	SARS-CoV-2 N2	20.47055244	-20	3151.898499	21749.96197																																				CDC N1/N2/RP Triplex	0.005	Sample	Very Dense Fecal Sample	8/25/21	10	NT04155	Kookaburra	Ceres Nanotrap	0.425		CP0004	A06	JL	WVU Morgantown	Sample	8/25/21	0.4	2102028	Kookaburra	Thermo Magmax Microbiome Ultra Nucleic Acid Isolation Kit	0.05	L6	EP0004	A06	JL	HonorsSummit-01 (MUB)	EL	8/25/21 9:39	Grab	8/25/21 9:39	8/25/21 9:39			Pass	JL	8/25/21	7.02	Monongalia	Processing	Complete
A1014	10126	OneStep RT-ddPCR	Human RNase P		29274					3/30/21	Manual	DQ		QX 200	CDC nCov-2 Triplex					SARS-CoV-2 N1				0	SARS-CoV-2 N2				19530																																				CDC N1/N2/RP Triplex	0.005	Sample		3/26/21	100			PEG Precipitation	7				MVS	WWTP	Sample	3/29/21	0.2			Qiagen QiaAMP Viral Mini-RNA Kit	0.06				MVS	StarCityWWTP-01	EL	3/26/21 10:54	Composite	3/24/21 12:00	3/24/21 12:00	8.188		Pass	MVS	3/26/21		Monongalia	Processing	Complete
A02-0155 c	11186	OneStep RT-ddPCR	Human RNase P		20208					3/15/21	Manual	DQ		QX 200	CDC nCov-2 Triplex					SARS-CoV-2 N1				30288	SARS-CoV-2 N2				0																																				CDC N1/N2/RP Triplex	0.005	Sample	Was A07-0012		100			PEG Precipitation	8					WWTP	Sample		0.2			Qiagen QiaAMP Viral Mini-RNA Kit	0.06					StarCityWWTP-01	EL	2/24/21 12:00	Composite	2/24/21 12:00	2/24/21 12:00	12.279		Pass				Monongalia	Rejected	Test
A02-0276																																																																																											WVU-Morgantown												Monongalia		
A03-0005	14939	OneStep RT-ddPCR	Human RNase P	143.7662792	152751.6717					9/20/21	Manual	DQ	58477037	QX 200	CDC nCov-2 Triplex	F2	AP0008	D02	JL	SARS-CoV-2 N1	15.75559974	0	1320.22522	16740.32472	SARS-CoV-2 N2	33.09895277	0	1524.019623	35167.63732																																				CDC N1/N2/RP Triplex	0.005	Sample		9/17/21	10	NT04155	Halcyon	Ceres Nanotrap	0.425		CP0013	A02	JL	K-12	Sample	9/17/21	0.4	2105033	Halcyon	Thermo Magmax Microbiome Ultra Nucleic Acid Isolation Kit	0.05	F2	EP0012	A02	JL	BrookhavenES-01	TD	9/16/21 17:00	Composite	9/15/21 14:00	9/15/21 6:00			Pass	TD	9/16/21	6.71	Monongalia	Processing	Complete
A02-0273																																																																																											WVU-Morgantown												Monongalia		
H01-0057																																																																															WWTP												MoundsvilleWWTP-01												Marshall		
A02-0313																																																																																											WVU-Morgantown												Monongalia		
A02-0181		OneStep RT-ddPCR	Human RNase P			None				11/1/21	OK	ABS	58477038	QX 200	CDC nCov-2 Triplex	A4	AP0015	A04	JL	SARS-CoV-2 N1					SARS-CoV-2 N2																																									0.005	Sample		10/25/21	10	NT04474	Halcyon	Ceres Nanotrap	0.425		CP0028	A04	JL	WVU Morgantown	Sample	10/25/21	0.4	2108255	Halcyon	Thermo Magmax Microbiome Ultra Nucleic Acid Isolation Kit	0.05	A4	EP0028	A04	JL	Evansdale-01	EL	10/22/21 9:19	Composite	10/22/21 9:19	10/20/21 9:19			Pass	JL	10/25/21	7.58	Monongalia	Processing	Processing
A02-0087	10420	OneStep RT-ddPCR	Human RNase P	4.516635537	4798.925258					9/20/21	Manual	DQ	58477037	QX 200	CDC nCov-2 Triplex	L2 - NAB_9	AP0008	F03	JL	SARS-CoV-2 N1	24.85223055	0	1320.22522	26405.49496	SARS-CoV-2 N2	4.516635537	0	1524.019623	4798.925258																																				CDC N1/N2/RP Triplex	0.005	Sample		9/8/21	10	NT04155	Halcyon	Ceres Nanotrap	0.425		CP0010	A02	JL	WVU Morgantown	Sample	9/8/21	0.4	2102028	Halcyon	Thermo Magmax Microbiome Ultra Nucleic Acid Isolation Kit	0.05	L2	EP0010	A02	JL	OaklandE-02	EL	9/8/21 9:34	Composite	9/8/21 9:34	9/6/21 9:34			Pass	JL	9/8/21	7.4	Monongalia	Processing	Complete
H01-0012	11585	OneStep RT-ddPCR	Human RNase P	2.031111419	2158.055883	None				10/20/21	Manual	DQ	58477038	QX One	CDC nCov-2 Triplex	F2	AP0014	B02	JL	SARS-CoV-2 N1	61.0097456	0	2152.007294	64822.8547	SARS-CoV-2 N2	12.18930006	0	2493.552246	12951.13131																																					0.005	Sample		10/15/21	10	NT04474	Halcyon	Ceres Nanotrap	0.425		CP0025	B04	JL	WWTP	Sample	10/15/21	0.4	2108255	Halcyon	Thermo Magmax Microbiome Ultra Nucleic Acid Isolation Kit	0.05	F2	EP0025	B04	JL	MoundsvilleWWTP-01	DRC	10/10/21 8:15	Composite	10/10/21 8:00	10/9/21 8:00			Pass	JL	10/15/21	7.11	Marshall	Processing	Complete
E01-0002	11901	OneStep RT-ddPCR	Human RNase P	0	0	None				11/4/21	Manual	DQ	58477038	QX 200	CDC nCov-2 Triplex	H8	AP0016	C08	JL	SARS-CoV-2 N1	41.55567646	0	1040.980072	44152.90624	SARS-CoV-2 N2	5.932033658	0	1205.935364	6302.785762																																					0.005	Sample		11/2/21	10	NT04474	Kookaburra	Ceres Nanotrap	0.425		CP0031	D06	JL	WWTP	Sample	11/2/21	0.4	21108255	Kookaburra	Thermo Magmax Microbiome Ultra Nucleic Acid Isolation Kit	0.05	H8	EP0031	C08	JL	PrincetonWWTP-01	TT	10/28/21 8:00	Composite	10/28/21 8:00	10/27/21 8:00			Pass	JL	10/29/21	7.02	Mercer	Processing	Complete
A01-0070		OneStep RT-ddPCR	Human RNase P			None				11/1/21	CHECK	ABS	58477038	QX 200	CDC nCov-2 Triplex	E3	AP0015	G03	JL	SARS-CoV-2 N1					SARS-CoV-2 N2																																									0.005	Sample		10/27/21	10	NT04474	Kookaburra	Ceres Nanotrap	0.425		CP0029	C03	JL	WWTP	Sample	10/27/21	0.4	2108255	Halcyon	Thermo Magmax Microbiome Ultra Nucleic Acid Isolation Kit	0.05	E3	EP0029	B03	JL	StarCityWWTP-01	GG	10/23/21 23:55	Composite	10/23/21 23:55	10/23/21 0:00	9.596 		Pass	JL	10/27/21	6.84	Monongalia	Processing	Processing
K01-0004																																																																																											ParkersburgWWTP-01												Wood		
A03-0164																																																																																											MorgantownHS-01												Monongalia		
A02-0176	12128	OneStep RT-ddPCR	Human RNase P	7.761639953	8246.74245	None				10/20/21	Manual	DQ	58477038	QX One	CDC nCov-2 Triplex	H8	AP0014	H04	JL	SARS-CoV-2 N1	0	0	2152.007294	0	SARS-CoV-2 N2	0	0	2493.552246	0																																					0.005	Sample		10/18/21	10	NT04474	Halcyon	Ceres Nanotrap	0.425		CP0026	B04	JL	WVU Morgantown	Sample	10/18/21	0.4	2108255	Halcyon	Thermo Magmax Microbiome Ultra Nucleic Acid Isolation Kit	0.05	H8	EP0026	A08	JL	CollegePark-02	EL	10/18/21 10:08	Composite	10/18/21 9:00	10/16/21 9:00			Pass	JL	10/18/21		Monongalia	Processing	Complete
A02-0180	8693	OneStep RT-ddPCR	Human RNase P	21.66363239	23017.60942	None				10/20/21	Manual	DQ	58477038	QX One	CDC nCov-2 Triplex	L5	AP0014	E07	JL	SARS-CoV-2 N1	572.6133728	0	2152.007294	608401.7086	SARS-CoV-2 N2	250.3442001	0	2493.552246	265990.7126																																					0.005	Sample		10/20/21	10	NT04474	Halcyon	Ceres Nanotrap	0.425		CP0027	D01	JL	WVU Morgantown	Sample	10/20/21	0.4	2108255	Halcyon	Thermo Magmax Microbiome Ultra Nucleic Acid Isolation Kit	0.05	L5	EP0027	B05	JL	CollegePark-02	CA	10/20/21 10:02	Composite	10/20/21 10:02	10/18/21 10:08			Pass	JL	10/20/21		Monongalia	Processing	Complete
I01-0002	13141	OneStep RT-ddPCR	Human RNase P	1.790602505	1902.515162	None				11/4/21	Manual	DQ	58477038	QX 200	CDC nCov-2 Triplex	J8	AP0016	E08	JL	SARS-CoV-2 N1	5.372216105	0	1040.980072	5707.979612	SARS-CoV-2 N2	3.581341505	0	1205.935364	3805.175349																																					0.005	Sample		11/3/21	10	NT04474	Halcyon	Ceres Nanotrap	0.425		CP0032	C04	JL	WWTP	Sample	11/3/21	0.4	21108255	Kookaburra	Thermo Magmax Microbiome Ultra Nucleic Acid Isolation Kit	0.05	J8	EP0032	B04	JL	WarmSpringsWWTP-01	-	10/26/21 8:15	Composite	10/26/21 7:00	10/25/21 7:00			Pass	JL	10/29/21	6.95	Morgan	Processing	Complete
A02-0220	15582	OneStep RT-ddPCR	Human RNase P	21.15003347	22471.91057	None				11/29/21	Manual	DQ	58477038	QX 200	CDC nCov-2 Triplex	J5	AP0022	A05	JL	SARS-CoV-2 N1	1.510086507	0	1092.976303	1604.466913	SARS-CoV-2 N2	3.020269871	0	1279.930573	3209.036738																																					0.005	Sample		2021-11-19	10	NT04474	Halcyon	Ceres Nanotrap	0.475		CP0038	B01	AJ	WVU Morgantown	Sample	2021-11-19	0.4	2108255	Halcyon	Ultra 2.0 Microbiome (Thermo)	0.075	J5	EP0038	A05	AJ	HonorsSummit-01 (MUB)	EL	11/15/21 9:54	Composite	11/15/21 9:00	11/13/21 9:00						7.3	Monongalia	Processing	Complete
J01-0015																																																																															WWTP												AlpineLakeWWTP-01												Preston		
G02-0008		OneStep RT-ddPCR	Human RNase P			None				11/1/21	CHECK	ABS	58477038	QX 200	CDC nCov-2 Triplex	D4	AP0015	D04	JL	SARS-CoV-2 N1					SARS-CoV-2 N2																																									0.005	Sample		10/27/21	10	NT04474	Kookaburra	Ceres Nanotrap	0.425		CP0029	A04	JL	WVU Keyser	Sample	10/27/21	0.4	2108255	Halcyon	Thermo Magmax Microbiome Ultra Nucleic Acid Isolation Kit	0.05	D4	EP0029	A04	JL	PotomacState-01	R	10/20/21 12:30	Composite	10/20/21 12:30	10/19/21 9:30			Pass	JL	10/27/21	7.01	Mineral	Processing	Processing
A1060	13067	OneStep RT-ddPCR		137.25		BRSV		325968.75		7/7/21	Manual	DQ			BRSV Triplex					SARS-CoV-2 N1	3.6			8550	SARS-CoV-2 N2	1.8			4275																																				N1/N2/BRSV Triplex	0.005	Sample			10			Ceres Nanotrap	0.95	pH - 6.93				WWTP	Sample	7/7/21	0.4			Thermo Magmax Microbiome Ultra Nucleic Acid Isolation Kit	0.05				JL	StarCityWWTP-01	EL	5/31/21 23:55	Composite	5/31/21 23:55	5/31/21 0:00	7.296		Pass	JL	6/4/21	6.93	Monongalia	Processing	Complete
G01-0065	18070	OneStep RT-ddPCR	Human RNase P	1.302161813	1383.546926	None				11/4/21	Manual	DQ	58477038	QX 200	CDC nCov-2 Triplex	I7	AP0016	D07	JL	SARS-CoV-2 N1	31.27178669	0	1040.980072	33226.27336	SARS-CoV-2 N2	28.66421938	0	1205.935364	30455.73309																																					0.005	Sample		11/3/21	10	NT04474	Halcyon	Ceres Nanotrap	0.425		CP0032	B01	JL	WWTP	Sample	11/3/21	0.4	21108255	Kookaburra	Thermo Magmax Microbiome Ultra Nucleic Acid Isolation Kit	0.05	I7	EP0032	A07	JL	KeyserWWTP-01	GP	11/1/21 12:00	Composite	11/1/21 9:00	10/31/21 9:00			Pass	JL	11/2/21	6.86	Mineral	Processing	Complete
A01-0064	12786	OneStep RT-ddPCR	Human RNase P	5.521392226	5866.47924	None				10/20/21	Manual	DQ	58477038	QX One	CDC nCov-2 Triplex	K4	AP0014	D06	JL	SARS-CoV-2 N1	51.58344746	0	2152.007294	54807.41292	SARS-CoV-2 N2	12.88526416	0	2493.552246	13690.59317																																					0.005	Sample		10/20/21	10	NT04474	Halcyon	Ceres Nanotrap	0.425		CP0027	A04	JL	WWTP	Sample	10/20/21	0.4	2108255	Halcyon	Thermo Magmax Microbiome Ultra Nucleic Acid Isolation Kit	0.05	K4	EP0027	A04	JL	StarCityWWTP-01	GG	10/16/21 0:00	Composite	10/16/21 23:55	10/16/21 0:00	11.183 		Pass	JL	10/20/21		Monongalia	Processing	Complete
A02-0298																																																																																											WVU-Morgantown												Monongalia		
A1046	12846	OneStep RT-ddPCR	Human RNase P		30792					5/17/21	Manual	DQ		QX 200	CDC nCov-2 Triplex					SARS-CoV-2 N1				0	SARS-CoV-2 N2				0																																				CDC N1/N2/RP Triplex	0.005	Sample		5/14/21	100			PEG Precipitation	4				MVS	WWTP	Sample	5/17/21	0.2			Qiagen QiaAMP Viral Mini-RNA Kit	0.06				MVS	StarCityWWTP-01	EL	5/14/21 10:53	Composite	5/11/21 11:59	5/11/21 12:00	12.067		Pass	MVS	5/14/21		Monongalia	Processing	Complete
A03-0176																																																																																											MorgantownHS-01												Monongalia		
A0226	12328	OneStep RT-ddPCR	Human RNase P		6303					2/22/21	Manual	DQ			CDC nCov-2 Triplex					SARS-CoV-2 N1				107151	SARS-CoV-2 N2				69300																																				CDC N1/N2/RP Triplex	0.005	Sample		2/5/21	100			PEG Precipitation	5.5				MS	WWTP	Sample	2/19/21	0.2			Qiagen QiaAMP Viral Mini-RNA Kit	0.06				MS	StarCityWWTP-01	GS	1/24/21 0:00	Composite	1/24/21 23:59	1/24/21 0:00	7.031		Pass	TD	1/29/21		Monongalia	Processing	Complete
A01-0082	15687	OneStep RT-ddPCR	Human RNase P	19.6	20825					11/18/21	Manual	DQ	58477038	QX 200	CDC nCov-2 Triplex	E7	AP0020	C07	JL	SARS-CoV-2 N1	57	0	1193.4	60562.5	SARS-CoV-2 N2	51	0	1245	54187.5																																					0.005	Sample		11/11/21	10	NT04474	Kookaburra	Ceres Nanotrap	0.425		CP0034	D03	JL	WWTP	Sample	11/11/21	0.4	2108255	Kookaburra	Thermo Magmax Microbiome Ultra Nucleic Acid Isolation Kit	0.05	E7	EP0034	B07	JL	StarCityWWTP-01	GG	11/6/21 23:55	Composite	11/6/21 23:55	11/6/21 0:00			Pass	JL	11/10/21	6.98	Monongalia	Processing	Complete
A02-0147	17428	OneStep RT-ddPCR	Human RNase P	37.74860859	40107.89663					10/11/21	Manual	DQ	58477037	QX One	CDC nCov-2 Triplex	K1	AP0012	A04	JL	SARS-CoV-2 N1	13.47467899	0	1593.187866	14316.84643	SARS-CoV-2 N2	51.2449789	0	2077.493896	54447.79009																																				CDC N1/N2/RP Triplex	0.005	Sample		10/8/21	10	NT04474	Halcyon	Ceres Nanotrap	0.425		CP0022	A01	JL	WVU Morgantown	Sample	10/8/21	0.4	2108052	Halcyon	Thermo Magmax Microbiome Ultra Nucleic Acid Isolation Kit	0.05	K1	EP0022	A01	JL	Evansdale-01	EL	10/8/21 9:18	Composite	10/8/21 9:18	10/6/21 9:18			Pass	JL	10/8/21	6.42	Monongalia	Processing	Complete
A02-0265																																																																																											WVU-Morgantown												Monongalia		
A0231	15227	OneStep RT-ddPCR	Human RNase P		10197					2/22/21	Manual	DQ			CDC nCov-2 Triplex					SARS-CoV-2 N1				122496	SARS-CoV-2 N2				127578																																				CDC N1/N2/RP Triplex	0.005	Sample		2/5/21	100			PEG Precipitation	5.5				MS	WWTP	Sample	2/19/21	0.2			Qiagen QiaAMP Viral Mini-RNA Kit	0.06				MS	StarCityWWTP-01	GS	1/31/21 0:00	Composite	1/31/21 23:59	1/31/21 0:00	9.189		Pass	TD	2/4/21		Monongalia	Processing	Complete
G02-0001	14365	OneStep RT-ddPCR	Human RNase P	2.077781558	2207.642905					10/14/21	Manual	DQ	58477038	QX One	CDC nCov-2 Triplex	C4	AP0013	D02	JL	SARS-CoV-2 N1	20.78432798	0	1707.766876	22083.34848	SARS-CoV-2 N2	4.155707955	0	1836.244965	4415.439703																																				CDC N1/N2/RP Triplex	0.005	Sample		10/13/21	10	NT04474	Halcyon	Ceres Nanotrap	0.425		CP0024	A04	JL	WVU Keyser	Sample	10/13/21	0.4	2108255	Halcyon	Thermo Magmax Microbiome Ultra Nucleic Acid Isolation Kit	0.05	C4	EP0024	A04	JL	PotomacState-01	MH	10/6/21 10:40	Grab	10/6/21 10:40	10/6/21 10:35			Pass	JL	10/13/21	6.86	Mineral	Processing	Complete
B01-0014	19518	OneStep RT-ddPCR	Human RNase P	3.197839558	3397.704531					10/11/21	Manual	DQ	58477037	QX One	CDC nCov-2 Triplex	H3	AP0012	C02	JL	SARS-CoV-2 N1	67.22354412	0	1593.187866	71425.01563	SARS-CoV-2 N2	36.79495335	0	2077.493896	39094.63793																																				CDC N1/N2/RP Triplex	0.005	Sample		10/7/21	10	NT04474	Halcyon	Ceres Nanotrap	0.425		CP0021	A03	JL	WWTP	Sample	10/7/21	0.4	2108052	Halcyon	Thermo Magmax Microbiome Ultra Nucleic Acid Isolation Kit	0.05	H3	EP0021	A03	JL	CharlestonWWTP-01	KM	10/4/21 8:00	Composite	10/4/21 7:00	10/3/21 7:00			Pass	JL	10/6/21	6.59	Kanawha	Processing	Complete
A01-0060	15183	OneStep RT-ddPCR	Human RNase P	43.43224525	46146.76058	None				10/20/21	Manual	DQ	58477038	QX One	CDC nCov-2 Triplex	I6	AP0014	F05	JL	SARS-CoV-2 N1	43.43224525	0	2152.007294	46146.76058	SARS-CoV-2 N2	49.64339733	0	2493.552246	52746.10966																																				CDC N1/N2/RP Triplex	0.005	Sample		10/18/21	10	NT04474	Halcyon	Ceres Nanotrap	0.425		CP0026	D02	JL	WWTP	Sample	10/18/21	0.4	2108255	Halcyon	Thermo Magmax Microbiome Ultra Nucleic Acid Isolation Kit	0.05	I6	EP0026	B06	JL	StarCityWWTP-01	GG	10/10/21 23:55	Composite	10/10/21 23:55	10/10/21 0:00	7.441		Pass	JL	10/13/21	6.89	Monongalia	Processing	Complete
A1009	14514	OneStep RT-ddPCR	Human RNase P		115878					3/22/21	Manual	DQ		QX 200	CDC nCov-2 Triplex					SARS-CoV-2 N1				30639	SARS-CoV-2 N2				34062																																				CDC N1/N2/RP Triplex	0.005	Sample		3/19/21	100			PEG Precipitation	3.5				TD	WWTP	Sample	3/21/21	0.2			Qiagen QiaAMP Viral Mini-RNA Kit	0.06				TD	StarCityWWTP-01	GG	3/18/21 11:59	Composite	3/18/21 11:59	3/18/21 12:01	9.989		Pass	JL	3/19/21		Monongalia	Processing	Complete
J01-0029																																																																															WWTP												AlpineLakeWWTP-01												Preston		
E02-0003	13989	OneStep RT-ddPCR	Human RNase P	11.8	12537.5					11/18/21	Manual	DQ	58477038	QX 200	CDC nCov-2 Triplex	E1	AP0020	C01	JL	SARS-CoV-2 N1	1.6	0	1193.4	1700	SARS-CoV-2 N2	1.6	0	1245	1700																																					0.005	Sample		11/11/21	10	NT04474	Kookaburra	Ceres Nanotrap	0.425		CP0034	C01	JL	WWTP	Sample	11/11/21	0.4	2108255	Kookaburra	Thermo Magmax Microbiome Ultra Nucleic Acid Isolation Kit	0.05	E1	EP0034	B01	JL	AthensWWTP-01	-	11/5/21 8:00	Composite	11/5/21 8:00	11/4/21 8:00			Pass	JL	11/8/21	6.49	Mercer	Processing	Complete
A03-0159																																																																																											SuncrestES-01												Monongalia		
B01-0062	16051	OneStep RT-ddPCR	Human RNase P	8.797138333	9346.959479	None				11/8/21	Manual	DQ	58477038	QX 200	CDC nCov-2 Triplex	B2	AP0017	B02	AJ	SARS-CoV-2 N1	26.40128851	0	560.2787018	28051.36904	SARS-CoV-2 N2	20.53177357	0	653.7683868	21815.00942																																				CDC N1/N2/RP Triplex	0.005	Sample		11/5/21	10	NT04474	Kookaburra	Ceres Nanotrap	0.425		CP00033	B04	JL	WWTP	Sample	11/5/21	0.4	21108255	Kookaburra	Thermo Magmax Microbiome Ultra Nucleic Acid Isolation Kit	0.05	B2	EP0033	B02	JL	CharlestonWWTP-01	-	11/4/21 7:50	Composite	11/4/21 7:00	11/3/21 7:00			Pass	JL	11/5/21	6.85	Kanawha	Processing	Complete
A1027	12104	OneStep RT-ddPCR	Human RNase P		42000					4/19/21	Manual	DQ		QX 200	CDC nCov-2 Triplex					SARS-CoV-2 N1				9336	SARS-CoV-2 N2				4656																																				CDC N1/N2/RP Triplex	0.005	Sample		4/16/21	100			PEG Precipitation	4				JL	WWTP	Sample	4/19/21	0.2			Qiagen QiaAMP Viral Mini-RNA Kit	0.06				JL	StarCityWWTP-01	EL	4/12/21 12:00	Composite	4/13/21 12:00	4/12/21 12:00	11.895		Pass	MVS	4/16/21		Monongalia	Processing	Complete
L01-0035																																																																																											WestUnionWWTP-01												Doddridge		
L01-0016																																																																																											WestUnionWWTP-01												Doddridge		
G01-0021	17851	OneStep RT-ddPCR	Human RNase P	23.73777866	42282.91824	None				11/29/21	Manual	DQ	58477038	QX 200	CDC nCov-2 Triplex	A8	AP0022	B05	JL	SARS-CoV-2 N1	39.57627773	0	1092.976303	70495.24471	SARS-CoV-2 N2	39.57627773	0	1279.930573	70495.24471																																					0.005	Sample		2021-11-19	10	NT04474	Halcyon	Ceres Nanotrap	0.475		CP0038	D01	AJ	WWTP	Sample	2021-11-19	0.4	2108255	Halcyon	Ultra 2.0 Microbiome (Thermo)	0.075	A8	EP0038	B05	AJ	KeyserWWTP-01	-	11/17/21 8:40	Composite	11/17/21 8:00	11/16/21 9:00			Pass	AJ	11/19/21	7.35	Mineral	Processing	Complete
A02-0164	10490	OneStep RT-ddPCR	Human RNase P	47.96174049	50959.34927					10/14/21	Manual	DQ	58477038	QX One	CDC nCov-2 Triplex	B6	AP0013	F01	JL	SARS-CoV-2 N1	2.395914346	0	1707.766876	2545.658993	SARS-CoV-2 N2	7.18842864	0	1836.244965	7637.70543																																				CDC N1/N2/RP Triplex	0.005	Sample		10/11/21	10	NT04474	Halcyon	Ceres Nanotrap	0.425		CP0023	B02	JL	WVU Morgantown	Sample	10/11/21	0.4	2108255	Halcyon	Thermo Magmax Microbiome Ultra Nucleic Acid Isolation Kit	0.05	B6	EP0023	A06	JL	OaklandE-02	EL	10/11/21 9:20	Composite	10/11/21 9:00	10/9/21 9:00			Pass	JL		7	Monongalia	Processing	Complete
A01-0034	13383	OneStep RT-ddPCR	Human RNase P	26.38714075	28036.33705					9/20/21	Manual	DQ	58477037	QX 200	CDC nCov-2 Triplex	D2	AP0008	C02	JL	SARS-CoV-2 N1	109.2589951	0	1320.22522	116087.6822	SARS-CoV-2 N2	75.72245121	0	1524.019623	80455.10441																																				CDC N1/N2/RP Triplex	0.005	Sample		9/15/21	10	NT04155	Kookaburra	Ceres Nanotrap	0.425		CP0012	A02	JL	WWTP	Sample	9/15/21	0.4	2105033	Halcyon	Thermo Magmax Microbiome Ultra Nucleic Acid Isolation Kit	0.05	D2	EP0012	A02	JL	StarCityWWTP-01	GG	9/12/21 23:55	Composite	9/12/21 23:55	9/12/21 0:00	8.154		Pass	JL	9/15/21	6.73	Monongalia	Processing	Complete
A02-0355																																																																																											WVU-Morgantown												Monongalia		
A01-0069		OneStep RT-ddPCR	Human RNase P			None				11/1/21	CHECK	ABS	58477038	QX 200	CDC nCov-2 Triplex	A3	AP0015	A03	JL	SARS-CoV-2 N1					SARS-CoV-2 N2																																									0.005	Sample		10/25/21	10	NT04474	Halcyon	Ceres Nanotrap	0.425		CP0028	A03	JL	WWTP	Sample	10/25/21	0.4	2108255	Halcyon	Thermo Magmax Microbiome Ultra Nucleic Acid Isolation Kit	0.05	A3	EP0028	A03	JL	StarCityWWTP-01	GG	10/21/21 23:55	Composite	10/21/21 23:55	10/21/21 0:00	7.344 		Pass	JL	10/25/21	7.61	Monongalia	Processing	Processing
A02-0023	11003	OneStep RT-ddPCR	Human RNase P	10.50681472	11163.49064					8/20/21	Manual	DQ		QX One	BRSV Triplex	F4	AP000000	D01	JL	SARS-CoV-2 N1	56.79361343	0	3138.026123	29334.11992	SARS-CoV-2 N2	21.01840734	0	3336.080627	36673.0299																																				CDC N1/N2/RP Triplex	0.005	Sample		9/2/21	10	 NT04155	Kookaburra	Ceres Nanotrap	0.425	7.16	CP0007	A04	JL	WVU Morgantown	Sample	9/2/21	0.4	2102028	Halcyon	Thermo Magmax Microbiome Ultra Nucleic Acid Isolation Kit	0.05	F4	EP0007	A04	JL	NorthHighSt-02 (MUB)	EL	8/20/21 9:56	Composite	8/20/21 9:56	8/18/21 9:56			Pass	Jl	8/20/21	7.16	Monongalia	Processing	Complete
C01-0012	14752	OneStep RT-ddPCR	Human RNase P	18.22779894	19367.03637					10/5/21	Manual	DQ	58477037	QX One	CDC nCov-2 Triplex	E3	AP0011	C03	JL	SARS-CoV-2 N1	15.18880248	1355.395355	0	16138.10264	SARS-CoV-2 N2	31.90838814	1548.404388	0	33902.6624																																				CDC N1/N2/RP Triplex	0.005	Sample		10/1/21	10	NT04474	Halcyon	Ceres Nanotrap	0.425	E3	CP0019	D01	JL	WWTP	Sample	10/1/21	0.4	2108052	Halcyon	Thermo Magmax Microbiome Ultra Nucleic Acid Isolation Kit	0.05	E3	EP0019	C03	JL	WheelingWWTP-01	MVC	9/30/21 7:00	Composite	9/30/21 7:00	9/29/21 7:00			Pass	JL	10/1/21		Ohio	Processing	Complete
A01-0012	15896	OneStep RT-ddPCR	Human RNase P	31.17315769	33121.48005					8/24/21	CHECK	DQ	58477036	QX One	CDC nCov-2 Triplex	K2	AP0004	G03	JL	SARS-CoV-2 N1	74.86507893	-20	2835.271912	79544.14636	SARS-CoV-2 N2	72.78320313	-20	3151.898499	77332.15332																																				CDC N1/N2/RP Triplex	0.005	Sample		8/24/21	10	NT04155	Halcyon	Ceres Nanotrap	0.425		CP0003	A02	JL	WWTP	Sample	8/24/21	0.4	2102028	Halcyon	Thermo Magmax Microbiome Ultra Nucleic Acid Isolation Kit	0.05	K2	EP0003	A02	JL	StarCityWWTP-01	GG	8/22/21 23:59	Composite	8/22/21 23:59	8/22/21 0:00	9.615		Pass	JL	8/24/21	7.06	Monongalia	Processing	Complete
J01-0037																																																																															WWTP												AlpineLakeWWTP-01												Preston		
A02-0154	17517	OneStep RT-ddPCR				BRSV	1378.825073	1465001.64		8/13/21	Manual	DQ		QX 200	BRSV Triplex		AP000000	A08	JL	SARS-CoV-2 N1	0	0	2236.361694	0	SARS-CoV-2 N2	1.343271285	0	2276.707153	1427.22571																																				CDC N1/N2/RP Triplex	0.005	Sample	Was A06-0017	8/13/21	10	NT04155	Kookaburra	Ceres Nanotrap	0.425		CP000000	B02	JL	WVU Morgantown	Sample	8/13/21	0.4	2102028	Kookaburra	Thermo Magmax Microbiome Ultra Nucleic Acid Isolation Kit	0.05		EP000000	B02	JL	NorthHighSt-02 (MUB)	EL	8/11/21 9:35	Composite	8/11/21 9:00	8/10/21 9:00			Pass	JL	8/11/21	7.55	Monongalia	Processing	Complete
A0103	11366	OneStep RT-ddPCR	Human RNase P		18630					11/10/20	Manual	DQ		QX 200	CDC nCov-2 Triplex					SARS-CoV-2 N1				12420	SARS-CoV-2 N2				12420																																				CDC N1/N2/RP Triplex	0.005	Sample		11/9/20	100			PEG Precipitation	5				MS	WWTP	Sample	11/10/20	0.2			Qiagen QiaAMP Viral Mini-RNA Kit	0.06				MS	StarCityWWTP-01	GS	11/4/20 0:00	Composite	11/4/20 23:59	11/4/20 0:00	6.950		Pass	TD	11/9/20		Monongalia	Processing	Complete
A03-0090	16196	OneStep RT-ddPCR	Human RNase P	2.905762494	3087.372649	None				11/29/21	Manual	DQ	58477038	QX 200	CDC nCov-2 Triplex	D6	AP0022	F06	JL	SARS-CoV-2 N1	0	0	1092.976303	0	SARS-CoV-2 N2	0	0	1279.930573	0																																					0.005	Sample		2021-11-15	10	NT04474	Halcyon	Ceres Nanotrap	0.425		CP0035	C02	LW	K-12	Sample	2021-11-15	0.4	2108255	Halcyon	Ultra 2.0 Microbiome (Thermo)	0.05	D6	EP0035	B06	JL	NorthES-01	BL	11/11/21 12:00	Composite	11/10/21 14:00	11/10/21 6:00			Pass	JL	11/12/21		Monongalia	Processing	Complete
G01-0080																																																																															WWTP												KeyserWWTP-01	-	12/01/2021 01:40 PM	Composite	12/01/2021 08:00 AM	11/30/2021 09:00 AM			Pass	AJ	12/02/2021	7.29	Mineral		
A02-0165	15348	OneStep RT-ddPCR	Human RNase P	1.40364483	1491.372632					10/14/21	Manual	DQ	58477038	QX One	CDC nCov-2 Triplex	B7	AP0013	G01	JL	SARS-CoV-2 N1	0	0	1707.766876	0	SARS-CoV-2 N2	0	0	1836.244965	0																																				CDC N1/N2/RP Triplex	0.005	Sample		10/11/21	10	NT04474	Halcyon	Ceres Nanotrap	0.425		CP0023	B03	JL	WVU Morgantown	Sample	10/11/21	0.4	2108255	Halcyon	Thermo Magmax Microbiome Ultra Nucleic Acid Isolation Kit	0.05	B7	EP0023	A07	JL	Evansdale-01	EL	10/11/21 9:09	Composite	10/11/21 9:00	10/9/21 9:00			Pass	JL	10/11/21	7.01	Monongalia	Processing	Complete
L01-0029																																																																																											WestUnionWWTP-01												Doddridge		
A02-0121	13921	OneStep RT-ddPCR	Human RNase P	16.90817237	17964.93314					9/24/21	Manual	DQ		QX 200	CDC nCov-2 Triplex	J2	AP0009	C02	JL	SARS-CoV-2 N1	15.21680832	0	878.4640503	16167.85884	SARS-CoV-2 N2	15.21680832	0	968.4371185	16167.85884																																				CDC N1/N2/RP Triplex	0.005	Sample		9/24/21	10		Halcyon	Ceres Nanotrap	0.425		CP0016	C06	JL	WVU Morgantown	Sample	9/24/21	0.4	XXXXXX	Halcyon	Thermo Magmax Microbiome Ultra Nucleic Acid Isolation Kit	0.05	J2	EP0016	B06	JL	HonorsSummit-01 (MUB)	EL	9/22/21 9:47	Composite	9/22/21 9:47	9/20/21 9:47			Pass	JL	9/22/21	7.27	Monongalia	Processing	Complete
A1021	11698	OneStep RT-ddPCR	Human RNase P		36210					4/12/21	Manual	DQ		QX 200	CDC nCov-2 Triplex					SARS-CoV-2 N1				42240	SARS-CoV-2 N2				12060																																				CDC N1/N2/RP Triplex	0.005	Sample		4/9/21	100			PEG Precipitation	5				MVS	WWTP	Sample	4/12/21	0.2			Qiagen QiaAMP Viral Mini-RNA Kit	0.06				MVS	StarCityWWTP-01	GG	4/4/21 11:55	Composite	4/4/21 11:55	4/4/21 12:00	9.589		Pass	Josh Lambert	4/9/21		Monongalia	Processing	Complete
J01-0004																																																																															WWTP												AlpineLakeWWTP-01												Preston		
I01-0004	12820	OneStep RT-ddPCR	Human RNase P	1.8	1912.5					11/18/21	Manual	DQ	58477038	QX 200	CDC nCov-2 Triplex	D5	AP0020	B05	JL	SARS-CoV-2 N1	14.6	0	1193.4	15512.5	SARS-CoV-2 N2	11	0	1245	11687.5																																					0.005	Sample		11/11/21	10	NT04474	Kookaburra	Ceres Nanotrap	0.425		CP0034	B01	JL	WWTP	Sample	11/11/21	0.4	2108255	Kookaburra	Thermo Magmax Microbiome Ultra Nucleic Acid Isolation Kit	0.05	D5	EP0034	A05	JL	WarmSpringsWWTP-01	-	11/2/21 10:30	Composite	11/2/21 7:00	11/1/21 7:00			Pass	AJ	11/8/21	7.08	Morgan	Processing	Complete
A01-0056	7390	OneStep RT-ddPCR	Human RNase P	45.81719398	48680.76861					10/11/21	Manual	DQ	58477037	QX One	CDC nCov-2 Triplex	K6	AP0012	F04	JL	SARS-CoV-2 N1	99.36486244	0	1593.187866	105575.1663	SARS-CoV-2 N2	87.88179398	0	2077.493896	93374.4061																																				CDC N1/N2/RP Triplex	0.005	Sample		10/8/21	10	NT04474	Halcyon	Ceres Nanotrap	0.425		CP0022	A06	JL	WWTP	Sample	10/8/21	0.4	2108052	Halcyon	Thermo Magmax Microbiome Ultra Nucleic Acid Isolation Kit	0.05	K6	EP0022	A06	JL	StarCityWWTP-01	GG	10/5/21 23:55	Composite	10/5/21 23:55	10/5/21 0:00	7.802		Pass	JL	10/8/21	7.16	Monongalia	Processing	Confirming
A0035	16284	OneStep RT-ddPCR	Human RNase P		49430.4					12/14/20	Manual	DQ			CDC nCov-2 Triplex					SARS-CoV-2 N1				112130.4	SARS-CoV-2 N2				75832.8																																				CDC N1/N2/RP Triplex	0.005	Sample		12/13/20	100			PEG Precipitation	3.8				MS	WWTP	Sample	12/14/20	0.2			Qiagen QiaAMP Viral Mini-RNA Kit	0.06				MS	StarCityWWTP-01	GG	12/7/20 0:00	Composite	12/7/20 11:59	12/7/20 12:00	7.578 		Pass	TD	12/11/20		Monongalia	Processing	Complete
L01-0007																																																																																											WestUnionWWTP-01												Doddridge		
A01-0057	9226	OneStep RT-ddPCR	Human RNase P	56.12654686	59634.45604					10/11/21	Manual	DQ	58477037	QX One	CDC nCov-2 Triplex	K7	AP0012	G04	JL	SARS-CoV-2 N1	251.7256927	0	1593.187866	267458.5485	SARS-CoV-2 N2	92.49897003	0	2077.493896	98280.15566																																				CDC N1/N2/RP Triplex	0.005	Sample		10/8/21	10	NT04474	Halcyon	Ceres Nanotrap	0.425		CP0022	B01	JL	WWTP	Sample	10/8/21	0.4	2108052	Halcyon	Thermo Magmax Microbiome Ultra Nucleic Acid Isolation Kit	0.05	K7	EP0022	A07	JL	StarCityWWTP-01	GG	10/6/21 23:55	Composite	10/6/21 23:55	10/6/21 0:00	7.48		Pass	JL	10/8/21	7.18	Monongalia	Processing	Complete
B01-0073	17284	OneStep RT-ddPCR	Human RNase P	2.722838819	2893.016245	None				11/4/21	Manual	DQ	58477038	QX 200	CDC nCov-2 Triplex	H5	AP0016	C05	JL	SARS-CoV-2 N1	1.36138007	0	1040.980072	1446.466325	SARS-CoV-2 N2	0	0	1205.935364	0																																				CDC N1/N2/RP Triplex	0.005	Sample		11/2/21	10	NT04474	Kookaburra	Ceres Nanotrap	0.425		CP0031	A06	JL	WWTP	Sample	11/2/21	0.4	21108255	Kookaburra	Thermo Magmax Microbiome Ultra Nucleic Acid Isolation Kit	0.05	H5	EP0031	C05	JL	CharlestonWWTP-01	KM	10/27/21 8:00	Composite	10/27/21 7:00	10/26/21 7:00			Pass	JL	10/29/21	7.1	Kanawha	Processing	Complete
F01-0028	12638	OneStep RT-ddPCR	Human RNase P	1.861872375	1978.239398	None				11/22/21	Manual	DQ	58477038	QX 200	CDC nCov-2 Triplex	L2	AP0021	D02	JL	SARS-CoV-2 N1	52.18819618	1109.141006	0	55449.95844	SARS-CoV-2 N2	24.21583891	1229.36615	0	25729.32884																																					0.005	Sample		11/17/21	10	NT04474	Halcyon	Ceres Nanotrap	0.425		CP0037	C02	JL	WWTP	Sample	11/17/21	0.4	2108255	Halcyon	Thermo Magmax Microbiome Ultra Nucleic Acid Isolation Kit	0.05	L2	EP0037	B02	JL	WestonWWTP-01													Processing	Complete
B01-0018	12896	OneStep RT-ddPCR	Human RNase P	5.474290252	5816.433392	None				10/20/21	Manual	DQ	58477038	QX One	CDC nCov-2 Triplex	L2	AP0014	B07	JL	SARS-CoV-2 N1	20.07862806	0	2152.007294	21333.54232	SARS-CoV-2 N2	14.60093856	0	2493.552246	15513.49722																																				CDC N1/N2/RP Triplex	0.005	Sample		10/20/21	10	NT04474	Halcyon	Ceres Nanotrap	0.425		CP0027	C02	JL	WWTP	Sample	10/20/21	0.4	2108255	Halcyon	Thermo Magmax Microbiome Ultra Nucleic Acid Isolation Kit	0.05	L2	EP0027	B02	JL	CharlestonWWTP-01	KM	10/18/21 8:15	Composite	10/18/21 7:00	10/17/21 7:00	7.471		Pass	JL	10/20/21		Kanawha	Processing	Complete
A03-0113																																																																															K-12												SuncrestES-01	GZ	12/02/2021 11:59 AM	Composite	12/01/2021 02:00 PM	12/01/2021 06:00 AM							Monongalia		
A1004	12806	OneStep RT-ddPCR	Human RNase P		60660					3/16/21	Manual	DQ		QX 200	CDC nCov-2 Triplex					SARS-CoV-2 N1				5520	SARS-CoV-2 N2				5520																																				CDC N1/N2/RP Triplex	0.005	Sample		3/12/21	100			PEG Precipitation	5				AHT	WWTP	Sample	3/15/21	0.2			Qiagen QiaAMP Viral Mini-RNA Kit	0.06				AHT	StarCityWWTP-01	EL	3/11/21 12:00	Composite	3/11/21 12:00	3/11/21 12:00	8.844		Pass	MVS	3/12/21		Monongalia	Processing	Complete
A01-0051	15165	OneStep RT-ddPCR	Human RNase P	34.74868774	36920.48073					10/11/21	Manual	DQ	58477037	QX One	CDC nCov-2 Triplex	F6	AP0012	F01	JL	SARS-CoV-2 N1	322.0767975	0	1593.187866	342206.5973	SARS-CoV-2 N2	352.9288101	0	2077.493896	374986.8608																																				CDC N1/N2/RP Triplex	0.005	Sample		10/5/21	10	NT04474	Halcyon	Ceres Nanotrap	0.425		CP0020	A06	JL	WWTP	Sample	10/5/21	0.4	2108052	Halcyon	Thermo Magmax Microbiome Ultra Nucleic Acid Isolation Kit	0.05	F6	EP0020	A06	JL	StarCityWWTP-01	JF	9/30/21 9:30	Composite	9/29/21 23:55	9/29/21 0:00	7.542		Pass	JL	10/1/21	7.48	Monongalia	Processing	Complete
A03-0160																																																																																											MorgantownHS-01												Monongalia		
A02-0032	18675	OneStep RT-ddPCR	Human RNase P	22.68988609	24108.00397					9/9/21	Manual	DQ	58477037	QX 200	CDC nCov-2 Triplex	F5	AP0007	C01	JL	SARS-CoV-2 N1	3.780128658	0	1303.838043	4016.386699	SARS-CoV-2 N2	3.780128658	0	1366.207123	4016.386699																																				CDC N1/N2/RP Triplex	0.005	Sample		9/2/21	10	 NT04155	Kookaburra	Ceres Nanotrap	0.425		CP0007	A05	JL	WVU Morgantown	Sample	9/2/21	0.4	2102028	Halcyon	Thermo Magmax Microbiome Ultra Nucleic Acid Isolation Kit	0.05	F5	EP0007	A05	JL	CollegePark-02	EL	8/23/21 10:11	Grab	8/23/21 10:11	8/23/21 10:11			Pass	JL	8/23/21	7.78	Monongalia	Processing	Complete
A02-0198	15277	OneStep RT-ddPCR	Human RNase P	7.702186704	8183.573373	None				11/4/21	Manual	DQ	58477038	QX 200	CDC nCov-2 Triplex	G3	AP0016	B03	JL	SARS-CoV-2 N1	1.540235877	0	1040.980072	1636.500619	SARS-CoV-2 N2	12.32471108	0	1205.935364	13095.00553																																					0.005	Sample		11/2/21	10	NT04474	Kookaburra	Ceres Nanotrap	0.425		CP0031	C03	JL	WVU Morgantown	Sample	11/2/21	0.4	21108255	Kookaburra	Thermo Magmax Microbiome Ultra Nucleic Acid Isolation Kit	0.05	G3	EP0031	B03	JL	CollegePark-02	CA	10/29/21 12:32	Composite	10/29/21 10:26	10/27/21 10:26			Pass	JL	10/29/21	6.74	Monongalia	Processing	Complete
K01-0002																																																																																											ParkersburgWWTP-01												Wood		
A02-0016	17093	OneStep RT-ddPCR	Human RNase P	6.883769631	7314.005233					8/18/21	Manual	DQ	58477036	QX 200	CDC nCov-2 Triplex	G1	AP000000	A01	JL	SARS-CoV-2 N1	23.41303587	0	1685.59967	24876.35112	SARS-CoV-2 N2	24.79100227	1.36802882	1874.414978	26340.43992																																				CDC N1/N2/RP Triplex	0.005	Sample		8/18/21	10	NT04155	Kookaburra	Ceres Nanotrap	0.425		CP000000	A01	JL	WVU Morgantown	Sample	8/18/21	0.4	2102028	Kookaburra	Thermo Magmax Microbiome Ultra Nucleic Acid Isolation Kit	0.05		EP000000	A01	JL	Evansdale-01	EL	8/18/21 9:23	Composite	8/18/21 9:23	8/16/21 9:28			Pass	JL	8/18/21	6.91	Monongalia	Processing	Complete
L01-0032																																																																																											WestUnionWWTP-01												Doddridge		
A02-0097	14905	OneStep RT-ddPCR	Human RNase P	156.8052483	166605.5763					9/20/21	Manual	DQ	58477037	QX 200	CDC nCov-2 Triplex	B5	AP0008	B05	JL	SARS-CoV-2 N1	0	0	1320.22522	0	SARS-CoV-2 N2	0	0	1524.019623	0																																				CDC N1/N2/RP Triplex	0.005	Sample		9/13/21	10	NT04155	Halcyon	Ceres Nanotrap	0.425		CP0011	C01	JL	WVU Morgantown	Sample	9/13/21	0.4	2105033	Halcyon	Thermo Magmax Microbiome Ultra Nucleic Acid Isolation Kit	0.05	B5	EP0011	B01	JL	Evansdale-01	EL	9/13/21 9:20	Grab	9/13/21 9:20	9/13/21 9:20			Pass	JL	9/13/21	7.79	Monongalia	Processing	Complete
A02-0344																																																																																											WVU-Morgantown												Monongalia		
G01-0024																																																																			Sample	SAT AT FEDEX											WWTP	Sample											KeyserWWTP-01		11/22/2021 08:20 AM	Composite	11/22/2021 08:00 AM	11/21/2021 09:00 AM			Fail: Temperature Above Threshold	JL	11/29/2021		Mineral		Unknown
A03-0020	9750	OneStep RT-ddPCR	Human RNase P	0	0	None				11/8/21	Manual	DQ	58477038	QX 200	CDC nCov-2 Triplex	G4	AP0017	D04	AJ	SARS-CoV-2 N1	0	0	560.2787018	0	SARS-CoV-2 N2	0	0	653.7683868	0																																					0.005	Sample		10/15/21	10	NT04474	Halcyon	Ceres Nanotrap	0.425		CP0025	D02	JL	K-12	Sample	10/15/21	0.4	2108255	Halcyon	Thermo Magmax Microbiome Ultra Nucleic Acid Isolation Kit	0.05	G4	EP0025	D02	JL	MorgantownHS-01	BL	10/7/21 10:45	Composite	10/1/21 14:00	10/1/21 6:00			Pass	JL	10/15/21		Monongalia	Processing	Complete
C01-0023		OneStep RT-ddPCR	Human RNase P			None				11/1/21	CHECK	ABS	58477038	QX 200	CDC nCov-2 Triplex	NAB_13 E1	AP0015	G01	JL	SARS-CoV-2 N1					SARS-CoV-2 N2																																									0.005	Sample		10/27/21	10	NT04474	Kookaburra	Ceres Nanotrap	0.425		CP0029	C01	JL	WWTP	Sample	10/27/21	0.4	2108255	Halcyon	Thermo Magmax Microbiome Ultra Nucleic Acid Isolation Kit	0.05	E1	EP0029	B01	JL	WheelingWWTP-01	OR	10/20/21 7:00	Composite	10/20/21 7:00	10/19/21 7:00			Pass	JL	10/27/21	6.6	Ohio	Processing	Processing
A03-0168																																																																																											MorgantownHS-01												Monongalia		
C01-0026	15583	OneStep RT-ddPCR	Human RNase P	1.509989649	1604.364002	None				11/4/21	Manual	DQ	58477038	QX 200	CDC nCov-2 Triplex	G8	AP0016	B08	JL	SARS-CoV-2 N1	13.59339476	0	1040.980072	14442.98193	SARS-CoV-2 N2	15.10425806	0	1205.935364	16048.27419																																					0.005	Sample		11/2/21	10	NT04474	Kookaburra	Ceres Nanotrap	0.425		CP0031	D04	JL	WWTP	Sample	11/2/21	0.4	21108255	Kookaburra	Thermo Magmax Microbiome Ultra Nucleic Acid Isolation Kit	0.05	G8	EP0031	B08	JL	WheelingWWTP-01	GZ	10/25/21 7:00	Composite	10/25/21 7:00	10/24/21 7:00			Pass	JL	10/29/21	7.09	Ohio	Processing	Complete
C01-0034	15740	OneStep RT-ddPCR	Human RNase P	1.494927555	1588.360528	None				11/22/21	Manual	DQ	58477038	QX 200	CDC nCov-2 Triplex	I2	AP0021	A02	JL	SARS-CoV-2 N1	46.38697624	1109.141006	0	49286.16226	SARS-CoV-2 N2	65.8668232	1229.36615	0	69983.49965																																					0.005	Sample		11/16/21	10	NT04474	Kookaburra	Ceres Nanotrap	0.425		CP0036	A02	AJ	WWTP	Sample	11/16/21	0.4	2108255	Kookaburra	Thermo Magmax Microbiome Ultra Nucleic Acid Isolation Kit	0.05	I2	EP0036	A02	AJ	WheelingWWTP-01	GZ	11/8/21 7:00	Composite	11/8/21 7:00	11/7/21 7:00			Pass	JL	11/12/21	4.72	Ohio	Processing	Complete
A1029	10668	OneStep RT-ddPCR	Human RNase P		52968					4/19/21	Manual	DQ		QX 200	CDC nCov-2 Triplex					SARS-CoV-2 N1				0	SARS-CoV-2 N2				5304																																				CDC N1/N2/RP Triplex	0.005	Sample		4/16/21	100			PEG Precipitation	4				JL	WWTP	Sample	4/19/21	0.2			Qiagen QiaAMP Viral Mini-RNA Kit	0.06				JL	StarCityWWTP-01	EL	4/14/21 12:00	Composite	4/15/21 12:00	4/14/21 12:00	10.306		Pass	MVS	4/16/21		Monongalia	Processing	Complete
A02-0216	16604	OneStep RT-ddPCR	Human RNase P	38.29265356	40685.94441	None				11/29/21	Manual	DQ	58477038	QX 200	CDC nCov-2 Triplex	J2	AP0022	A02	JL	SARS-CoV-2 N1	29.77778673	0	1092.976303	31638.8984	SARS-CoV-2 N2	73.80446434	0	1279.930573	78417.24336																																					0.005	Sample		2021-11-19	10	NT04474	Halcyon	Ceres Nanotrap	0.475		CP0038	A02	AJ	WVU Morgantown	Sample	2021-11-19	0.4	2108255	Halcyon	Ultra 2.0 Microbiome (Thermo)	0.075	J2	EP0038	A02	AJ	OaklandE-02	CA	11/12/21 10:14	Composite	11/12/21 10:14	11/10/21 10:14			Pass	JL	11/12/21	7.43	Monongalia	Processing	Complete
L01-0021																																																																																											WestUnionWWTP-01												Doddridge		
A03-0119																																																																															K-12												MorgantownHS-01	GZ	12/02/2021 10:15 AM	Composite	12/01/2021 02:00 PM	12/01/2021 06:00 AM							Monongalia		
A03-0117	14362	OneStep RT-ddPCR	Human RNase P	4.91544425487518	8755.63507899641	None				2021-12-03	Manual	DQ	58477038	QX 200	CDC nCov-2 Triplex	E2	AP0023	E02	JL	SARS-CoV-2 N1	0	0	1030.21682739258	0	SARS-CoV-2 N2	0	0	1109.43168640137	0																																					0.005			2021-12-02	10	NT04474	Kookaburra	Ceres Nanotrap	0.475		CP0042	A02	LW			2021-12-02	0.4	2108255	Kookaburra	Thermo Magmax Microbiome Ultra Nucleic Acid Isolation Kit	0.075	E2	EP0042	A02	LW														Processing	Complete
A03-0114																																																																															K-12												MorgantownHS-01	GZ	12/02/2021 11:31 AM	Composite	12/01/2021 02:00 PM	12/01/2021 06:00 AM							Monongalia		
B01-0020	12359	OneStep RT-ddPCR	Human RNase P	1.903905123	2022.899194	None				10/20/21	Manual	DQ	58477038	QX One	CDC nCov-2 Triplex	F7	AP0014	G02	JL	SARS-CoV-2 N1	15.23555636	0	2152.007294	16187.77864	SARS-CoV-2 N2	17.14069486	0	2493.552246	18211.98829																																				CDC N1/N2/RP Triplex	0.005	Sample		10/15/21	10	NT04474	Halcyon	Ceres Nanotrap	0.425		CP0025	C03	JL	WWTP	Sample	10/15/21	0.4	2108255	Halcyon	Thermo Magmax Microbiome Ultra Nucleic Acid Isolation Kit	0.05	F7	EP0025	C03	JL	CharlestonWWTP-01	KM	10/13/21 9:55	Composite	10/13/21 7:00	10/12/21 7:00	6.426		Pass	JL	10/15/21	7.07	Kanawha	Processing	Complete
K01-0021																																																																																											ParkersburgWWTP-01												Wood		
C01-0028	13481	OneStep RT-ddPCR	Human RNase P	1.745440662	1854.530703	None				11/4/21	Manual	DQ	58477038	QX 200	CDC nCov-2 Triplex	H2	AP0016	C02	JL	SARS-CoV-2 N1	22.70083189	0	1040.980072	24119.63388	SARS-CoV-2 N2	1.745440662	0	1205.935364	1854.530703																																					0.005	Sample		11/2/21	10	NT04474	Kookaburra	Ceres Nanotrap	0.425		CP0031	B05	JL	WWTP	Sample	11/2/21	0.4	21108255	Kookaburra	Thermo Magmax Microbiome Ultra Nucleic Acid Isolation Kit	0.05	H2	EP0031	C02	JL	WheelingWWTP-01	GZ	10/27/21 7:00	Composite	10/27/21 7:00	10/26/21 7:00			Pass	JL	10/29/21	7.03	Ohio	Processing	Complete
B01-0066	14601	OneStep RT-ddPCR	Human RNase P	8	8500	None				11/17/21	Manual	DQ	58477038	QX 200	CDC nCov-2 Triplex	H6	AP0019	A04	JL	SARS-CoV-2 N1	6.4	0	1166.6	6800	SARS-CoV-2 N2	6.4	0	1342.8	6800																																				CDC N1/N2/RP Triplex	0.005	Sample		11/2/21	10	NT04474	Kookaburra	Ceres Nanotrap	0.425		CP0031	B06	JL	WWTP	Sample	11/2/21	0.4	21108255	Kookaburra	Thermo Magmax Microbiome Ultra Nucleic Acid Isolation Kit	0.05	H6	EP0031	C06	JL	CharlestonWWTP-01	KM	10/28/21 7:30	Composite	10/28/21 7:00	10/27/21 7:00			Pass	JL	10/29/21	7.07	Kanawha	Processing	Complete
A02-0186		OneStep RT-ddPCR	Human RNase P			None				11/1/21	CHECK	ABS	58477038	QX 200	CDC nCov-2 Triplex	A2	AP0015	A02	JL	SARS-CoV-2 N1					SARS-CoV-2 N2																																									0.005	Sample		10/25/21	10	NT04474	Halcyon	Ceres Nanotrap	0.425		CP0028	A02	JL	WVU Morgantown	Sample	10/25/21	0.4	2108255	Halcyon	Thermo Magmax Microbiome Ultra Nucleic Acid Isolation Kit	0.05	A2	EP0028	A02	JL	Evansdale-01	CA	10/25/21 9:59	Composite	10/25/21 9:59	10/23/21 9:59			Pass	JL	10/25/21	7.71	Monongalia	Processing	Processing
A01-0006	16286	OneStep RT-ddPCR	Human RNase P	7.224924564	7676.48235					9/9/21	Manual	DQ	58477037	QX 200	CDC nCov-2 Triplex	F1	AP0007	A08	JL	SARS-CoV-2 N1	40.48818111	0	1303.838043	43018.69243	SARS-CoV-2 N2	34.69988823	0	1366.207123	36868.63124																																				CDC N1/N2/RP Triplex	0.005	Sample		9/2/21	10	 NT04155	Kookaburra	Ceres Nanotrap	0.425		CP0007	A01	JL	WWTP	Sample	9/2/21	0.4	2102028	Halcyon	Thermo Magmax Microbiome Ultra Nucleic Acid Isolation Kit	0.05	F1	EP0007	A01	JL	StarCityWWTP-01	GG	8/15/21 23:55	Composite	8/15/21 23:55	8/15/21 0:00	8.629		Pass	JL	8/18/21	6.82	Monongalia	Processing	Complete
B01-0001	12843	OneStep RT-ddPCR	Human RNase P	2.476668656	2631.460447					10/5/21	Manual	DQ	58477037	QX One	CDC nCov-2 Triplex	H7	AP0011	D04	JL	SARS-CoV-2 N1	47.089715	1355.395355	0	50032.82219	SARS-CoV-2 N2	59.49333668	1548.404388	0	63211.67022																																				CDC N1/N2/RP Triplex	0.005	Sample		9/24/21	10		Halcyon	Ceres Nanotrap	0.425		CP0016	B01	JL	WWTP	Sample	9/24/21	0.4	XXXXXX	Halcyon	Thermo Magmax Microbiome Ultra Nucleic Acid Isolation Kit	0.05	H7	EP0016	A07	JL	CharlestonWWTP-01	KM	9/16/21 8:30	Composite	9/16/21 7:00	9/15/21 7:00			Pass	JL	9/21/21	6.91	Kanawha	Processing	Complete
H01-0065																																																																															WWTP												MoundsvilleWWTP-01												Marshall		
A0024	13430	OneStep RT-ddPCR	Human RNase P		39968.4					12/14/20	Manual	DQ			CDC nCov-2 Triplex					SARS-CoV-2 N1				23962.8	SARS-CoV-2 N2				7980																																				CDC N1/N2/RP Triplex	0.005	Sample		12/4/20	100			PEG Precipitation	3.8				MS	WWTP	Sample	12/7/20	0.2			Qiagen QiaAMP Viral Mini-RNA Kit	0.06				MS	StarCityWWTP-01	GG	11/23/20 0:00	Composite	11/23/20 23:59	11/23/20 0:00	7.092		Pass	TD	11/30/20		Monongalia	Processing	Complete
A02-0322																																																																																											WVU-Morgantown												Monongalia		
A02-0127	11002	OneStep RT-ddPCR	Human RNase P	4.277686179	4545.041565					9/29/21	Manual	DQ	58477037	QX 200	CDC nCov-2 Triplex	L3	AP0010	B03	JL	SARS-CoV-2 N1	10.69567323	0	1097.667847	11364.1528	SARS-CoV-2 N2	2.138745785	0	1200.682373	2272.417396																																				CDC N1/N2/RP Triplex	0.005	Sample		9/27/21	10	NT04474	Halcyon	Ceres Nanotrap	0.425		CP0017	B05	JL	WVU Morgantown	Sample	9/27/21	0.4	2105049	Halcyon	Thermo Magmax Microbiome Ultra Nucleic Acid Isolation Kit	0.05	L3	EP0017	A11	JL	CollegePark-02	EL	9/24/21 10:57	Composite	9/24/21 10:57	9/22/21 10:57			Pass	JL	9/27/21	7.21	Monongalia	Processing	Complete
B01-0055																																																																			Sample												WWTP	Sample											CharlestonWWTP-01	-	12/01/2021 07:20 AM	Composite	12/01/2021 07:00 AM	11/30/2021 07:00 AM			Pass	AJ	12/03/2021	7.36	Kanawha		Unknown
A02-0101	14675	OneStep RT-ddPCR	Human RNase P	249.8436737	265458.9033					9/20/21	Manual	DQ	58477037	QX 200	CDC nCov-2 Triplex	B3	AP0008	B03	JL	SARS-CoV-2 N1	110.89324	0	1320.22522	117824.0675	SARS-CoV-2 N2	101.2295723	0	1524.019623	107556.4206																																				CDC N1/N2/RP Triplex	0.005	Sample		9/13/21	10	NT04155	Halcyon	Ceres Nanotrap	0.425		CP0011	B05	JL	WVU Morgantown	Sample	9/13/21	0.4	2105033	Halcyon	Thermo Magmax Microbiome Ultra Nucleic Acid Isolation Kit	0.05	B3	EP0011	A11	JL	NorthHighSt-02 (MUB)	EL	9/13/21 10:00	Composite	9/13/21 9:00	9/11/21 9:00			Pass	JL	9/13/21	7.1	Monongalia	Processing	Complete
A02-0346																																																																																											WVU-Morgantown												Monongalia		
L01-0017																																																																																											WestUnionWWTP-01												Doddridge		
A01-0071		OneStep RT-ddPCR	Human RNase P			None				11/1/21	CHECK	ABS	58477038	QX 200	CDC nCov-2 Triplex	E4	AP0015	G04	JL	SARS-CoV-2 N1					SARS-CoV-2 N2																																									0.005	Sample		10/27/21	10	NT04474	Kookaburra	Ceres Nanotrap	0.425		CP0029	C04	JL	WWTP	Sample	10/27/21	0.4	2108255	Halcyon	Thermo Magmax Microbiome Ultra Nucleic Acid Isolation Kit	0.05	E4	EP0029	B04	JL	StarCityWWTP-01	GG	10/24/21 23:55	Composite	10/24/21 23:55	10/24/21 0:00	7.426 		Pass	JL	10/27/21	6.95	Monongalia	Processing	Processing
A02-0299																																																																																											WVU-Morgantown												Monongalia		
A0246	13754	OneStep RT-ddPCR	Human RNase P		36960					3/22/21	Manual	DQ			CDC nCov-2 Triplex					SARS-CoV-2 N1				119184	SARS-CoV-2 N2				49296																																				CDC N1/N2/RP Triplex	0.005	Sample		11/13/20	100			PEG Precipitation	4				MS	WWTP	Sample	11/17/20	0.2			Qiagen QiaAMP Viral Mini-RNA Kit	0.06				MS	StarCityWWTP-01	GS	11/8/20 0:00	Composite	11/8/20 23:59	11/8/20 0:00	6.575		Pass	TD	11/13/20		Monongalia	Processing	Complete
A1099	14434	OneStep RT-ddPCR		272.17		BRSV		646403.75		7/30/21	Manual	DQ			BRSV Triplex					SARS-CoV-2 N1	4.89			11613.75	SARS-CoV-2 N2	6.52			15485																																				N1/N2/BRSV Triplex	0.005	Sample		7/30/21	10			Ceres Nanotrap	0.95					WWTP	Sample	7/30/21	0.4			Thermo Magmax Microbiome Ultra Nucleic Acid Isolation Kit	0.05				JL	StarCityWWTP-01	EL	7/25/21 23:55	Composite	7/25/21 23:55	7/25/21 0:00	6.52		Pass	JL	7/30/21		Monongalia	Processing	Complete
A01-0024																																																																			Sample													Sample																									Unknown
A02-0362																																																																																											WVU-Morgantown												Monongalia		
A03-0055	16741	OneStep RT-ddPCR	Human RNase P	0	0	None				11/8/21	Manual	DQ	58477038	QX 200	CDC nCov-2 Triplex	B8	AP0017	B08	AJ	SARS-CoV-2 N1	0	0	560.2787018	0	SARS-CoV-2 N2	0	0	653.7683868	0																																					0.005	Sample		11/5/21	10	NT04474	Kookaburra	Ceres Nanotrap	0.425		CP00033	C04	JL	K-12	Sample	11/5/21	0.4	21108255	Kookaburra	Thermo Magmax Microbiome Ultra Nucleic Acid Isolation Kit	0.05	B8	EP0033	B08	JL	MorgantownHS-01	BL	10/29/21 13:50	Composite	10/29/21 13:50	10/29/21 6:00			Pass	JL	11/1/21	5.84	Monongalia	Processing	Complete
A03-0184																																																																																											MorgantownHS-01												Monongalia		
A02-0037	19154	OneStep RT-ddPCR	Human RNase P	36.34167194	38613.02644					8/25/21	CHECK	DQ	58477036	QX One	CDC nCov-2 Triplex	L3	AP0004	C02	JL	SARS-CoV-2 N1	18.16514015	-20	2835.271912	19300.46141	SARS-CoV-2 N2	28.76673222	-20	3151.898499	30564.65298																																				CDC N1/N2/RP Triplex	0.005	Sample		8/25/21	10	NT04155	Kookaburra	Ceres Nanotrap	0.425		CP0004	A03	JL	WVU Morgantown	Sample	8/25/21	0.4	2102028	Kookaburra	Thermo Magmax Microbiome Ultra Nucleic Acid Isolation Kit	0.05	L3	EP0004	A03	JL	OaklandE-02	EL	8/25/21 9:24	Composite	8/23/21 9:35	8/25/21 9:35			Pass	JL	8/25/21	7.43	Monongalia	Processing	Complete
A02-0218	17868	OneStep RT-ddPCR	Human RNase P	10.53712964	11195.70024	None				11/29/21	Manual	DQ	58477038	QX 200	CDC nCov-2 Triplex	J4	AP0022	A04	JL	SARS-CoV-2 N1	19.76099133	0	1092.976303	20996.05329	SARS-CoV-2 N2	35.58174372	0	1279.930573	37805.6027																																					0.005	Sample		2021-11-19	10	NT04474	Halcyon	Ceres Nanotrap	0.475		CP0038	A04	AJ	WVU Morgantown	Sample	2021-11-19	0.4	2108255	Halcyon	Ultra 2.0 Microbiome (Thermo)	0.075	J4	EP0038	A04	AJ	CollegePark-02	CA	11/12/21 11:03	Composite	11/12/21 10:25	11/10/21 10:25			Pass	JL	11/12/21	7.22	Monongalia	Processing	Complete
B01-0069	14162	OneStep RT-ddPCR	Human RNase P	4.984868765	8879.297487	None				11/29/21	Manual	DQ	58477038	QX 200	CDC nCov-2 Triplex	D8	AP0022	D08	JL	SARS-CoV-2 N1	9.97079432	0	1092.976303	17760.47738	SARS-CoV-2 N2	11.63300395	0	1279.930573	20721.28829																																				CDC N1/N2/RP Triplex	0.005	Sample		2021-11-22	10	NT04474	Halcyon	Ceres Nanotrap	0.475		CP0039	D04	AJ	WWTP	Sample	2021-11-22	0.4	2108255	Halcyon	Ultra 2.0 Microbiome (Thermo)	0.075	D8	EP0039	B08	AJ	CharlestonWWTP-01	-	11/18/21 8:00	Composite	11/18/21 7:00	11/17/21 7:00			Pass	AJ	11/19/21	6.98	Kanawha	Processing	Complete
H01-0001	9898	OneStep RT-ddPCR	Human RNase P	5.040065646	5355.069749					10/5/21	Manual	DQ	58477037	QX One	CDC nCov-2 Triplex	D6	AP0011	F02	JL	SARS-CoV-2 N1	154.1820621	1355.395355	0	163818.441	SARS-CoV-2 N2	85.81994057	1548.404388	0	91183.68685																																				CDC N1/N2/RP Triplex	0.005	Sample		10/1/21	10	NT04474	Halcyon	Ceres Nanotrap	0.425	D6	CP0019	C02	JL	WWTP	Sample	10/1/21	0.4	2108052	Halcyon	Thermo Magmax Microbiome Ultra Nucleic Acid Isolation Kit	0.05	D6	EP0019	B06	JL	MoundsvilleWWTP-01	DRC	9/28/21 8:10	Composite	9/28/21 8:00	9/27/21 8:00			Pass	JL	10/1/21		Marshall	Processing	Complete
A02-0143																																																																			Sample													Sample																									Unknown
H01-0098																																																																															WWTP												MoundsvilleWWTP-01												Marshall		
A02-0001	16799	OneStep RT-ddPCR				BRSV	0	0		8/13/21	Manual	DQ		QX 200	BRSV Triplex		AP000000	B07	JL	SARS-CoV-2 N1	0	0	2236.361694	0	SARS-CoV-2 N2	0	0	2276.707153	0																																				CDC N1/N2/RP Triplex	0.005	Sample		8/13/21	10	NT04155	Kookaburra	Ceres Nanotrap	0.425		CP000000	C03	JL	WVU Morgantown	Sample	8/13/21	0.4	2102028	Kookaburra	Thermo Magmax Microbiome Ultra Nucleic Acid Isolation Kit	0.05		EP000000	C03	JL	Evansdale-01	EL	8/12/21 9:35	Composite	8/12/21 9:00	8/11/21 9:00			Pass	JL	8/12/21		Monongalia	Processing	Complete
K01-0043																																																																																											ParkersburgWWTP-01												Wood		
A02-0038	10367	OneStep RT-ddPCR	Human RNase P	460.4972839	489278.3642					8/25/21	CHECK	DQ	58477036	QX One	CDC nCov-2 Triplex	L4	AP0004	D02	JL	SARS-CoV-2 N1	2.609266043	-20	2835.271912	2772.34517	SARS-CoV-2 N2	10.43857574	-20	3151.898499	11090.98673																																				CDC N1/N2/RP Triplex	0.005	Sample		8/25/21	10	NT04155	Kookaburra	Ceres Nanotrap	0.425		CP0004	A04	JL	WVU Morgantown	Sample	8/25/21	0.4	2102028	Kookaburra	Thermo Magmax Microbiome Ultra Nucleic Acid Isolation Kit	0.05	L4	EP0004	A04	JL	OaklandE-02	EL	8/25/21 9:25	Grab	8/25/21 9:25	8/25/21 9:25			Pass	JL	8/25/21	8.43	Monongalia	Processing	Complete
F01-0016	14683	OneStep RT-ddPCR	Human RNase P	3.599450886	3824.416567					10/5/21	Manual	DQ	58477037	QX One	CDC nCov-2 Triplex	E1	AP0011	A03	JL	SARS-CoV-2 N1	25.20645857	1355.395355	0	26781.86223	SARS-CoV-2 N2	70.27789116	1548.404388	0	74670.25936																																				CDC N1/N2/RP Triplex	0.005	Sample		10/1/21	10	NT04474	Halcyon	Ceres Nanotrap	0.425	E1	CP0019	C05	JL	WWTP	Sample	10/1/21	0.4	2108052	Halcyon	Thermo Magmax Microbiome Ultra Nucleic Acid Isolation Kit	0.05	E1	EP0019	C01	JL	WestonWWTP-01	BP	9/30/21 10:15	Composite	9/30/21 10:00	9/29/21 10:00			Pass	JL	10/1/21		Lewis	Processing	Complete
A03-0158																																																																																											MountainviewES-01												Monongalia		
H01-0083																																																																															WWTP												MoundsvilleWWTP-01												Marshall		
J01-0016																																																																															WWTP												AlpineLakeWWTP-01												Preston		
K01-0042																																																																																											ParkersburgWWTP-01												Wood		
A02-0046																																																																			Sample													Sample																									Unknown
A02-0160	15808	OneStep RT-ddPCR	Human RNase P	9.074380398	9641.529173					10/11/21	Manual	DQ	58477037	QX One	CDC nCov-2 Triplex	I6	AP0012	F03	JL	SARS-CoV-2 N1	6.049204469	0	1593.187866	6427.279748	SARS-CoV-2 N2	21.1789155	0	2077.493896	22502.59772																																				CDC N1/N2/RP Triplex	0.005	Sample		10/7/21	10	NT04474	Halcyon	Ceres Nanotrap	0.425		CP0021	D02	JL	WVU Morgantown	Sample	10/7/21	0.4	2108052	Halcyon	Thermo Magmax Microbiome Ultra Nucleic Acid Isolation Kit	0.05	I6	EP0021	B06	JL	Evansdale-01	BL	10/6/21 9:15	Composite	10/6/21 9:00	10/4/21 10:00			Pass	JL	10/6/21	7.46	Monongalia	Processing	Complete
A03-0009																																																																			Sample													Sample																									Unknown
J01-0048																																																																															WWTP												AlpineLakeWWTP-01												Preston		
J01-0021																																																																															WWTP												AlpineLakeWWTP-01												Preston		
A03-0050		OneStep RT-ddPCR	Human RNase P			None				11/1/21	CHECK	ABS	58477038	QX 200	CDC nCov-2 Triplex	A2	AP0015	E02	JL	SARS-CoV-2 N1					SARS-CoV-2 N2																																									0.005	Sample		10/28/21	10	NT04474	Halcyon	Ceres Nanotrap	0.425		CP0030	A02	JL	K-12	Sample	10/28/21	0.4	2108255	Halcyon	Thermo Magmax Microbiome Ultra Nucleic Acid Isolation Kit	0.05	A2	EP0030	A02	JL	MorgantownHS-01	BL	10/24/21 12:00	Composite	10/22/21 14:00	10/22/21 6:00			Pass	JL	10/27/21		Monongalia	Processing	Processing
A01-0023																																																																			Sample													Sample																									Unknown
A03-0187																																																																																											SuncrestES-01												Monongalia		
A02-0118	12128	OneStep RT-ddPCR	Human RNase P	23.29260588	24748.39374					9/24/21	Manual	DQ		QX 200	CDC nCov-2 Triplex	H6	AP0009	A06	JL	SARS-CoV-2 N1	0	0	878.4640503	0	SARS-CoV-2 N2	0	0	968.4371185	0																																				CDC N1/N2/RP Triplex	0.005	Sample		9/24/21	10		Halcyon	Ceres Nanotrap	0.425		CP0016	A06	JL	WVU Morgantown	Sample	9/24/21	0.4	XXXXXX	Halcyon	Thermo Magmax Microbiome Ultra Nucleic Acid Isolation Kit	0.05	H6	EP0016	A06	JL	CollegePark-02	EL	9/20/21 10:06	Composite	9/20/21 9:00	9/18/21 9:00					9/20/21		Monongalia	Processing	Complete
G01-0009	12649	OneStep RT-ddPCR	Human RNase P	0	0	None				11/4/21	Manual	DQ	58477038	QX 200	CDC nCov-2 Triplex	J3	AP0016	E03	JL	SARS-CoV-2 N1	0	0	1040.980072	0	SARS-CoV-2 N2	0	0	1205.935364	0																																					0.005	Sample		11/3/21	10	NT04474	Halcyon	Ceres Nanotrap	0.425		CP0032	B05	JL	WWTP	Sample	11/3/21	0.4	21108255	Kookaburra	Thermo Magmax Microbiome Ultra Nucleic Acid Isolation Kit	0.05	J3	EP0032	A11	JL	KeyserWWTP-01													Processing	Confirming
J01-0038																																																																															WWTP												AlpineLakeWWTP-01												Preston		
I01-0005	14291	OneStep RT-ddPCR	Human RNase P	3.2	3400					11/18/21	Manual	DQ	58477038	QX 200	CDC nCov-2 Triplex	D6	AP0020	B06	JL	SARS-CoV-2 N1	5	0	1193.4	5312.5	SARS-CoV-2 N2	5	0	1245	5312.5																																					0.005	Sample		11/11/21	10	NT04474	Kookaburra	Ceres Nanotrap	0.425		CP0034	B02	JL	WWTP	Sample	11/11/21	0.4	2108255	Kookaburra	Thermo Magmax Microbiome Ultra Nucleic Acid Isolation Kit	0.05	D6	EP0034	A06	JL	WarmSpringsWWTP-01	-	11/4/21 12:00	Composite	11/4/21 7:00	11/3/21 7:00			Pass	AJ	11/8/21	7.07	Morgan	Processing	Complete
A02-0261																																																																																											WVU-Morgantown												Monongalia		
A1110	13502	OneStep RT-ddPCR		169.65		BRSV		402918.75		7/30/21	Manual	DQ			BRSV Triplex					SARS-CoV-2 N1	3.49			8288.75	SARS-CoV-2 N2	8.71			20686.25																																				N1/N2/BRSV Triplex	0.005	Sample		7/30/21	10			Ceres Nanotrap	0.95					WWTP	Sample	7/30/21	0.4			Thermo Magmax Microbiome Ultra Nucleic Acid Isolation Kit	0.05				JL	StarCityWWTP-01	EL	7/28/21 23:55	Composite	7/28/21 23:55	7/28/21 0:00	6.999		Pass	JL	7/30/21		Monongalia	Processing	Complete
A03-0151																																																																																											SuncrestES-01												Monongalia		
G01-0002	17760	OneStep RT-ddPCR	Human RNase P	12.71888494	13513.81525					10/14/21	Manual	DQ	58477038	QX One	CDC nCov-2 Triplex	B1	AP0013	A01	JL	SARS-CoV-2 N1	273.6510849	0	1707.766876	290754.2777	SARS-CoV-2 N2	304.8118019	0	1836.244965	323862.5395																																				CDC N1/N2/RP Triplex	0.005	Sample		10/11/21	10	NT04474	Halcyon	Ceres Nanotrap	0.425		CP0023	A01	JL	WWTP	Sample	10/11/21	0.4	2108255	Halcyon	Thermo Magmax Microbiome Ultra Nucleic Acid Isolation Kit	0.05	B1	EP0023	A01	JL	KeyserWWTP-01	TD	10/6/21 8:30	Composite	10/6/21 8:00	10/5/21 9:00			Pass	JL	10/8/21	6.11	Mineral	Processing	Complete
A03-0084	14637	OneStep RT-ddPCR	Human RNase P	6.4309972524643	11455.213855952	None				2021-12-03	Manual	DQ	58477038	QX 200	CDC nCov-2 Triplex	F4	AP0023	F04	JL	SARS-CoV-2 N1	0	0	1030.21682739258	0	SARS-CoV-2 N2	0	0	1109.43168640137	0																																					0.005			2021-12-02	10	NT04474	Kookaburra	Ceres Nanotrap	0.475		CP0042	B06	LW			2021-12-02	0.4	2108255	Kookaburra	Thermo Magmax Microbiome Ultra Nucleic Acid Isolation Kit	0.075	F4	EP0042	B04	LW														Processing	Complete
A01-0097	11651	OneStep RT-ddPCR	Human RNase P	6.05933606624604	10793.1923680008	None				2021-12-03	Manual	DQ	58477038	QX 200	CDC nCov-2 Triplex	H1	AP0023	D01	JL	SARS-CoV-2 N1	50.5422115325928	0	1030.21682739258	90028.3142924309	SARS-CoV-2 N2	38.4021735191346	0	1109.43168640137	68403.8715809585																																					0.005			2021-11-30	10	NT04474	Halcyon	Ceres Nanotrap	0.475		CP0041	B03	AJ	WWTP		2021-11-30	0.4	2108255	Halcyon	Thermo Magmax Microbiome Ultra Nucleic Acid Isolation Kit	0.075	H1	EP0041	B01	AJ	StarCityWWTP-01	-	11/24/2021 12:00 AM	Composite	11/24/2021 12:00 AM	11/23/2021 12:00 AM			Pass	AJ	11/30/2021	6.95	Monongalia	Processing	Complete
J01-0027																																																																															WWTP												AlpineLakeWWTP-01												Preston		
A03-0037	12224	OneStep RT-ddPCR	Human RNase P	11.55195832	12273.95572	None				11/8/21	Manual	DQ	58477038	QX 200	CDC nCov-2 Triplex	NAB_12 G1	AP0017	D01	AJ	SARS-CoV-2 N1	13.47783566	0	560.2787018	14320.20038	SARS-CoV-2 N2	11.55195832	0	653.7683868	12273.95572																																					0.005	Sample		10/15/21	10	NT04474	Halcyon	Ceres Nanotrap	0.425		CP0025	C05	JL	K-12	Sample	10/15/21	0.4	2108255	Halcyon	Thermo Magmax Microbiome Ultra Nucleic Acid Isolation Kit	0.05	G1	EP0025	C05	JL	NorthES-01	BL	10/8/21 13:05	Composite	10/1/21 14:00	10/1/21 6:00			Pass	JL	10/15/21	6.97	Monongalia	Processing	Complete
G01-0070	13942	OneStep RT-ddPCR	Human RNase P	20.2	21462.5					11/18/21	Manual	DQ	58477038	QX 200	CDC nCov-2 Triplex	E6	AP0020	C06	JL	SARS-CoV-2 N1	35.4	0	1193.4	37612.5	SARS-CoV-2 N2	25.4	0	1245	26987.5																																					0.005	Sample		11/11/21	10	NT04474	Kookaburra	Ceres Nanotrap	0.425		CP0034	D02	JL	WWTP	Sample	11/11/21	0.4	2108255	Kookaburra	Thermo Magmax Microbiome Ultra Nucleic Acid Isolation Kit	0.05	E6	EP0034	B06	JL	KeyserWWTP-01	-	11/8/21 8:30	Composite	11/8/21 8:00	11/7/21 9:00			Pass	JL	11/9/21	6.88	Mineral	Processing	Complete
A01-0096	14038	OneStep RT-ddPCR	Human RNase P	11.7357861995697	20904.3691679835	None				2021-12-03	Manual	DQ	58477038	QX 200	CDC nCov-2 Triplex	G8	AP0023	C08	JL	SARS-CoV-2 N1	185.099658966064	0	1030.21682739258	329708.767533302	SARS-CoV-2 N2	164.836082458496	0	1109.43168640137	293614.271879196																																					0.005			2021-11-30	10	NT04474	Halcyon	Ceres Nanotrap	0.475		CP0041	B02	AJ	WWTP		2021-11-30	0.4	2108255	Halcyon	Thermo Magmax Microbiome Ultra Nucleic Acid Isolation Kit	0.075	G8	EP0041	A08	AJ	StarCityWWTP-01	-	11/23/2021 12:00 AM	Composite	11/23/2021 12:00 AM	11/22/2021 12:00 AM			Pass	AJ	11/30/2021	6.87	Monongalia	Processing	Complete
A02-0183		OneStep RT-ddPCR	Human RNase P			None				11/1/21	OK	ABS	58477038	QX 200	CDC nCov-2 Triplex	A6	AP0015	A06	JL	SARS-CoV-2 N1					SARS-CoV-2 N2																																									0.005	Sample		10/25/21	10	NT04474	Halcyon	Ceres Nanotrap	0.425		CP0028	A06	JL	WVU Morgantown	Sample	10/25/21	0.4	2108255	Halcyon	Thermo Magmax Microbiome Ultra Nucleic Acid Isolation Kit	0.05	A6	EP0028	A06	JL	HonorsSummit-01 (MUB)	EL	10/22/21 10:04	Composite	10/22/21 9:40	10/20/21 9:40			Pass	JL	10/25/21	7.48	Monongalia	Processing	Processing
K01-0046																																																																																											ParkersburgWWTP-01												Wood		
A02-0315																																																																																											WVU-Morgantown												Monongalia		
A03-0038	11967	OneStep RT-ddPCR	Human RNase P	7.866079807	8357.709795	None				11/8/21	Manual	DQ	58477038	QX 200	CDC nCov-2 Triplex	G2	AP0017	D02	AJ	SARS-CoV-2 N1	258.9912224	0	560.2787018	275178.1738	SARS-CoV-2 N2	59.0598011	0	653.7683868	62751.03867																																					0.005	Sample		10/15/21	10	NT04474	Halcyon	Ceres Nanotrap	0.425		CP0025	C06	JL	K-12	Sample	10/15/21	0.4	2108255	Halcyon	Thermo Magmax Microbiome Ultra Nucleic Acid Isolation Kit	0.05	G2	EP0025	C06	JL	MountainviewES-01	BL	10/7/21 11:05	Composite	10/1/21 14:00	10/1/21 6:00			Pass	JL	10/15/21	7.08	Monongalia	Processing	Complete
A1023	10840	OneStep RT-ddPCR	Human RNase P		26040					4/12/21	Manual	DQ		QX 200	CDC nCov-2 Triplex					SARS-CoV-2 N1				32580	SARS-CoV-2 N2				26040																																				CDC N1/N2/RP Triplex	0.005	Sample		4/9/21	100			PEG Precipitation	5				MVS	WWTP	Sample	4/12/21	0.2			Qiagen QiaAMP Viral Mini-RNA Kit	0.06				MVS	StarCityWWTP-01	GG	4/6/21 11:55	Composite	4/6/21 11:55	4/6/21 12:00	9.043		Pass	Josh Lambert	4/9/21		Monongalia	Processing	Complete
A02-0119	14235	OneStep RT-ddPCR	Human RNase P	18.18922281	19326.04924					9/24/21	Manual	DQ		QX 200	CDC nCov-2 Triplex	I8	AP0009	B08	JL	SARS-CoV-2 N1	8.266085386	0	878.4640503	8782.715723	SARS-CoV-2 N2	9.919651151	0	968.4371185	10539.62935																																				CDC N1/N2/RP Triplex	0.005	Sample		9/24/21	10		Halcyon	Ceres Nanotrap	0.425		CP0016	C04	JL	WVU Morgantown	Sample	9/24/21	0.4	XXXXXX	Halcyon	Thermo Magmax Microbiome Ultra Nucleic Acid Isolation Kit	0.05	I8	EP0016	B04	JL	Evansdale-01	EL	9/22/21 9:16	Composite	9/22/21 9:16	9/20/21 9:16			Pass	JL	9/22/21	6.51	Monongalia	Processing	Complete
A02-0238																																																																															WWTP												WVU-Morgantown	-	12/01/2021 10:15 AM	Composite	12/01/2021 09:00 AM	11/29/2021 09:00 AM			Pass	AJ	12/02/2021	7.62	Monongalia		
A02-0025	13137	OneStep RT-ddPCR	Human RNase P	1.646097451	1748.978542					8/27/21	Manual	DQ	58477036	QX One	CDC nCov-2 Triplex	B4	AP0005	D01	JL	SARS-CoV-2 N1	0	0	2615.09491	0	SARS-CoV-2 N2	26.3526082	0	2786.116028	27999.64622																																				CDC N1/N2/RP Triplex	0.005	Sample		8/27/21	10	NT04155	Kookaburra	Ceres Nanotrap	0.425		CP0005	A04	JL	WVU Morgantown	Sample	8/27/21	0.4	2102028	Kookaburra	Thermo Magmax Microbiome Ultra Nucleic Acid Isolation Kit	0.05	B4	EP0005	A04	JL	Evansdale-01	EL	8/23/21 9:13	Composite	8/23/21 9:16	8/21/21 9:16			Pass	JL	8/23/21	7.15	Monongalia	Processing	Complete
A02-0314																																																																																											WVU-Morgantown												Monongalia		
A02-0144																																																																			Sample													Sample																									Unknown
A0238	11383	OneStep RT-ddPCR	Human RNase P		4968					3/11/21	Manual	DQ			CDC nCov-2 Triplex					SARS-CoV-2 N1				14880	SARS-CoV-2 N2				39696																																				CDC N1/N2/RP Triplex	0.005	Sample		2/22/21	100			PEG Precipitation	4				AT	WWTP	Sample	2/24/21	0.2			Qiagen QiaAMP Viral Mini-RNA Kit	0.06				AT	StarCityWWTP-01	GG	2/9/21 8:00	Composite	2/9/21 11:55	2/9/21 12:00	9.493		Pass	TD	2/11/21		Monongalia	Processing	Complete
B01-0022	22988	OneStep RT-ddPCR	Human RNase P	1.395409852	1482.622968					10/14/21	Manual	DQ	58477038	QX One	CDC nCov-2 Triplex	D7	AP0013	G03	JL	SARS-CoV-2 N1	20.93752384	0	1707.766876	22246.11908	SARS-CoV-2 N2	27.91973829	0	1836.244965	29664.72194																																				CDC N1/N2/RP Triplex	0.005	Sample		10/13/21	10	NT04474	Halcyon	Ceres Nanotrap	0.425		CP0024	D03	JL	WWTP	Sample	10/13/21	0.4	2108255	Halcyon	Thermo Magmax Microbiome Ultra Nucleic Acid Isolation Kit	0.05	D7	EP0024	B07	JL	CharlestonWWTP-01	KM	10/12/21 7:30	Composite	10/12/21 7:30	10/11/21 7:00			Pass	JL	10/13/21	6.92	Kanawha	Processing	Complete
A02-0018	18936	OneStep RT-ddPCR	Human RNase P	6.213698387	6602.054536						Manual	DQ	58477036	QX 200	CDC nCov-2 Triplex	G3	AP000000	A03	JL	SARS-CoV-2 N1	7.456634641	0	1685.59967	7922.674306	SARS-CoV-2 N2	9.942705035	1.36802882	1874.414978	10564.1241																																				CDC N1/N2/RP Triplex	0.005	Sample		8/18/21	10	NT04155	Kookaburra	Ceres Nanotrap	0.425		CP000000	A03	JL	WVU Morgantown	Sample	8/18/21	0.4	2102028	Kookaburra	Thermo Magmax Microbiome Ultra Nucleic Acid Isolation Kit	0.05		EP000000	A03	JL	NorthHighSt-02 (MUB)	EL	8/18/21 10:06	Composite	8/18/21 10:05	8/16/21 10:05			Pass	JL	8/18/21	7.02	Monongalia	Processing	Complete
A02-0159	12879	OneStep RT-ddPCR	Human RNase P	41.30849838	43890.27953					10/11/21	Manual	DQ	58477037	QX One	CDC nCov-2 Triplex	I5	AP0012	E03	JL	SARS-CoV-2 N1	1.965543479	0	1593.187866	2088.389946	SARS-CoV-2 N2	11.79555058	0	2077.493896	12532.7725																																				CDC N1/N2/RP Triplex	0.005	Sample		10/7/21	10	NT04474	Halcyon	Ceres Nanotrap	0.425		CP0021	D01	JL	WVU Morgantown	Sample	10/7/21	0.4	2108052	Halcyon	Thermo Magmax Microbiome Ultra Nucleic Acid Isolation Kit	0.05	I5	EP0021	B05	JL	OaklandE-02	BL	10/6/21 9:25	Composite	10/6/21 9:00	10/4/21 10:00			Pass	JL	10/6/21	7.69	Monongalia	Processing	Complete
A03-0174																																																																																											MountainviewES-01												Monongalia		
A02-0363																																																																																											WVU-Morgantown												Monongalia		
A03-0003																																																																			Sample													Sample																									Unknown
A03-0105	14326	OneStep RT-ddPCR	Human RNase P	3.28508347272872	5851.55493579803	None				2021-12-03	Manual	DQ	58477038	QX 200	CDC nCov-2 Triplex	F6	AP0023	F06	JL	SARS-CoV-2 N1	0	0	1030.21682739258	0	SARS-CoV-2 N2	0	0	1109.43168640137	0																																					0.005	Sample		2021-12-02	10	NT04474	Kookaburra	Ceres Nanotrap	0.475		CP0042	C02	LW	K-12	Sample	2021-12-02	0.4	2108255	Kookaburra	Thermo Magmax Microbiome Ultra Nucleic Acid Isolation Kit	0.075	F6	EP0042	B06	LW	MountainviewES-01	BL	10/15/21 14:45	Composite	11/15/21 14:00	10/15/21 6:00			Pass	JL	10/22/21		Monongalia	Processing	Complete
A02-0250																																																																															WVU Morgantown												Evansdale-01	GZ	12/06/2021 09:10 AM	Composite	12/06/2021 09:00 AM	12/04/2021 09:00 AM			Pass	AJ	12/06/2021	7.62	Monongalia		
A0042	15469	OneStep RT-ddPCR	Human RNase P		42184.8					2/22/21	Manual	DQ			CDC nCov-2 Triplex					SARS-CoV-2 N1				84394.8	SARS-CoV-2 N2				84394.8																																				CDC N1/N2/RP Triplex	0.005	Sample		12/14/20	100			PEG Precipitation	4.2				AT	WWTP	Sample	12/21/20	0.2			Qiagen QiaAMP Viral Mini-RNA Kit	0.06				AT	StarCityWWTP-01	GG	12/16/20 0:00	Composite	12/16/20 11:59	12/16/20 12:00	8.322 		Pass	TD	12/18/20		Monongalia	Processing	Complete
A02-0169	15182	OneStep RT-ddPCR	Human RNase P	2.871482968	3050.950654					10/14/21	Manual	DQ	58477038	QX One	CDC nCov-2 Triplex	D4	AP0013	D03	JL	SARS-CoV-2 N1	56.06226921	0	1707.766876	59566.16104	SARS-CoV-2 N2	45.98918438	0	1836.244965	48863.5084																																				CDC N1/N2/RP Triplex	0.005	Sample		10/13/21	10	NT04474	Halcyon	Ceres Nanotrap	0.425		CP0024	C04	JL	WVU Morgantown	Sample	10/13/21	0.4	2108255	Halcyon	Thermo Magmax Microbiome Ultra Nucleic Acid Isolation Kit	0.05	D4	EP0024	B04	JL	CollegePark-02	EL	10/13/21 10:28	Composite	10/13/21 10:28	10/11/21 10:28			Pass	JL	10/13/21	7.23	Monongalia	Processing	Complete
A02-0158	9886	OneStep RT-ddPCR	Human RNase P	32.48935461	34519.93927					10/11/21	Manual	DQ	58477037	QX One	CDC nCov-2 Triplex	I4	AP0012	D03	JL	SARS-CoV-2 N1	12.99179554	0	1593.187866	13803.78276	SARS-CoV-2 N2	3.247456253	0	2077.493896	3450.422268																																				CDC N1/N2/RP Triplex	0.005	Sample		10/7/21	10	NT04474	Halcyon	Ceres Nanotrap	0.425		CP0021	C04	JL	WVU Morgantown	Sample	10/7/21	0.4	2108052	Halcyon	Thermo Magmax Microbiome Ultra Nucleic Acid Isolation Kit	0.05	I4	EP0021	B04	JL	CollegePark-02	BL	10/6/21 10:05	Composite	10/6/21 9:00	10/4/21 10:00			Pass	JL	10/6/21	7.32	Monongalia	Processing	Complete
A02-0020	17034	OneStep RT-ddPCR	Human RNase P	19.34643626	20555.58853					8/20/21	Manual	DQ	58477036	QX 200	CDC nCov-2 Triplex	H7	AP000000	A07	JL	SARS-CoV-2 N1	9.671230316	0	1047.2155	10275.68221	SARS-CoV-2 N2	11.05315924	0	1082.352142	11743.9822																																				CDC N1/N2/RP Triplex	0.005	Sample		8/20/21	10	NT04155	Kookaburra	Ceres Nanotrap	0.425	6.88	CP000000	B01	JL	WVU Morgantown	Sample	8/20/21	0.4	2102028	Kookaburra	Thermo Magmax Microbiome Ultra Nucleic Acid Isolation Kit	0.05	H7	EP000000	A07	JL	Evansdale-01	EL	8/20/21 9:17	Composite	8/20/21 9:30	8/20/21 9:18			Pass	Jl	8/20/21	6.88	Monongalia	Processing	Complete
A02-0290																																																																																											WVU-Morgantown												Monongalia		
A02-0050	19522	OneStep RT-ddPCR	Human RNase P	2.410676926	2561.344234					9/9/21	Manual	DQ	58477037	QX 200	CDC nCov-2 Triplex	F7	AP0007	C05	JL	SARS-CoV-2 N1	73.63698483	0	1303.838043	78239.29638	SARS-CoV-2 N2	112.3585796	0	1366.207123	119380.9909																																				CDC N1/N2/RP Triplex	0.005	Sample		9/2/21	10	 NT04155	Kookaburra	Ceres Nanotrap	0.425		CP0007	B01	JL	WVU Morgantown	Sample	9/2/21	0.4	2102028	Halcyon	Thermo Magmax Microbiome Ultra Nucleic Acid Isolation Kit	0.05	F7	EP0007	A07	JL	Evansdale-01	EL	8/27/21 9:32	Composite	8/27/21 9:13	8/23/21 9:13			Pass	JL	8/27/21	6.51	Monongalia	Processing	Complete
E02-0013	13044	OneStep RT-ddPCR	Human RNase P	5.41217029094696	9640.42833074927	None				2021-12-03	Manual	DQ	58477038	QX 200	CDC nCov-2 Triplex	I3	AP0023	G03	JL	SARS-CoV-2 N1	52.3698663711548	0	1030.21682739258	93283.8244736195	SARS-CoV-2 N2	34.2981219291688	0	1109.43168640137	61093.5296863319																																					0.005			2021-11-30	10	NT04474	Halcyon	Ceres Nanotrap	0.475		CP0041	D01	AJ	WWTP		2021-11-30	0.4	2108255	Halcyon	Thermo Magmax Microbiome Ultra Nucleic Acid Isolation Kit	0.075	I3	EP0041	C03	AJ	AthensWWTP-01	-	11/22/2021 08:00 AM	Composite	11/20/2021 08:00 AM	11/19/2021 08:00 AM			Pass	AJ	11/30/2021	6.59	Mercer	Processing	Complete
A02-0043																																																																			Sample													Sample																									Unknown
A02-0187		OneStep RT-ddPCR	Human RNase P			None				11/1/21	CHECK	ABS	58477038	QX 200	CDC nCov-2 Triplex	B2	AP0015	B02	JL	SARS-CoV-2 N1					SARS-CoV-2 N2																																									0.005	Sample		10/25/21	10	NT04474	Halcyon	Ceres Nanotrap	0.425		CP0028	B04	JL	WVU Morgantown	Sample	10/25/21	0.4	2108255	Halcyon	Thermo Magmax Microbiome Ultra Nucleic Acid Isolation Kit	0.05	B2	EP0028	B02	JL	OaklandE-02	CA	10/25/21 10:00	Composite	10/25/21 10:00	10/23/21 10:00			Pass	JL	10/25/21	7.46	Monongalia	Processing	Processing
A02-0193	46.4	OneStep RT-ddPCR	Human RNase P			None				11/1/21	OK	ABS	58477038	QX 200	CDC nCov-2 Triplex	B4	AP0015	F04	JL	SARS-CoV-2 N1					SARS-CoV-2 N2																																									0.005	Sample		10/28/21	10	NT04474	Halcyon	Ceres Nanotrap	0.425		CP0030	B06	JL	WVU Morgantown	Sample	10/28/21	0.4	2108255	Halcyon	Thermo Magmax Microbiome Ultra Nucleic Acid Isolation Kit	0.05	B4	EP0030	B04	JL	CollegePark-02	EL	10/25/21 10:26	Composite	10/27/21 10:26	10/25/21 10:29			Pass	JL	10/27/21		Monongalia	Processing	Confirming
A0215	16604	OneStep RT-ddPCR	Human RNase P		3408					2/22/21	Manual	DQ			CDC nCov-2 Triplex					SARS-CoV-2 N1				57840	SARS-CoV-2 N2				57840																																				CDC N1/N2/RP Triplex	0.005	Sample		2/5/21	100			PEG Precipitation	4				MS	WWTP	Sample	2/17/21	0.2			Qiagen QiaAMP Viral Mini-RNA Kit	0.06				MS	StarCityWWTP-01	GS	1/7/21 0:00	Composite	1/7/21 23:59	1/7/21 0:00	9.271		Pass	TD	1/8/21		Monongalia	Processing	Complete
L01-0028																																																																																											WestUnionWWTP-01												Doddridge		
C01-0009	14616	OneStep RT-ddPCR	Human RNase P	25.42682409	27016.0006					10/5/21	Manual	DQ	58477037	QX One	CDC nCov-2 Triplex	E4	AP0011	D03	JL	SARS-CoV-2 N1	32.91093826	1355.395355	0	34967.8719	SARS-CoV-2 N2	46.3888073	1548.404388	0	49288.10775																																				CDC N1/N2/RP Triplex	0.005	Sample	FLOW: 5.676	10/1/21	10	NT04474	Halcyon	Ceres Nanotrap	0.425	E4	CP0019	D02	JL	WWTP	Sample	10/1/21	0.4	2108052	Halcyon	Thermo Magmax Microbiome Ultra Nucleic Acid Isolation Kit	0.05	E4	EP0019	C04	JL	WheelingWWTP-01	MVC	9/27/21 7:00	Composite	9/27/21 7:00	9/26/21 7:00	5.676		Pass	JL	10/1/21		Ohio	Processing	Complete
C01-0042	9658	OneStep RT-ddPCR	Human RNase P	7.30991959571838	13020.7942798734	None				2021-12-03	Manual	DQ	58477038	QX 200	CDC nCov-2 Triplex	E7	AP0023	A07	JL	SARS-CoV-2 N1	48.7757444381714	0	1030.21682739258	86881.7947804928	SARS-CoV-2 N2	26.8141460418702	0	1109.43168640137	47762.6976370813																																					0.005			2021-11-29	10	NT04474	Halcyon	Ceres Nanotrap	0.475		CP0040	B03	AJ	WWTP		2021-11-29	0.4	2108255	Halcyon	Thermo Magmax Microbiome Ultra Nucleic Acid Isolation Kit	0.075	E7	EP0040	A07	AJ	WheelingWWTP-01	-	11/22/21 7:00	Composite	11/22/21 7:00	11/21/21 7:00			Pass	AJ	11/23/21	5.88	Ohio	Processing	Complete
A03-0011	11824	OneStep RT-ddPCR	Human RNase P	37.839849	40204.83956					9/24/21	Manual	DQ	XXXXXX	QX 200	CDC nCov-2 Triplex	I4	AP0009	B04	JL	SARS-CoV-2 N1	63.76538277	0	878.4640503	67750.71919	SARS-CoV-2 N2	91.7171669	0	968.4371185	97449.48983																																				CDC N1/N2/RP Triplex	0.005	Sample		9/24/21	10		Halcyon	Ceres Nanotrap	0.425		CP0016	B06	JL	K-12	Sample	9/24/21	0.4	XXXXXX	Halcyon	Thermo Magmax Microbiome Ultra Nucleic Acid Isolation Kit	0.05	I4	EP0016	A12	JL	MorgantownHS-01	BL	9/21/21 9:00	Composite	9/20/21 14:00	9/20/21 6:00			Pass	JL	9/21/21	8.9	Monongalia	Processing	Complete
A0039	13018	OneStep RT-ddPCR	Human RNase P		52080					2/22/21	Manual	DQ			CDC nCov-2 Triplex					SARS-CoV-2 N1				108552	SARS-CoV-2 N2				99864																																				CDC N1/N2/RP Triplex	0.005	Sample		12/14/20	100			PEG Precipitation	4				AT	WWTP	Sample	12/15/20	0.2			Qiagen QiaAMP Viral Mini-RNA Kit	0.06				AT	StarCityWWTP-01	DW	12/13/20 0:00	Composite	12/13/20 11:59	12/13/20 12:00	6.302 		Pass	TD	12/14/20		Monongalia	Processing	Complete
A0038	13631	OneStep RT-ddPCR	Human RNase P		59680.8					2/22/21	Manual	DQ			CDC nCov-2 Triplex					SARS-CoV-2 N1				100764	SARS-CoV-2 N2				74628																																				CDC N1/N2/RP Triplex	0.005	Sample		12/13/20	100			PEG Precipitation	3.6				AT	WWTP	Sample	12/15/20	0.2			Qiagen QiaAMP Viral Mini-RNA Kit	0.06				AT	StarCityWWTP-01	DW	12/10/20 0:00	Composite	12/10/20 11:59	12/10/20 12:00	6.775 		Pass	TD	12/14/20		Monongalia	Processing	Complete
A03-0138																																																																																											MountainviewES-01												Monongalia		
H01-0042	10076	OneStep RT-ddPCR	Human RNase P	7.006623745	12480.54855	None				11/29/21	Manual	DQ	58477038	QX 200	CDC nCov-2 Triplex	C6	AP0022	C06	JL	SARS-CoV-2 N1	9.342629313	0	1092.976303	16641.55846	SARS-CoV-2 N2	14.01533484	0	1279.930573	24964.81519																																					0.005	Sample		2021-11-22	10	NT04474	Halcyon	Ceres Nanotrap	0.475		CP0039	B02	AJ	WWTP	Sample	2021-11-22	0.4	2108255	Halcyon	Ultra 2.0 Microbiome (Thermo)	0.075	C6	EP0039	A06	AJ	MoundsvilleWWTP-01	-	11/18/21 8:15	Composite	11/18/21 8:00	11/17/21 8:00			Pass	AJ	11/19/21	7.02	Marshall	Processing	Complete
L01-0011																																																																																											WestUnionWWTP-01												Doddridge		
C01-0039	15368	OneStep RT-ddPCR	Human RNase P	26.0425186157226	46388.2362842559	None				2021-12-03	Manual	DQ	58477038	QX 200	CDC nCov-2 Triplex	F2	AP0023	B02	JL	SARS-CoV-2 N1	44.4428396224976	0	1030.21682739258	79163.8080775738	SARS-CoV-2 N2	35.2408790588378	0	1109.43168640137	62772.8158235548																																					0.005			2021-11-29	10	NT04474	Halcyon	Ceres Nanotrap	0.475		CP0040	C02	AJ	WWTP		2021-11-29	0.4	2108255	Halcyon	Thermo Magmax Microbiome Ultra Nucleic Acid Isolation Kit	0.075	F2	EP0040	B02	AJ	WheelingWWTP-01	-	11/16/21 7:00	Composite	11/16/21 7:00	11/15/21 7:00			Pass	AJ	11/23/21	5.41	Ohio	Processing	Complete
A02-0347																																																																																											WVU-Morgantown												Monongalia		
A0023	12579	OneStep RT-ddPCR	Human RNase P		24684					12/14/20	Manual	DQ			CDC nCov-2 Triplex					SARS-CoV-2 N1				49394.4	SARS-CoV-2 N2				29647.2																																				CDC N1/N2/RP Triplex	0.005	Sample		12/4/20	100			PEG Precipitation	4.4				MS	WWTP	Sample	12/7/20	0.2			Qiagen QiaAMP Viral Mini-RNA Kit	0.06				MS	StarCityWWTP-01	GG	11/22/20 0:00	Composite	11/22/20 23:59	11/22/20 0:00	8.214		Pass	TD	11/30/20		Monongalia	Processing	Complete
A02-0084	19601	OneStep RT-ddPCR	Human RNase P	49.26872253	52348.01769					9/9/21	Manual	DQ	58477037	QX 200	CDC nCov-2 Triplex	K6	AP0007	A06	JL	SARS-CoV-2 N1	191.6449738	0	1303.838043	203622.7846	SARS-CoV-2 N2	204.961338	0	1366.207123	217771.4217																																				CDC N1/N2/RP Triplex	0.005	Sample		9/8/21	10	NT04155	Halcyon	Ceres Nanotrap	0.425		CP0009	A06	JL	WVU Morgantown	Sample	9/8/21	0.4	2102028	Halcyon	Thermo Magmax Microbiome Ultra Nucleic Acid Isolation Kit	0.05	K6	EP0009	A06	JL	NorthHighSt-02 (MUB)	EL	9/6/21 8:48	Composite	9/6/21 8:48	9/4/21 9:00			Pass	JL	9/7/21	6.89	Monongalia	Processing	Complete
A1098	11958	OneStep RT-ddPCR		211.49		BRSV		502288.75		7/30/21	Manual	DQ			BRSV Triplex					SARS-CoV-2 N1	21.65			51418.75	SARS-CoV-2 N2	25.59			60776.25																																				N1/N2/BRSV Triplex	0.005	Sample		7/30/21	10			Ceres Nanotrap	0.95					WWTP	Sample	7/30/21	0.4			Thermo Magmax Microbiome Ultra Nucleic Acid Isolation Kit	0.05				JL	StarCityWWTP-01	EL	7/22/21 23:55	Composite	7/22/21 23:55	7/22/21 0:00	6.513		Pass	JL	7/30/21		Monongalia	Processing	Complete
A02-0244																																																																															WVU Morgantown												OaklandE-02	GZ	12/03/2021 09:23 AM	Composite	12/03/2021 09:00 AM	12/01/2021 09:00 AM			Pass	AJ	12/01/2021	8.39	Monongalia		
G01-0001	8041	OneStep RT-ddPCR	Human RNase P	2.926361859	3109.259475	None				10/20/21	Manual	DQ	58477038	QX One	CDC nCov-2 Triplex	J2	AP0014	H07	JL	SARS-CoV-2 N1	794.5557404	0	2152.007294	844215.4741	SARS-CoV-2 N2	803.637619	0	2493.552246	853864.9702																																				CDC N1/N2/RP Triplex	0.005	Sample		10/18/21	10	NT04474	Halcyon	Ceres Nanotrap	0.425		CP0026	D06	JL	WWTP	Sample	10/18/21	0.4	2108255	Halcyon	Thermo Magmax Microbiome Ultra Nucleic Acid Isolation Kit	0.05	J2	EP0026	B10	JL	KeyserWWTP-01	ML	10/5/21 9:05	Composite	10/5/21 9:00	10/4/21 12:00			Pass	JL	10/8/21	6.82	Mineral	Processing	Complete
A03-0033	15613	OneStep RT-ddPCR	Human RNase P	2.787955999	2962.203249					10/11/21	Manual	DQ	58477037	QX One	CDC nCov-2 Triplex	I2	AP0012	B03	JL	SARS-CoV-2 N1	0	0	1593.187866	0	SARS-CoV-2 N2	5.576269031	0	2077.493896	5924.785845																																				CDC N1/N2/RP Triplex	0.005	Sample		10/7/21	10	NT04474	Halcyon	Ceres Nanotrap	0.425		CP0021	C02	JL	K-12	Sample	10/7/21	0.4	2108052	Halcyon	Thermo Magmax Microbiome Ultra Nucleic Acid Isolation Kit	0.05	I2	EP0021	B02	JL	CheatLakeES-01	BL	9/28/21 10:20	Composite	9/27/21 14:00	9/27/21 6:00			Pass	JL	10/6/21	7.82	Monongalia	Processing	Complete
A01-0008	17162	OneStep RT-ddPCR	Human RNase P	53.53055	56876.20938					8/18/21	Manual	DQ	58477036	QX 200	CDC nCov-2 Triplex	G8	AP000000	A08	JL	SARS-CoV-2 N1	41.16652966	0	1685.59967	43739.43877	SARS-CoV-2 N2	57.65333176	1.36802882	1874.414978	61256.66499																																				CDC N1/N2/RP Triplex	0.005	Sample		8/18/21	10	NT04155	Kookaburra	Ceres Nanotrap	0.425		CP000000	B02	JL	WWTP	Sample	8/18/21	0.4	2102028	Kookaburra	Thermo Magmax Microbiome Ultra Nucleic Acid Isolation Kit	0.05		EP000000	A08	JL	StarCityWWTP-01	JL	8/17/21 23:55	Composite	8/17/21 23:55	8/17/21 0:00	11.614		Pass	JL	8/18/21	6.97	Monongalia	Processing	Complete
A02-0053	13324	OneStep RT-ddPCR	Human RNase P	129.3278694	137410.8613					9/2/21	Manual	DQ		QX One	BRSV Triplex	G1	AP000000	A02	JL	SARS-CoV-2 N1	143.7464333	0	3138.026123	152730.5853	SARS-CoV-2 N2	121.3217831	0	3336.080627	128904.3945																																				CDC N1/N2/RP Triplex	0.005	Sample		9/2/21	10	 NT04155	Kookaburra	Ceres Nanotrap	0.425		CP0007	B03	JL	WVU Morgantown	Sample	9/2/21	0.4	2102028	Halcyon	Thermo Magmax Microbiome Ultra Nucleic Acid Isolation Kit	0.05	G1	EP0007	A09	JL	OaklandE-02	EL	8/27/21 9:57	Grab	8/27/21 9:57	8/27/21 9:57			Pass	JL	8/27/21	8.76	Monongalia	Processing	Complete
A01-0036	14143	OneStep RT-ddPCR	Human RNase P	54.30220604	57696.09392					9/3/21	Manual	DQ		QX One	BRSV Triplex	I2	AP000000	A04	JL	SARS-CoV-2 N1	67.89940834	0	3138.026123	72143.12136	SARS-CoV-2 N2	36.18608713	0	3336.080627	38447.71758																																				CDC N1/N2/RP Triplex	0.005	Sample		9/3/21	10	NT04155	Halcyon	Ceres Nanotrap	0.425		CP0008	A02	JL	WWTP	Sample	9/3/21	0.4	2102028	Halcyon	Thermo Magmax Microbiome Ultra Nucleic Acid Isolation Kit	0.05	I2	EP0008	A02	JL	StarCityWWTP-01	DW	9/1/21 23:55	Composite	9/1/21 23:55	9/1/21 0:00	12.161		Pass	JL	9/1/21	6.53	Monongalia	Processing	Complete
A01-0059	10172	OneStep RT-ddPCR	Human RNase P	2.313268632	2457.847921	None				10/20/21	Manual	DQ	58477038	QX One	CDC nCov-2 Triplex	I5	AP0014	E05	JL	SARS-CoV-2 N1	34.72293139	0	2152.007294	36893.1146	SARS-CoV-2 N2	11.56861782	0	2493.552246	12291.65643																																				CDC N1/N2/RP Triplex	0.005	Sample		10/18/21	10	NT04474	Halcyon	Ceres Nanotrap	0.425		CP0026	D01	JL	WWTP	Sample	10/18/21	0.4	2108255	Halcyon	Thermo Magmax Microbiome Ultra Nucleic Acid Isolation Kit	0.05	I5	EP0026	B05	JL	StarCityWWTP-01	GG	10/9/21 23:55	Composite	10/9/21 23:55	10/9/21 0:00	8.547		Pass	JL	10/13/21	6.76	Monongalia	Processing	Complete
A02-0106	11437	OneStep RT-ddPCR	Human RNase P	41.18214607	43756.0302					9/20/21	Manual	DQ	58477037	QX 200	CDC nCov-2 Triplex	D5	AP0008	C05	JL	SARS-CoV-2 N1	82.43649483	0	1320.22522	87588.77575	SARS-CoV-2 N2	51.48895264	0	1524.019623	54707.01218																																				CDC N1/N2/RP Triplex	0.005	Sample		9/15/21	10	NT04155	Kookaburra	Ceres Nanotrap	0.425		CP0012	A05	JL	WVU Morgantown	Sample	9/15/21	0.4	2105033	Halcyon	Thermo Magmax Microbiome Ultra Nucleic Acid Isolation Kit	0.05	D5	EP0012	A05	JL	OaklandE-02	EL	9/15/21 9:28	Composite	9/15/21 9:28	9/13/21 9:32			Pass	JL	9/15/21	7.17	Monongalia	Processing	Complete
A02-0258																																																																																											WVU-Morgantown												Monongalia		
A02-0003	16102	OneStep RT-ddPCR				BRSV	0	0		8/13/21	Manual	DQ		QX 200	BRSV Triplex		AP000000	C02	JL	SARS-CoV-2 N1	70.24583817	0	2236.361694	74636.199	SARS-CoV-2 N2	74.64317322	0	2276.707153	79308.37154																																				CDC N1/N2/RP Triplex	0.005	Sample		8/13/21	10	NT04155	Kookaburra	Ceres Nanotrap	0.425		CP000000	C06	JL	WVU Morgantown	Sample	8/13/21	0.4	2102028	Kookaburra	Thermo Magmax Microbiome Ultra Nucleic Acid Isolation Kit	0.05		EP000000	C06	JL	CollegePark-02	EL	8/12/21 9:59	Composite	8/12/21 9:00	8/11/21 9:00			Pass	JL	8/12/21		Monongalia	Processing	Complete
J01-0003																																																																															WWTP												AlpineLakeWWTP-01												Preston		
A03-0149																																																																																											NorthES-01												Monongalia		
A1089	13216	OneStep RT-ddPCR		96.34		BRSV		228807.5		7/30/21	Manual	DQ			BRSV Triplex					SARS-CoV-2 N1	0			0	SARS-CoV-2 N2	0			0																																				N1/N2/BRSV Triplex	0.005	Sample		7/30/21	10			Ceres Nanotrap	0.95					WWTP	Sample	7/30/21	0.4			Thermo Magmax Microbiome Ultra Nucleic Acid Isolation Kit	0.05				JL	StarCityWWTP-01	EL	7/11/21 23:55	Composite	7/11/21 23:55	7/11/21 0:00	8.458		Pass	JL	7/30/21		Monongalia	Processing	Complete
A01-0032	11790	OneStep RT-ddPCR	Human RNase P	73.95734787	78579.68211					9/20/21	Manual	DQ	58477037	QX 200	CDC nCov-2 Triplex	A3	AP0008	A03	JL	SARS-CoV-2 N1	95.98958015	0	1320.22522	101988.9289	SARS-CoV-2 N2	114.0312958	0	1524.019623	121158.2518																																				CDC N1/N2/RP Triplex	0.005	Sample		9/13/21	10	NT04155	Halcyon	Ceres Nanotrap	0.425		CP0011	A03	JL	WWTP	Sample	9/13/21	0.4	2105033	Halcyon	Thermo Magmax Microbiome Ultra Nucleic Acid Isolation Kit	0.05	A3	EP0011	A03	JL	StarCityWWTP-01	JL	9/9/21 23:55	Composite	9/9/21 23:55	9/9/21 0:00	9.799		Pass	JL	9/13/21	6.83	Monongalia	Processing	Complete
A03-0071	11175	OneStep RT-ddPCR	Human RNase P	4.211457074	4474.673141	None				11/29/21	Manual	DQ	58477038	QX 200	CDC nCov-2 Triplex	C4	AP0022	E04	JL	SARS-CoV-2 N1	0	0	1092.976303	0	SARS-CoV-2 N2	0	0	1279.930573	0																																					0.005	Sample		2021-11-15	10	NT04474	Halcyon	Ceres Nanotrap	0.425		CP0035	A04	LW	K-12	Sample	2021-11-15	0.4	2108255	Halcyon	Ultra 2.0 Microbiome (Thermo)	0.05	C4	EP0035	A04	JL	SuncrestES-01	BL	11/5/21 14:30	Composite	11/5/21 14:00	11/5/21 6:00			Pass	JL	11/10/21		Monongalia	Processing	Complete
A1083	13044	OneStep RT-ddPCR		77.69		BRSV		184513.75		7/9/21	Manual	DQ			BRSV Triplex					SARS-CoV-2 N1	1.8			4275	SARS-CoV-2 N2	3.61			8573.75																																				N1/N2/BRSV Triplex	0.005	Sample		7/9/21	10			Ceres Nanotrap	0.95	pH - 6.49				WWTP	Sample	7/9/21	0.4			Thermo Magmax Microbiome Ultra Nucleic Acid Isolation Kit	0.05				JL	StarCityWWTP-01	EL	7/1/21 23:55	Composite	7/1/21 23:55	7/1/21 0:00	8.588		Pass	JL	7/9/21	6.49	Monongalia	Processing	Complete
A02-0142	17886	OneStep RT-ddPCR	Human RNase P	35.27065277	37475.06857					10/11/21	Manual	DQ	58477037	QX One	CDC nCov-2 Triplex	F5	AP0012	E01	JL	SARS-CoV-2 N1	16.02673292	0	1593.187866	17028.40373	SARS-CoV-2 N2	4.80707854	0	2077.493896	5107.520949																																				CDC N1/N2/RP Triplex	0.005	Sample		10/5/21	10	NT04474	Halcyon	Ceres Nanotrap	0.425		CP0020	A05	JL	WVU Morgantown	Sample	10/5/21	0.4	2108052	Halcyon	Thermo Magmax Microbiome Ultra Nucleic Acid Isolation Kit	0.05	F5	EP0020	A05	JL	CollegePark-02	EL	10/4/21 10:00	Composite	10/4/21 9:00	10/2/21 10:00			Pass	JL	10/5/21	7.54	Monongalia	Processing	Complete
C01-0013	15705	OneStep RT-ddPCR	Human RNase P	26.20212555	27839.7584					10/11/21	Manual	DQ	58477037	QX One	CDC nCov-2 Triplex	A4	AP0012	D06	JL	SARS-CoV-2 N1	38.62473965	0	1593.187866	41038.78587	SARS-CoV-2 N2	35.86354256	0	2077.493896	38105.01397																																				CDC N1/N2/RP Triplex	0.005	Sample	FLOW: 6.08	10/8/21	10	NT04474	Halcyon	Ceres Nanotrap	0.425		CP0022	D02	JL	WWTP	Sample	10/8/21	0.4	2108052	Halcyon	Thermo Magmax Microbiome Ultra Nucleic Acid Isolation Kit	0.05	A4	EP0022	C04	JL	WheelingWWTP-01	MVC	10/4/21 7:05	Composite	10/4/21 7:00	10/3/21 7:00	6.08		Pass	JL	10/8/21	6.92	Ohio	Processing	Complete
A01-0116																																																																																											StarCityWWTP-01												Monongalia		
L01-0033																																																																																											WestUnionWWTP-01												Doddridge		
A1007	13279	OneStep RT-ddPCR	Human RNase P		49788					3/22/21	Manual	DQ		QX 200	CDC nCov-2 Triplex					SARS-CoV-2 N1				0	SARS-CoV-2 N2				0																																				CDC N1/N2/RP Triplex	0.005	Sample		3/19/21	100			PEG Precipitation	3.6				TD	WWTP	Sample	3/21/21	0.2			Qiagen QiaAMP Viral Mini-RNA Kit	0.06				TD	StarCityWWTP-01	GG	3/16/21 11:59	Composite	3/16/21 11:59	3/16/21 12:01	8.66		Pass	JL	3/19/21		Monongalia	Processing	Complete
E01-0012																																																																															WWTP												PrincetonWWTP-01	EU	11/24/2021 09:00 AM	Composite	11/24/2021 08:15 AM	11/23/2021 08:15 AM			Pass	AJ	12/02/2021	7.31	Mercer		
A02-0239																																																																															WVU Morgantown												NorthHighSt-02 (MUB)	GZ	12/03/2021 09:52 AM	Composite	12/03/2021 09:00 AM	12/01/2021 09:00 AM			Pass	AJ	12/01/2021	8.43	Monongalia		
A03-0167																																																																																											SuncrestES-01												Monongalia		
A02-0080	14549	OneStep RT-ddPCR	Human RNase P	50.18832684	53325.09726					9/9/21	Manual	DQ	58477037	QX 200	CDC nCov-2 Triplex	I6	AP0007	C03	JL	SARS-CoV-2 N1	6.469900608	0	1303.838043	6874.269396	SARS-CoV-2 N2	14.55977917	0	1366.207123	15469.76537																																				CDC N1/N2/RP Triplex	0.005	Sample		9/3/21	10	NT04155	Halcyon	Ceres Nanotrap	0.425		CP0008	A06	JL	WVU Morgantown	Sample	9/3/21	0.4	2102028	Halcyon	Thermo Magmax Microbiome Ultra Nucleic Acid Isolation Kit	0.05	I6	EP0008	A06	JL	CollegePark-02	EL	9/3/21 10:46	Composite	9/3/21 10:46	9/1/21 10:59			Pass	JL	9/3/21	5.86	Monongalia	Processing	Complete
A03-0178																																																																																											MountainviewES-01												Monongalia		
K01-0015																																																																																											ParkersburgWWTP-01												Wood		
A02-0215	14398	OneStep RT-ddPCR	Human RNase P	3.2	3400					11/18/21	Manual	DQ	58477038	QX 200	CDC nCov-2 Triplex	F4	AP0020	E04	JL	SARS-CoV-2 N1	0	0	1193.4	0	SARS-CoV-2 N2	0	0	1245	0																																					0.005	Sample		11/11/21	10	NT04474	Kookaburra	Ceres Nanotrap	0.425		CP0034	D06	JL	WVU Morgantown	Sample	11/11/21	0.4	2108255	Kookaburra	Thermo Magmax Microbiome Ultra Nucleic Acid Isolation Kit	0.05	F4	EP0034	C04	JL	CollegePark-02	EL	11/10/21 10:25	Composite	11/10/21 10:25	11/8/21 10:25			Pass	JL	11/10/21		Monongalia	Processing	Complete
A02-0134	12270	OneStep RT-ddPCR	Human RNase P	11.74077511	12474.57355					10/14/21	Manual	DQ	58477038	QX One	CDC nCov-2 Triplex	NAB_11 D1	AP0013	E04	JL	SARS-CoV-2 N1	0	0	1707.766876	0	SARS-CoV-2 N2	0	0	1836.244965	0																																				CDC N1/N2/RP Triplex	0.005	Sample		10/1/21	10	NT04474	Halcyon	Ceres Nanotrap	0.425	D1	CP0019	B03	JL	WVU Morgantown	Sample	10/1/21	0.4	2108052	Halcyon	Thermo Magmax Microbiome Ultra Nucleic Acid Isolation Kit	0.05	D1	EP0019	B01	JL	Evansdale-01	EL	10/1/21 9:43	Composite	10/1/21 9:44	9/29/21 9:43			Pass	JL	10/1/21		Monongalia	Processing	Complete
A03-0019	12298	OneStep RT-ddPCR	Human RNase P	97.77973175	103890.965					9/29/21	Manual	DQ	58477037	QX 200	CDC nCov-2 Triplex	A4	AP0010	C04	JL	SARS-CoV-2 N1	0	0	1097.667847	0	SARS-CoV-2 N2	0	0	1200.682373	0																																				CDC N1/N2/RP Triplex	0.005	Sample		9/27/21	10	NT04474	Halcyon	Ceres Nanotrap	0.425		CP0017	D02	JL	K-12	Sample	9/27/21	0.4	2105049	Halcyon	Thermo Magmax Microbiome Ultra Nucleic Acid Isolation Kit	0.05	A4	EP0017	B08	JL	NorthES-01	BL	9/24/21 14:30	Composite	9/24/21 14:00	9/24/21 6:00			Pass	JL	9/27/21	9.13	Monongalia	Processing	Complete
A01-0010	18269	OneStep RT-ddPCR	Human RNase P	42.54051685	45199.29916					8/20/21	Manual	DQ	58477036	QX 200	CDC nCov-2 Triplex	H6	AP000000	A06	JL	SARS-CoV-2 N1	45.12120247	0	1047.2155	47941.2756	SARS-CoV-2 N2	52.86496639	0	1082.352142	56169.02781																																				CDC N1/N2/RP Triplex	0.005	Sample		8/20/21	10	NT04155	Kookaburra	Ceres Nanotrap	0.425	6.99	CP000000	A06	JL	WWTP	Sample	8/20/21	0.4	2102028	Kookaburra	Thermo Magmax Microbiome Ultra Nucleic Acid Isolation Kit	0.05	H6	EP000000	A06	JL	StarCityWWTP-01	GG	8/19/21 23:59	Composite	8/19/21 23:59	8/19/21 0:01	11.28		Pass	Jl	8/20/21	6.99	Monongalia	Processing	Complete
A02-0012	18304	OneStep RT-ddPCR	Human RNase P	30.87174654	32801.2307					8/16/21	Manual	DQ	58477036	QX 200	CDC nCov-2 Triplex		AP000000	B02	JL	SARS-CoV-2 N1	3.856753707	0	1714.019012	4097.80094	SARS-CoV-2 N2	10.28608203	0	1783.141785	10928.96241																																				CDC N1/N2/RP Triplex	0.005	Sample		8/16/21	10	NT04155	Halcyon	Ceres Nanotrap	0.425		CP000000	B04	JL	WVU Morgantown	Sample	8/16/21	0.4	2102028	Halcyon	Thermo Magmax Microbiome Ultra Nucleic Acid Isolation Kit	0.05		EP000000	A10	JL	HonorsSummit-01 (MUB)	Alexander Brun	8/16/21 9:54	Composite	8/16/21 9:00	8/14/21 9:00			Pass	Josh Lambert	8/16/21	6.65	Monongalia	Processing	Complete
A1002	10921	OneStep RT-ddPCR	Human RNase P		38790					3/16/21	Manual	DQ		QX 200	CDC nCov-2 Triplex					SARS-CoV-2 N1				25860	SARS-CoV-2 N2				19380																																				CDC N1/N2/RP Triplex	0.005	Sample		3/12/21	100			PEG Precipitation	5				AHT	WWTP	Sample	3/15/21	0.2			Qiagen QiaAMP Viral Mini-RNA Kit	0.06				AHT	StarCityWWTP-01	EL	3/9/21 12:00	Composite	3/9/21 12:00	3/9/21 12:00	8.423		Pass	MVS	3/12/21		Monongalia	Processing	Complete
G02-0010																																																																															WWTP												PotomacState-01	-							Fail: Missing Required Data				Mineral		
A1005	9233	OneStep RT-ddPCR	Human RNase P		26010					3/22/21	Manual	DQ		QX 200	CDC nCov-2 Triplex					SARS-CoV-2 N1				0	SARS-CoV-2 N2				0																																				CDC N1/N2/RP Triplex	0.005	Sample		3/19/21	100			PEG Precipitation	3.4				TD	WWTP	Sample	3/21/21	0.2			Qiagen QiaAMP Viral Mini-RNA Kit	0.06				TD	StarCityWWTP-01	GG	3/14/21 11:59	Composite	3/14/21 11:59	3/14/21 5:30	8.712		Pass	JL	3/19/21		Monongalia	Processing	Complete
B01-0007	16078	OneStep RT-ddPCR	Human RNase P	6.161722541	6546.8302					10/11/21	Manual	DQ	58477037	QX One	CDC nCov-2 Triplex	H2	AP0012	B02	JL	SARS-CoV-2 N1	65.78440189	0	1593.187866	69895.92701	SARS-CoV-2 N2	49.32600498	0	2077.493896	52408.88029																																				CDC N1/N2/RP Triplex	0.005	Sample		10/7/21	10	NT04474	Halcyon	Ceres Nanotrap	0.425		CP0021	A02	JL	WWTP	Sample	10/7/21	0.4	2108052	Halcyon	Thermo Magmax Microbiome Ultra Nucleic Acid Isolation Kit	0.05	H2	EP0021	A02	JL	CharlestonWWTP-01	KM	10/1/21 7:20	Composite	10/1/21 7:00	9/30/21 7:00			Pass	JL	10/6/21	6.48	Kanawha	Processing	Complete
A02-0283																																																																																											WVU-Morgantown												Monongalia		
A01-0044	10597	OneStep RT-ddPCR	Human RNase P	24.43691254	25964.21957					9/29/21	Manual	DQ	58477037	QX 200	CDC nCov-2 Triplex	K5	AP0010	A05	JL	SARS-CoV-2 N1	60.02687931	0	1097.667847	63778.55927	SARS-CoV-2 N2	91.21232033	0	1200.682373	96913.09035																																				CDC N1/N2/RP Triplex	0.005	Sample		9/27/21	10	NT04474	Halcyon	Ceres Nanotrap	0.425		CP0017	A05	JL	WWTP	Sample	9/27/21	0.4	2105049	Halcyon	Thermo Magmax Microbiome Ultra Nucleic Acid Isolation Kit	0.05	K5	EP0017	A05	JL	StarCityWWTP-01	GG	9/23/21 23:55	Composite	9/23/21 23:55	9/23/21 0:00	9.101		Pass	JL	9/24/21	6.56	Monongalia	Processing	Complete
B01-0058	17681	OneStep RT-ddPCR	Human RNase P	26.63054228	28294.95117	None				11/29/21	Manual	DQ	58477038	QX 200	CDC nCov-2 Triplex	D3	AP0022	G03	JL	SARS-CoV-2 N1	47.95669556	0	1092.976303	50953.98903	SARS-CoV-2 N2	42.62334347	0	1279.930573	45287.30243																																				CDC N1/N2/RP Triplex	0.005	Sample		11/17/21	10	NT04474	Halcyon	Ceres Nanotrap	0.425		CP0037	C03	JL	WWTP	Sample	11/17/21	0.4	2108255	Halcyon	Thermo Magmax Microbiome Ultra Nucleic Acid Isolation Kit	0.05	L3	EP0037	B03	JL	CharlestonWWTP-01	-	11/12/21 7:15	Composite	11/12/21 7:00	11/11/21 7:00			Pass	JL	11/16/21	7.52	Kanawha	Processing	Complete
A02-0083	13219	OneStep RT-ddPCR	Human RNase P	26.71469688	28384.36544					9/9/21	Manual	DQ	58477037	QX 200	CDC nCov-2 Triplex	K5	AP0007	A05	JL	SARS-CoV-2 N1	55.24384022	0	1303.838043	58696.58023	SARS-CoV-2 N2	44.54135895	0	1366.207123	47325.19388																																				CDC N1/N2/RP Triplex	0.005	Sample		9/8/21	10	NT04155	Halcyon	Ceres Nanotrap	0.425		CP0009	A05	JL	WVU Morgantown	Sample	9/8/21	0.4	2102028	Halcyon	Thermo Magmax Microbiome Ultra Nucleic Acid Isolation Kit	0.05	K5	EP0009	A05	JL	HonorsSummit-01 (MUB)	EL	9/6/21 8:38	Composite	9/6/21 8:38	9/4/21 9:00			Pass	JL	9/7/21	6.88	Monongalia	Processing	Complete
L01-0025																																																																																											WestUnionWWTP-01												Doddridge		
A02-0086	16057	OneStep RT-ddPCR	Human RNase P	17.59098768	18690.42441					9/9/21	Manual	DQ	58477037	QX 200	CDC nCov-2 Triplex	L1	AP0007	B01	JL	SARS-CoV-2 N1	16.12456918	0	1303.838043	17132.35475	SARS-CoV-2 N2	7.327980399	0	1366.207123	7785.979174																																				CDC N1/N2/RP Triplex	0.005	Sample		9/8/21	10	NT04155	Halcyon	Ceres Nanotrap	0.425		CP0010	A01	JL	WVU Morgantown	Sample	9/8/21	0.4	2102028	Halcyon	Thermo Magmax Microbiome Ultra Nucleic Acid Isolation Kit	0.05	L1	EP0010	A01	JL	Evansdale-01	EL	9/8/21 9:10	Composite	9/8/21 20:20	9/6/21 20:20			Pass	JL	9/8/21	6.31	Monongalia	Processing	Complete
K01-0050																																																																																											ParkersburgWWTP-01												Wood		
J01-0017																																																																															WWTP												AlpineLakeWWTP-01												Preston		
A02-0188		OneStep RT-ddPCR	Human RNase P			None				11/1/21	CHECK	ABS	58477038	QX 200	CDC nCov-2 Triplex	B3	AP0015	B03	JL	SARS-CoV-2 N1					SARS-CoV-2 N2																																									0.005	Sample		10/25/21	10	NT04474	Halcyon	Ceres Nanotrap	0.425		CP0028	B05	JL	WVU Morgantown	Sample	10/25/21	0.4	2108255	Halcyon	Thermo Magmax Microbiome Ultra Nucleic Acid Isolation Kit	0.05	B3	EP0028	B03	JL	HonorsSummit-01 (MUB)	CA	10/25/21 10:16	Composite	10/25/21 9:00	10/23/21 9:00			Pass	JL	10/25/21	7.12	Monongalia	Processing	Processing
A0040	11665	OneStep RT-ddPCR	Human RNase P		15246					2/22/21	Manual	DQ			CDC nCov-2 Triplex					SARS-CoV-2 N1				81396	SARS-CoV-2 N2				81396																																				CDC N1/N2/RP Triplex	0.005	Sample		12/14/20	100			PEG Precipitation	4.2				AT	WWTP	Sample	12/21/20	0.2			Qiagen QiaAMP Viral Mini-RNA Kit	0.06				AT	StarCityWWTP-01	GG	12/14/20 0:00	Composite	12/14/20 11:59	12/14/20 12:00	9.162 		Pass	TD	12/18/20		Monongalia	Processing	Complete
G01-0016	15659	OneStep RT-ddPCR	Human RNase P	4.508270025	4790.036902	None				11/4/21	Manual	DQ	58477038	QX 200	CDC nCov-2 Triplex	J2	AP0016	E02	JL	SARS-CoV-2 N1	3.005417287	0	1040.980072	3193.255868	SARS-CoV-2 N2	4.508270025	0	1205.935364	4790.036902																																					0.005	Sample		11/3/21	10	NT04474	Halcyon	Ceres Nanotrap	0.425		CP0032	B04	JL	WWTP	Sample	11/3/21	0.4	21108255	Kookaburra	Thermo Magmax Microbiome Ultra Nucleic Acid Isolation Kit	0.05	J2	EP0032	A10	JL	KeyserWWTP-01	TD	11/27/2021 08:20 AM	Composite	11/27/2021 08:00 AM	11/26/2021 09:00 AM			Pass	AJ	12/02/2021	7.29	Mineral	Processing	Confirming
G02-0011	13934	OneStep RT-ddPCR	Human RNase P	0	0	None				11/17/21	Manual	DQ	58477038	QX 200	CDC nCov-2 Triplex	D1	AP0019	A03	JL	SARS-CoV-2 N1	0	0	1166.6	0	SARS-CoV-2 N2	3.4	0	1342.8	3612.5																																					0.005	Sample		10/27/21	10	NT04474	Kookaburra	Ceres Nanotrap	0.425		CP0029	A01	JL	WVU Keyser	Sample	10/27/21	0.4	2108255	Halcyon	Thermo Magmax Microbiome Ultra Nucleic Acid Isolation Kit	0.05	D1	EP0029	A01	JL	PotomacState-01	EDL	10/13/21 9:25	Composite	10/13/21 9:25	10/12/21 9:25			Pass	JL	10/27/21	7.02	Mineral	Processing	Complete
A02-0268																																																																																											WVU-Morgantown												Monongalia		
H01-0070																																																																															WWTP												MoundsvilleWWTP-01												Marshall		
A02-0009	19134	OneStep RT-ddPCR	Human RNase P	23.37623835	24837.25324					8/16/21	Manual	DQ	58477036	QX 200	CDC nCov-2 Triplex		AP000000	A07	JL	SARS-CoV-2 N1	49.24017906	0	1714.019012	52317.69228	SARS-CoV-2 N2	46.77571774	0	1783.141785	49699.20111																																				CDC N1/N2/RP Triplex	0.005	Sample		8/16/21	10	NT04155	Halcyon	Ceres Nanotrap	0.425		CP000000	B01	JL	WVU Morgantown	Sample	8/16/21	0.4	2102028	Halcyon	Thermo Magmax Microbiome Ultra Nucleic Acid Isolation Kit	0.05		EP000000	A07	JL	CollegePark-02	Eric Lundstrom	8/13/21 10:18	Composite	8/13/21 9:55	8/11/21 9:55			Pass	Josh Lambert	8/13/21	7.8	Monongalia	Processing	Complete
L01-0001																																																																																											WestUnionWWTP-01												Doddridge		
A02-0197	11323	OneStep RT-ddPCR	Human RNase P	4.156405628	4416.180979	None				11/4/21	Manual	DQ	58477038	QX 200	CDC nCov-2 Triplex	G2	AP0016	B02	JL	SARS-CoV-2 N1	6.234883666	0	1040.980072	6624.563895	SARS-CoV-2 N2	20.78937292	0	1205.935364	22088.70873																																					0.005	Sample		11/2/21	10	NT04474	Kookaburra	Ceres Nanotrap	0.425		CP0031	B03	JL	WVU Morgantown	Sample	11/2/21	0.4	21108255	Kookaburra	Thermo Magmax Microbiome Ultra Nucleic Acid Isolation Kit	0.05	G2	EP0031	B02	JL	NorthHighSt-02 (MUB)	CA	10/29/21 12:13	Composite	10/29/21 12:14	10/27/21 12:14			Pass	JL	10/29/21	6.98	Monongalia	Processing	Complete
A1080	13452	OneStep RT-ddPCR		66.56		BRSV		158080		7/9/21	Manual	DQ			BRSV Triplex					SARS-CoV-2 N1	0			0	SARS-CoV-2 N2	0			0																																				N1/N2/BRSV Triplex	0.005	Sample		7/9/21	10			Ceres Nanotrap	0.95	pH - 6.40				WWTP	Sample	7/9/21	0.4			Thermo Magmax Microbiome Ultra Nucleic Acid Isolation Kit	0.05				JL	StarCityWWTP-01	EL	6/28/21 23:55	Composite	6/28/21 23:55	6/28/21 0:00	7.451		Pass	JL	7/9/21	6.4	Monongalia	Processing	Complete
C01-0017	10816	OneStep RT-ddPCR	Human RNase P	6.527184248	6935.133263	None				11/8/21	Manual	DQ	58477038	QX 200	CDC nCov-2 Triplex	G5	AP0017	D05	AJ	SARS-CoV-2 N1	32.65404224	0	560.2787018	34694.91988	SARS-CoV-2 N2	21.7643261	0	653.7683868	23124.59648																																					0.005	Sample		10/15/21	10	NT04474	Halcyon	Ceres Nanotrap	0.425		CP0025	D03	JL	WWTP	Sample	10/15/21	0.4	2108255	Halcyon	Thermo Magmax Microbiome Ultra Nucleic Acid Isolation Kit	0.05	G5	EP0025	D03	JL	WheelingWWTP-01	MVC	10/11/21 7:00	Composite	10/11/21 7:00	10/10/21 7:00			Pass	JL	10/15/21	6.59	Ohio	Processing	Complete
A02-0137	11385	OneStep RT-ddPCR	Human RNase P	17.60913968	18709.71091					10/5/21	Manual	DQ	58477037	QX One	CDC nCov-2 Triplex	D4	AP0011	D02	JL	SARS-CoV-2 N1	0	1355.395355	0	0	SARS-CoV-2 N2	9.781135321	1548.404388	0	10392.45628																																				CDC N1/N2/RP Triplex	0.005	Sample		10/1/21	10	NT04474	Halcyon	Ceres Nanotrap	0.425	D4	CP0019	B06	JL	WVU Morgantown	Sample	10/1/21	0.4	2108052	Halcyon	Thermo Magmax Microbiome Ultra Nucleic Acid Isolation Kit	0.05	D4	EP0019	B04	JL	NorthHighSt-02 (MUB)	EL	10/1/21 10:38	Composite	10/1/21 10:39	9/29/21 10:39			Pass	JL	10/1/21		Monongalia	Processing	Complete
H01-0010	17515	OneStep RT-ddPCR	Human RNase P	1.343424618	1427.388657	None				10/20/21	Manual	DQ	58477038	QX One	CDC nCov-2 Triplex	E8	AP0014	H01	JL	SARS-CoV-2 N1	18.81492972	0	2152.007294	19990.86283	SARS-CoV-2 N2	18.81492972	0	2493.552246	19990.86283																																					0.005	Sample		10/15/21	10	NT04474	Halcyon	Ceres Nanotrap	0.425		CP0025	B02	JL	WWTP	Sample	10/15/21	0.4	2108255	Halcyon	Thermo Magmax Microbiome Ultra Nucleic Acid Isolation Kit	0.05	E8	EP0025	B02	JL	MoundsvilleWWTP-01	DRC	10/8/21 8:15	Composite	10/8/21 8:00	10/7/21 8:00			Pass	JL	10/15/21	7.07	Marshall	Processing	Complete
A03-0014	20020	OneStep RT-ddPCR	Human RNase P	8.28712225	8805.06739					10/11/21	Manual	DQ	58477037	QX One	CDC nCov-2 Triplex	H5	AP0012	E02	JL	SARS-CoV-2 N1	38.69451046	0	1593.187866	41112.91736	SARS-CoV-2 N2	15.19495606	0	2077.493896	16144.64082																																				CDC N1/N2/RP Triplex	0.005	Sample		10/7/21	10	NT04474	Halcyon	Ceres Nanotrap	0.425		CP0021	B01	JL	K-12	Sample	10/7/21	0.4	2108052	Halcyon	Thermo Magmax Microbiome Ultra Nucleic Acid Isolation Kit	0.05	H5	EP0021	A05	JL	NorthES-01	BL	9/30/21 12:05	Composite	9/29/21 14:10	9/29/21 6:00			Pass	JL	10/6/21	7.12	Monongalia	Processing	Complete
A02-0044																																																																			Sample													Sample																									Unknown
A02-0231	16172	OneStep RT-ddPCR	Human RNase P	48.0623197555542	85611.0070645809	None				2021-12-03	Manual	DQ	58477038	QX 200	CDC nCov-2 Triplex	E6	AP0023	A06	JL	SARS-CoV-2 N1	0	0	1030.21682739258	0	SARS-CoV-2 N2	0	0	1109.43168640137	0																																					0.005			2021-11-29	10	NT04474	Halcyon	Ceres Nanotrap	0.475		CP0040	B02	AJ	WVU Morgantown		2021-11-29	0.4	2108255	Halcyon	Thermo Magmax Microbiome Ultra Nucleic Acid Isolation Kit	0.075	E6	EP0040	A06	AJ	HonorsSummit-01 (MUB)	CA	11/22/21 10:12	Composite	11/22/21 10:12	11/20/21 10:12			Pass	AJ	11/22/21	7.21	Monongalia	Processing	Complete
G01-0023																																																																			Sample												WWTP	Sample											KeyserWWTP-01		11/21/2021 08:15 AM	Composite	11/21/2021 08:00 AM	11/20/2021 09:00 AM			Fail: Temperature Above Threshold	JL	11/29/2021		Mineral		Unknown
A01-0117																																																																																											StarCityWWTP-01												Monongalia		
A02-0316																																																																																											WVU-Morgantown												Monongalia		
A02-0105	13431	OneStep RT-ddPCR	Human RNase P	33.30915928	35390.98173					9/20/21	Manual	DQ	58477037	QX 200	CDC nCov-2 Triplex	D4	AP0008	C04	JL	SARS-CoV-2 N1	59.6392107	0	1320.22522	63366.66137	SARS-CoV-2 N2	57.88296223	0	1524.019623	61500.64737																																				CDC N1/N2/RP Triplex	0.005	Sample		9/15/21	10	NT04155	Kookaburra	Ceres Nanotrap	0.425		CP0012	A04	JL	WVU Morgantown	Sample	9/15/21	0.4	2105033	Halcyon	Thermo Magmax Microbiome Ultra Nucleic Acid Isolation Kit	0.05	D4	EP0012	A04	JL	Evansdale-01	EL	9/15/21 9:14	Composite	9/15/21 9:15	9/13/21 9:20			Pass	JL	9/15/21	6.82	Monongalia	Processing	Complete
A02-0015	21184	OneStep RT-ddPCR	Human RNase P	21.11307621	22432.64347					8/16/21	Manual	DQ	58477036	QX 200	CDC nCov-2 Triplex		AP000000	B04	JL	SARS-CoV-2 N1	99.06197548	0	1714.019012	105253.3469	SARS-CoV-2 N2	72.30753899	0	1783.141785	76826.7622																																				CDC N1/N2/RP Triplex	0.005	Sample		8/16/21	10	NT04155	Halcyon	Ceres Nanotrap	0.425		CP000000	B06	JL	WVU Morgantown	Sample	8/16/21	0.4	2102028	Halcyon	Thermo Magmax Microbiome Ultra Nucleic Acid Isolation Kit	0.05		EP000000	A12	JL	CollegePark-02	Alexander Brun	8/16/21 10:15	Composite	8/16/21 9:00	8/14/21 9:00			Pass	Josh Lambert	8/16/21	7.18	Monongalia	Processing	Complete
A01-0121																																																																																											StarCityWWTP-01												Monongalia		
A1033	11036	OneStep RT-ddPCR	Human RNase P		97296					4/26/21	Manual	DQ		QX 200	CDC nCov-2 Triplex					SARS-CoV-2 N1				5112	SARS-CoV-2 N2				5112																																				CDC N1/N2/RP Triplex	0.005	Sample		4/23/21	100			PEG Precipitation	4				MVS	WWTP	Sample	4/26/21	0.2			Qiagen QiaAMP Viral Mini-RNA Kit	0.06				MVS	StarCityWWTP-01	EL	4/23/21 10:56	Composite	4/20/21 11:59	4/20/21 12:00	8.676		Pass	MVS	4/23/21		Monongalia	Processing	Complete
J01-0043																																																																															WWTP												AlpineLakeWWTP-01												Preston		
B01-0072	15869	OneStep RT-ddPCR	Human RNase P	2.965643108	3150.995802	None				11/4/21	Manual	DQ	58477038	QX 200	CDC nCov-2 Triplex	H4	AP0016	C04	JL	SARS-CoV-2 N1	1.482774764	0	1040.980072	1575.448187	SARS-CoV-2 N2	1.482774764	0	1205.935364	1575.448187																																				CDC N1/N2/RP Triplex	0.005	Sample		11/2/21	10	NT04474	Kookaburra	Ceres Nanotrap	0.425		CP0031	D05	JL	WWTP	Sample	11/2/21	0.4	21108255	Kookaburra	Thermo Magmax Microbiome Ultra Nucleic Acid Isolation Kit	0.05	H4	EP0031	C04	JL	CharlestonWWTP-01	KM	10/26/21 7:30	Composite	10/26/21 7:00	10/25/21 7:00			Pass	JL	10/29/21	6.96	Kanawha	Processing	Complete
H01-0095																																																																															WWTP												MoundsvilleWWTP-01												Marshall		
A02-0082	18851	OneStep RT-ddPCR	Human RNase P	2.496489286	2652.519867					9/9/21	Manual	DQ	58477037	QX 200	CDC nCov-2 Triplex	K4	AP0007	A04	JL	SARS-CoV-2 N1	6.241719723	0	1303.838043	6631.827205	SARS-CoV-2 N2	1.248211563	0	1366.207123	1326.224785																																				CDC N1/N2/RP Triplex	0.005	Sample		9/8/21	10	NT04155	Halcyon	Ceres Nanotrap	0.425		CP0009	A04	JL	WVU Morgantown	Sample	9/8/21	0.4	2102028	Halcyon	Thermo Magmax Microbiome Ultra Nucleic Acid Isolation Kit	0.05	K4	EP0009	A04	JL	Evansdale-01	EL	9/6/21 8:20	Composite	9/6/21 8:20	9/4/21 9:00			Pass	JL	9/7/21	6.38	Monongalia	Processing	Complete
H01-0028	16590	OneStep RT-ddPCR	Human RNase P	4.2	4462.5					11/18/21	Manual	DQ	58477038	QX 200	CDC nCov-2 Triplex	G1	AP0020	D01	JL	SARS-CoV-2 N1	8.6	0	1193.4	9137.5	SARS-CoV-2 N2	10	0	1245	10625																																					0.005	Sample		11/12/21	10	NT04474	Kookaburra	Ceres Nanotrap	0.425		CP0035	A01	AJ	WWTP	Sample	11/12/21	0.4	2108255	Kookaburra	Thermo Magmax Microbiome Ultra Nucleic Acid Isolation Kit	0.05	G1	EP0035	A01	AJ	MoundsvilleWWTP-01	DRC	11/2/21 8:15	Composite	11/2/21 8:00	11/1/21 8:00			Pass	AJ	11/11/21	6.63	Marshall	Processing	Complete
A03-0103																																																																			Sample		10/28/21	10	NT04474	Halcyon	Ceres Nanotrap	0.425		CP0030	A05	JL	K-12	Sample	10/28/21	0.4	2108255	Halcyon	Thermo Magmax Microbiome Ultra Nucleic Acid Isolation Kit	0.05	A5	EP0030	A05	JL	NorthES-01	BL	10/21/21 9:25	Composite	10/20/21 14:00	10/20/21 6:00			Pass	JL	10/22/21		Monongalia	Processing	Processing
A1031	10841	OneStep RT-ddPCR	Human RNase P		32550					4/26/21	Manual	DQ		QX 200	CDC nCov-2 Triplex					SARS-CoV-2 N1				78180	SARS-CoV-2 N2				104250																																				CDC N1/N2/RP Triplex	0.005	Sample		4/23/21	100			PEG Precipitation	5				MVS	WWTP	Sample	4/26/21	0.2			Qiagen QiaAMP Viral Mini-RNA Kit	0.06				MVS	StarCityWWTP-01	EL	4/23/21 10:55	Composite	4/18/21 11:59	4/18/21 12:00	8.717		Pass	MVS	4/23/21		Monongalia	Processing	Complete
A0048	16737	OneStep RT-ddPCR	Human RNase P		10116					2/22/21	Manual	DQ			CDC nCov-2 Triplex					SARS-CoV-2 N1				35424	SARS-CoV-2 N2				50616																																				CDC N1/N2/RP Triplex	0.005	Sample		1/3/21	100			PEG Precipitation	6				MS	WWTP	Sample	2/17/21	0.2			Qiagen QiaAMP Viral Mini-RNA Kit	0.06				MS	StarCityWWTP-01	GG	12/24/20 0:00	Composite	12/24/20 11:59	12/24/20 12:00	10.973 		Pass	TD	1/7/21		Monongalia	Processing	Complete
E01-0008	16284	OneStep RT-ddPCR	Human RNase P	1.444984972	2573.879482	None				11/29/21	Manual	DQ	58477038	QX 200	CDC nCov-2 Triplex	D3	AP0022	D03	JL	SARS-CoV-2 N1	66.56132221	0	1092.976303	118562.3552	SARS-CoV-2 N2	56.42027378	0	1279.930573	100498.6127																																					0.005	Sample		2021-11-22	10	NT04474	Halcyon	Ceres Nanotrap	0.475		CP0039	C03	AJ	WWTP	Sample	2021-11-22	0.4	2108255	Halcyon	Ultra 2.0 Microbiome (Thermo)	0.075	D3	EP0039	B03	AJ	PrincetonWWTP-01	-	11/16/21 8:00	Composite	11/16/21 7:50	11/15/21 7:50			Pass	AJ	11/19/21	6.72	Mercer	Processing	Complete
A02-0057	12915	OneStep RT-ddPCR	Human RNase P	553.1492615	587721.0903					8/27/21	Manual	DQ	58477036	QX One	CDC nCov-2 Triplex	D6	AP0005	F03	JL	SARS-CoV-2 N1	829.1149139	0	2615.09491	880934.5961	SARS-CoV-2 N2	882.605896	0	2786.116028	937768.7645																																				CDC N1/N2/RP Triplex	0.005	Sample		8/27/21	10	NT04155	Kookaburra	Ceres Nanotrap	0.425		CP0005	D05	JL	WVU Morgantown	Sample	8/27/21	0.4	2102028	Kookaburra	Thermo Magmax Microbiome Ultra Nucleic Acid Isolation Kit	0.05	D6	EP0005	B10	JL	NorthHighSt-02 (MUB)	EL	8/27/21 10:40	Grab	8/27/21 10:40	8/27/21 10:40			Pass	JL	8/27/21	7.86	Monongalia	Processing	Complete
A02-0076																																																																			Sample		9/3/21	10	NT04155	Halcyon	Ceres Nanotrap	0.425		CP0008	B02	JL	WVU Morgantown	Sample	9/3/21	0.4	2102028	Halcyon	Thermo Magmax Microbiome Ultra Nucleic Acid Isolation Kit	0.05	I8	EP0008	A08	JL	Evansdale-01	EL	9/3/21 10:00	Grab	9/3/21 10:00	9/3/21 10:00			Pass	JL	9/3/21	7.86	Monongalia	Processing	Confirming
A02-0006	17196	OneStep RT-ddPCR	Human RNase P	13.68705153	14542.49226					8/16/21	Manual	DQ	58477036	QX 200	CDC nCov-2 Triplex		AP000000	A05	JL	SARS-CoV-2 N1	23.27272892	0	1714.019012	24727.27346	SARS-CoV-2 N2	17.79472113	0	1783.141785	18906.8917																																				CDC N1/N2/RP Triplex	0.005	Sample		8/16/21	10	NT04155	Halcyon	Ceres Nanotrap	0.425		CP000000	A05	JL	WVU Morgantown	Sample	8/16/21	0.4	2102028	Halcyon	Thermo Magmax Microbiome Ultra Nucleic Acid Isolation Kit	0.05		EP000000	A05	JL	OaklandE-02	Eric Lundstrom	8/13/21 9:22	Composite	8/13/21 9:22	8/11/21 9:45			Pass	Josh Lambert	8/13/21	7.34	Monongalia	Processing	Complete
A03-0025																																																																			Sample													Sample																									Unknown
A01-0040	11781	OneStep RT-ddPCR	Human RNase P	3.994806707	4244.482126					9/29/21	Manual	DQ	58477037	QX 200	CDC nCov-2 Triplex	NAB_10 K1	AP0010	A01	JL	SARS-CoV-2 N1	366.33358	0	1097.667847	389229.4288	SARS-CoV-2 N2	184.4667053	0	1200.682373	195995.8744																																				CDC N1/N2/RP Triplex	0.005	Sample		9/27/21	10	NT04474	Halcyon	Ceres Nanotrap	0.425		CP0017	A01	JL	WWTP	Sample	9/27/21	0.4	2105049	Halcyon	Thermo Magmax Microbiome Ultra Nucleic Acid Isolation Kit	0.05	K1	EP0017	A01	JL	StarCityWWTP-01	GG	9/19/21 23:55	Composite	9/19/21 23:55	9/19/21 0:00	7.236		Pass	JL	9/24/21	6.55	Monongalia	Processing	Complete
A02-0156 b	12429	OneStep RT-ddPCR	Human RNase P		45450					3/15/21	Manual	DQ		QX 200	CDC nCov-2 Triplex					SARS-CoV-2 N1				5670	SARS-CoV-2 N2				0																																				CDC N1/N2/RP Triplex	0.005	Sample	Was A07-0018		100			PEG Precipitation	5					WWTP	Sample		0.2			Qiagen QiaAMP Viral Mini-RNA Kit	0.06					StarCityWWTP-01	EL	3/4/21 12:00	Composite	3/4/21 12:00	3/4/21 12:00	11.448		Pass				Monongalia	Rejected	Test
G01-0030																																																																			Sample		11/12/21	10	NT04474	Kookaburra	Ceres Nanotrap	0.425		CP0035	D01	AJ	WWTP	Sample	11/12/21	0.4	2108255	Kookaburra	Thermo Magmax Microbiome Ultra Nucleic Acid Isolation Kit	0.05	H5	EP0035	B05	AJ	KeyserWWTP-01	-	11/9/21 8:40	Composite	11/9/21 8:00	11/8/21 9:00			Pass	JL	11/12/21	7.02	Mineral	Processing	Processing
A03-0143																																																																																											SuncrestES-01												Monongalia		
H01-0055																																																																															WWTP												MoundsvilleWWTP-01												Marshall		
A02-0085	19332	OneStep RT-ddPCR	Human RNase P	34.10413504	36235.64348					9/9/21	Manual	DQ	58477037	QX 200	CDC nCov-2 Triplex	K7	AP0007	A07	JL	SARS-CoV-2 N1	6.086399555	0	1303.838043	6466.799527	SARS-CoV-2 N2	4.868993759	0	1366.207123	5173.305869																																				CDC N1/N2/RP Triplex	0.005	Sample		9/8/21	10	NT04155	Halcyon	Ceres Nanotrap	0.425		CP0009	B01	JL	WVU Morgantown	Sample	9/8/21	0.4	2102028	Halcyon	Thermo Magmax Microbiome Ultra Nucleic Acid Isolation Kit	0.05	K7	EP0009	A07	JL	CollegePark-02	EL	9/6/21 9:00	Composite	9/6/21 9:00	9/4/21 9:00			Pass	JL	9/7/21	6.67	Monongalia	Processing	Complete
A02-0072	9462	OneStep RT-ddPCR	Human RNase P	41.70183659	44308.20137					9/2/21	Manual	DQ		QX One	BRSV Triplex	G8	AP000000	H02	JL	SARS-CoV-2 N1	25.01316309	0	3138.026123	26576.48578	SARS-CoV-2 N2	11.11402273	0	3336.080627	11808.64915																																				CDC N1/N2/RP Triplex	0.005	Sample		9/2/21	10	 NT04155	Kookaburra	Ceres Nanotrap	0.425		CP0007	C04	JL	WVU Morgantown	Sample	9/2/21	0.4	2102028	Halcyon	Thermo Magmax Microbiome Ultra Nucleic Acid Isolation Kit	0.05	G8	EP0007	B04	JL	CollegePark-02	EL	9/1/21 10:58	Composite	9/1/21 10:59	8/30/21 10:58			Pass	JL	9/1/21	6.98	Monongalia	Processing	Complete
C01-0036	14428	OneStep RT-ddPCR	Human RNase P	58.78273487	62456.6558	None				11/22/21	Manual	DQ	58477038	QX 200	CDC nCov-2 Triplex	I4	AP0021	A04	JL	SARS-CoV-2 N1	65.32322884	1109.141006	0	69405.93064	SARS-CoV-2 N2	78.40966225	1229.36615	0	83310.26614																																					0.005	Sample		11/16/21	10	NT04474	Kookaburra	Ceres Nanotrap	0.425		CP0036	A04	AJ	WWTP	Sample	11/16/21	0.4	2108255	Kookaburra	Thermo Magmax Microbiome Ultra Nucleic Acid Isolation Kit	0.05	I4	EP0036	A04	AJ	WheelingWWTP-01	GZ	11/10/21 7:00	Composite	11/10/21 7:00	11/9/21 7:00			Pass	JL	11/12/21	6.15	Ohio	Processing	Complete
A0045	18529	OneStep RT-ddPCR	Human RNase P		5334					2/22/21	Manual	DQ			CDC nCov-2 Triplex					SARS-CoV-2 N1				21336	SARS-CoV-2 N2				10668																																				CDC N1/N2/RP Triplex	0.005	Sample		1/3/21	100			PEG Precipitation	7				MS	WWTP	Sample	2/17/21	0.2			Qiagen QiaAMP Viral Mini-RNA Kit	0.06				MS	StarCityWWTP-01	GG	12/21/20 0:00	Composite	12/21/20 11:59	12/21/20 12:00	12.058 		Pass	TD	1/7/21		Monongalia	Processing	Complete
A03-0156																																																																																											MorgantownHS-01												Monongalia		
C01-0010	15001	OneStep RT-ddPCR	Human RNase P	29.48688269	31329.81285					10/5/21	Manual	DQ	58477037	QX One	CDC nCov-2 Triplex	E5	AP0011	E03	JL	SARS-CoV-2 N1	35.38898468	1355.395355	0	37600.79622	SARS-CoV-2 N2	63.44550133	1548.404388	0	67410.84516																																				CDC N1/N2/RP Triplex	0.005	Sample		10/1/21	10	NT04474	Halcyon	Ceres Nanotrap	0.425	E5	CP0019	D03	JL	WWTP	Sample	10/1/21	0.4	2108052	Halcyon	Thermo Magmax Microbiome Ultra Nucleic Acid Isolation Kit	0.05	E5	EP0019	C05	JL	WheelingWWTP-01	MVC	9/28/21 7:00	Composite	9/28/21 7:00	9/27/21 7:00			Pass	JL	10/1/21		Ohio	Processing	Complete
A02-0029	14381	OneStep RT-ddPCR	Human RNase P	525.8838654	558751.6069					8/27/21	Manual	DQ	58477036	QX One	CDC nCov-2 Triplex	B8	AP0005	H01	JL	SARS-CoV-2 N1	16.52323127	0	2615.09491	17555.93322	SARS-CoV-2 N2	21.03176117	0	2786.116028	22346.24624																																				CDC N1/N2/RP Triplex	0.005	Sample		8/27/21	10	NT04155	Kookaburra	Ceres Nanotrap	0.425		CP0005	B02	JL	WVU Morgantown	Sample	8/27/21	0.4	2102028	Kookaburra	Thermo Magmax Microbiome Ultra Nucleic Acid Isolation Kit	0.05	B8	EP0005	A08	JL	HonorsSummit-01 (MUB)	EL	8/23/21 9:46	Grab	8/23/21 9:46	8/23/21 9:46			Pass	JL	8/23/21	7.54	Monongalia	Processing	Complete
A01-0065	11037	OneStep RT-ddPCR	Human RNase P	19.19462681	20394.29098	None				10/20/21	Manual	DQ	58477038	QX One	CDC nCov-2 Triplex	K5	AP0014	E06	JL	SARS-CoV-2 N1	34.13461208	0	2152.007294	36268.02534	SARS-CoV-2 N2	17.0611167	0	2493.552246	18127.43649																																					0.005	Sample		10/20/21	10	NT04474	Halcyon	Ceres Nanotrap	0.425		CP0027	B01	JL	WWTP	Sample	10/20/21	0.4	2108255	Halcyon	Thermo Magmax Microbiome Ultra Nucleic Acid Isolation Kit	0.05	K5	EP0027	A05	JL	StarCityWWTP-01	GG	10/17/21 23:55	Composite	10/17/21 23:55	10/17/21 0:00	7.808 		Pass	JL	10/20/21		Monongalia	Processing	Complete
C01-0005	11916	OneStep RT-ddPCR	Human RNase P	33.59227896	35691.79639					9/29/21	Manual	DQ	58477037	QX 200	CDC nCov-2 Triplex	A5	AP0010	C05	JL	SARS-CoV-2 N1	41.50331974	0	1097.667847	44097.27722	SARS-CoV-2 N2	27.66074419	0	1200.682373	29389.5407																																				CDC N1/N2/RP Triplex	0.005	Sample	FLOW 5.511	9/27/21	10	NT04474	Halcyon	Ceres Nanotrap	0.425		CP0017	D03	JL	WWTP	Sample	9/27/21	0.4	2105049	Halcyon	Thermo Magmax Microbiome Ultra Nucleic Acid Isolation Kit	0.05	A5	EP0017	B09	JL	WheelingWWTP-01	MVC	9/20/21 7:00	Composite	9/20/21 7:00	9/19/21 7:00	5.511		Pass	JL	9/24/21	6.27	Ohio	Processing	Complete
A02-0095	12903	OneStep RT-ddPCR	Human RNase P	25.54371834	27140.20073					9/20/21	Manual	DQ	58477037	QX 200	CDC nCov-2 Triplex	A8	AP0008	A08	JL	SARS-CoV-2 N1	3.647405207	0	1320.22522	3875.368033	SARS-CoV-2 N2	7.295376062	0	1524.019623	7751.337066																																				CDC N1/N2/RP Triplex	0.005	Sample		9/13/21	10	NT04155	Halcyon	Ceres Nanotrap	0.425		CP0011	B02	JL	WVU Morgantown	Sample	9/13/21	0.4	2105033	Halcyon	Thermo Magmax Microbiome Ultra Nucleic Acid Isolation Kit	0.05	A8	EP0011	A08	JL	CollegePark-02	EL	9/10/21 9:51	Composite	9/10/21 9:51	9/8/21 9:51			Pass	JL	9/13/21	6.69	Monongalia	Processing	Complete
C01-0038	11208	OneStep RT-ddPCR	Human RNase P	31.5112042427062	56129.3325573204	None				2021-12-03	Manual	DQ	58477038	QX 200	CDC nCov-2 Triplex	F3	AP0023	B03	JL	SARS-CoV-2 N1	56.7505836486816	0	1030.21682739258	101086.977124214	SARS-CoV-2 N2	16.8007230758667	0	1109.43168640137	29926.2879788876																																					0.005			2021-11-29	10	NT04474	Halcyon	Ceres Nanotrap	0.475		CP0040	C03	AJ	WWTP		2021-11-29	0.4	2108255	Halcyon	Thermo Magmax Microbiome Ultra Nucleic Acid Isolation Kit	0.075	F3	EP0040	B03	AJ	WheelingWWTP-01	-	11/15/21 7:00	Composite	11/15/21 7:00	11/14/21 7:00			Pass	AJ	11/23/21	5.94	Ohio	Processing	Complete
F01-0019	6605	OneStep RT-ddPCR	Human RNase P	14.25377131	15144.63201	None				11/8/21	Manual	DQ	58477038	QX 200	CDC nCov-2 Triplex	A8	AP0017	A08	AJ	SARS-CoV-2 N1	7.125806212	0	560.2787018	7571.169101	SARS-CoV-2 N2	10.68951845	0	653.7683868	11357.61335																																					0.005	Sample		11/5/21	10	NT04474	Kookaburra	Ceres Nanotrap	0.425		CP00033	B02	JL	WWTP	Sample	11/5/21	0.4	21108255	Kookaburra	Thermo Magmax Microbiome Ultra Nucleic Acid Isolation Kit	0.05	A8	EP0033	A08	JL	WestonWWTP-01	BP	11/4/21 14:00	Composite	11/4/21 14:00	11/3/21 14:00			Pass	JL	11/5/21		Lewis	Processing	Confirming
B01-0051	14476	OneStep RT-ddPCR	Human RNase P	1.625464559	1727.056094	None				11/22/21	Manual	DQ	58477038	QX 200	CDC nCov-2 Triplex	NAB13 K8	AP0021	E02	JL	SARS-CoV-2 N1	9.754471779	1109.141006	0	10364.12627	SARS-CoV-2 N2	8.128445745	1229.36615	0	8636.473604																																				CDC N1/N2/RP Triplex	0.005	Sample		11/3/21	10	NT04474	Halcyon	Ceres Nanotrap	0.425		CP0032	D06	JL	WWTP	Sample	11/3/21	0.4	21108255	Kookaburra	Thermo Magmax Microbiome Ultra Nucleic Acid Isolation Kit	0.05	K8	EP0032	B12	JL	CharlestonWWTP-01	BP	11/2/21 7:15	Composite	11/2/21 7:00	11/1/21 7:00			Pass	JL	11/3/21	7.15	Kanawha	Processing	Complete
A1053	12837	OneStep RT-ddPCR		75.27		BRSV		178766.25		7/7/21	Manual	DQ			BRSV Triplex					SARS-CoV-2 N1	1.83			4346.25	SARS-CoV-2 N2	1.83			4346.25																																				N1/N2/BRSV Triplex	0.005	Sample		7/7/21	10			Ceres Nanotrap	0.95	pH: 6.83				WWTP	Sample	7/7/21	0.4			Thermo Magmax Microbiome Ultra Nucleic Acid Isolation Kit	0.05				JL	StarCityWWTP-01	EL	5/20/21 23:55	Composite	5/20/21 23:55	5/20/21 0:00	6.831		Pass	JL	5/21/21	6.83	Monongalia	Processing	Complete
A0037	13832	OneStep RT-ddPCR	Human RNase P		98064					12/14/20	Manual	DQ			CDC nCov-2 Triplex					SARS-CoV-2 N1				85800	SARS-CoV-2 N2				85800																																				CDC N1/N2/RP Triplex	0.005	Sample		12/13/20	100			PEG Precipitation	4				MS	WWTP	Sample	12/14/20	0.2			Qiagen QiaAMP Viral Mini-RNA Kit	0.06				MS	StarCityWWTP-01	GG	12/9/20 0:00	Composite	12/9/20 11:59	12/9/20 12:00	6.932 		Pass	TD	12/11/20		Monongalia	Processing	Complete
A02-0039	17859	OneStep RT-ddPCR	Human RNase P	79.85180378	84842.54152					8/25/21	CHECK	DQ	58477036	QX One	CDC nCov-2 Triplex	L5	AP0004	E02	JL	SARS-CoV-2 N1	295.5689621	-20	2835.271912	314042.0222	SARS-CoV-2 N2	308.093586	-20	3151.898499	327349.4351																																				CDC N1/N2/RP Triplex	0.005	Sample		8/25/21	10	NT04155	Kookaburra	Ceres Nanotrap	0.425		CP0004	A05	JL	WVU Morgantown	Sample	8/25/21	0.4	2102028	Kookaburra	Thermo Magmax Microbiome Ultra Nucleic Acid Isolation Kit	0.05	L5	EP0004	A05	JL	HonorsSummit-01 (MUB)	EL	8/25/21 9:38	Composite	8/25/21 9:55	8/23/21 9:55			Pass	JL	8/25/21	7.09	Monongalia	Processing	Complete
A02-0103	13638	OneStep RT-ddPCR	Human RNase P	17.25916028	18337.8578					9/20/21	Manual	DQ	58477037	QX 200	CDC nCov-2 Triplex	B4	AP0008	B04	JL	SARS-CoV-2 N1	6.902144551	0	1320.22522	7333.528586	SARS-CoV-2 N2	1.725346446	0	1524.019623	1833.180599																																				CDC N1/N2/RP Triplex	0.005	Sample		9/13/21	10	NT04155	Halcyon	Ceres Nanotrap	0.425		CP0011	B06	JL	WVU Morgantown	Sample	9/13/21	0.4	2105033	Halcyon	Thermo Magmax Microbiome Ultra Nucleic Acid Isolation Kit	0.05	B4	EP0011	A12	JL	CollegePark-02	EL	9/13/21 10:13	Composite	9/13/21 9:00	9/11/21 9:00			Pass	JL	9/13/21	7.03	Monongalia	Processing	Complete
A03-0044		OneStep RT-ddPCR	Human RNase P			None				11/1/21	CHECK	ABS	58477038	QX 200	CDC nCov-2 Triplex	A6	AP0015	E06	JL	SARS-CoV-2 N1					SARS-CoV-2 N2																																									0.005	Sample		10/28/21	10	NT04474	Halcyon	Ceres Nanotrap	0.425		CP0030	A06	JL	K-12	Sample	10/28/21	0.4	2108255	Halcyon	Thermo Magmax Microbiome Ultra Nucleic Acid Isolation Kit	0.05	A6	EP0030	A06	JL	MountainviewES-01	BL	10/21/21 9:05	Composite	10/20/21 14:00	10/20/21 6:00			Pass	JL	10/22/21		Monongalia	Processing	Processing
J01-0046																																																																															WWTP												AlpineLakeWWTP-01												Preston		
K01-0001																																																																																											ParkersburgWWTP-01												Wood		
A02-0120	14179	OneStep RT-ddPCR	Human RNase P	31.5507865	33522.71065					9/24/21	Manual	DQ		QX 200	CDC nCov-2 Triplex	J1	AP0009	C01	JL	SARS-CoV-2 N1	39.86066341	0	878.4640503	42351.95488	SARS-CoV-2 N2	23.24384689	0	968.4371185	24696.58732																																				CDC N1/N2/RP Triplex	0.005	Sample		9/24/21	10		Halcyon	Ceres Nanotrap	0.425		CP0016	C05	JL	WVU Morgantown	Sample	9/24/21	0.4	XXXXXX	Halcyon	Thermo Magmax Microbiome Ultra Nucleic Acid Isolation Kit	0.05	J1	EP0016	B05	JL	OaklandE-02	EL	9/22/21 9:33	Composite	9/22/21 9:33	9/20/21 9:33			Pass	JL	9/22/21	7.5	Monongalia	Processing	Complete
A02-0111	8769	OneStep RT-ddPCR	Human RNase P	0	0					10/14/21	Manual	DQ	58477038	QX One	CDC nCov-2 Triplex	NAB_10 L4	AP0013	F04	JL	SARS-CoV-2 N1	0	0	1707.766876	0	SARS-CoV-2 N2	0	0	1836.244965	0																																				CDC N1/N2/RP Triplex	0.005	Sample		9/17/21	10	NT04155	Halcyon	Ceres Nanotrap	0.425		CP0013	C02	JL	WVU Morgantown	Sample	9/17/21	0.4	2105033	Halcyon	Thermo Magmax Microbiome Ultra Nucleic Acid Isolation Kit	0.05	G2	EP0012	A10	JL	OaklandE-02	EL	9/17/21 10:10	Composite	9/17/21 10:06	9/15/21 10:06			Pass	JL	9/17/21	7.13	Monongalia	Processing	Complete
A02-0001 10K	17989	OneStep RT-ddPCR				BRSV	0	0		8/13/21	Manual	DQ		QX 200	BRSV Triplex	10k	AP000000	B03	JL	SARS-CoV-2 N1	678.059082	0	2236.361694	720437.7747	SARS-CoV-2 N2	711.7389679	0	2276.707153	756222.6534																																				CDC N1/N2/RP Triplex	0.005	Sample		8/13/21	10	NT04155	Kookaburra	Ceres Nanotrap	0.425	Spike with 10K HI-SARS	CP000000	B05	JL		Sample	8/13/21	0.4	2102028	Kookaburra	Thermo Magmax Microbiome Ultra Nucleic Acid Isolation Kit	0.05	Spike with 10K HI-SARS	EP000000	B05	JL														Rejected	Test
A01-0019																																																																			Sample													Sample																									Unknown
A02-0096	13757	OneStep RT-ddPCR	Human RNase P	5.131636858	5452.364162					9/20/21	Manual	DQ	58477037	QX 200	CDC nCov-2 Triplex	B1	AP0008	B01	JL	SARS-CoV-2 N1	5.131636858	0	1320.22522	5452.364162	SARS-CoV-2 N2	1.710421294	0	1524.019623	1817.322625																																				CDC N1/N2/RP Triplex	0.005	Sample		9/13/21	10	NT04155	Halcyon	Ceres Nanotrap	0.425		CP0011	B03	JL	WVU Morgantown	Sample	9/13/21	0.4	2105033	Halcyon	Thermo Magmax Microbiome Ultra Nucleic Acid Isolation Kit	0.05	B1	EP0011	A09	JL	Evansdale-01	EL	9/13/21 9:19	Composite	9/13/21 9:00	9/11/21 9:00			Pass	JL	9/13/21	6.61	Monongalia	Processing	Complete
A01-0074	13106	OneStep RT-ddPCR	Human RNase P	19.75676894	20991.567	None				11/4/21	Manual	DQ	58477038	QX 200	CDC nCov-2 Triplex	F5	AP0016	A05	JL	SARS-CoV-2 N1	35.93374491	0	1040.980072	38179.60396	SARS-CoV-2 N2	5.386564732	0	1205.935364	5723.225027																																					0.005	Sample		11/2/21	10	NT04474	Kookaburra	Ceres Nanotrap	0.425		CP0031	A02	JL	WWTP	Sample	11/2/21	0.4	21108255	Kookaburra	Thermo Magmax Microbiome Ultra Nucleic Acid Isolation Kit	0.05	F5	EP0031	A05	JL	StarCityWWTP-01	GG	10/27/21 23:55	Composite	10/27/21 23:55	10/27/21 0:00	8.634 		Pass	JL	10/29/21	6.94	Monongalia	Processing	Complete
A03-0136																																																																																											MorgantownHS-01												Monongalia		
B01-0015	21548	OneStep RT-ddPCR	Human RNase P	5.910515785	6279.923022					10/11/21	Manual	DQ	58477037	QX One	CDC nCov-2 Triplex	L1	AP0012	A05	JL	SARS-CoV-2 N1	26.60596848	0	1593.187866	28268.84151	SARS-CoV-2 N2	32.52142668	0	2077.493896	34554.01585																																				CDC N1/N2/RP Triplex	0.005	Sample		10/8/21	10	NT04474	Halcyon	Ceres Nanotrap	0.425		CP0022	B03	JL	WWTP	Sample	10/8/21	0.4	2108052	Halcyon	Thermo Magmax Microbiome Ultra Nucleic Acid Isolation Kit	0.05	L1	EP0022	B01	JL	CharlestonWWTP-01	KM	10/5/21 8:00	Composite	10/5/21 7:00	10/4/21 7:00			Pass	JL	10/8/21	7.24	Kanawha	Processing	Complete
A01-0039	12570	OneStep RT-ddPCR	Human RNase P	61.85295105	65718.76049					9/20/21	Manual	DQ	58477037	QX 200	CDC nCov-2 Triplex	G8	AP0008	E08	JL	SARS-CoV-2 N1	186.0487938	0	1320.22522	197676.8434	SARS-CoV-2 N2	186.0487938	0	1524.019623	197676.8434																																				CDC N1/N2/RP Triplex	0.005	Sample		9/17/21	10	NT04155	Halcyon	Ceres Nanotrap	0.425		CP0013	D04	JL	WWTP	Sample	9/17/21	0.4	2105033	Halcyon	Thermo Magmax Microbiome Ultra Nucleic Acid Isolation Kit	0.05	G8	EP0012	B04	JL	StarCityWWTP-01	GG	9/16/21 23:55	Composite	9/16/21 23:55	9/16/21 0:00	7.767		Pass	JL	9/17/21	6.83	Monongalia	Processing	Complete
A03-0039	922	OneStep RT-ddPCR	Human RNase P	0	0	None				10/20/21	Manual	DQ	58477038	QX One	CDC nCov-2 Triplex	H1	AP0014	A04	JL	SARS-CoV-2 N1	0	0	2152.007294	0	SARS-CoV-2 N2	0	0	2493.552246	0																																					0.005	Sample		10/18/21	10	NT04474	Halcyon	Ceres Nanotrap	0.425		CP0026	A01	JL	K-12	Sample	10/18/21	0.4	2108255	Halcyon	Thermo Magmax Microbiome Ultra Nucleic Acid Isolation Kit	0.05	H1	EP0026	A01	JL	MorgantownHS-01	BL	10/8/21 14:15	Composite	10/8/21 14:00	10/8/21 6:00			Pass	JL	10/18/21		Monongalia	Processing	Confirming
A1109	11832	OneStep RT-ddPCR		141.62		BRSV		336347.5		7/30/21	Manual	DQ			BRSV Triplex					SARS-CoV-2 N1	1.99			4726.25	SARS-CoV-2 N2	1.99			4726.25																																				N1/N2/BRSV Triplex	0.005	Sample		7/30/21	10			Ceres Nanotrap	0.95					WWTP	Sample	7/30/21	0.4			Thermo Magmax Microbiome Ultra Nucleic Acid Isolation Kit	0.05				JL	StarCityWWTP-01	EL	7/27/21 23:55	Composite	7/27/21 23:55	7/27/21 0:00	7.447		Pass	JL	7/30/21		Monongalia	Processing	Complete
A02-0289																																																																																											WVU-Morgantown												Monongalia		
A0036	14442	OneStep RT-ddPCR	Human RNase P		44010					12/14/20	Manual	DQ			CDC nCov-2 Triplex					SARS-CoV-2 N1				14670	SARS-CoV-2 N2				19560																																				CDC N1/N2/RP Triplex	0.005	Sample		12/13/20	100			PEG Precipitation	5				MS	WWTP	Sample	12/14/20	0.2			Qiagen QiaAMP Viral Mini-RNA Kit	0.06				MS	StarCityWWTP-01	GG	12/8/20 0:00	Composite	12/8/20 11:59	12/8/20 12:00	7.104 		Pass	TD	12/11/20		Monongalia	Processing	Complete
A02-0365																																																																																											WVU-Morgantown												Monongalia		
E02-0008	16186	OneStep RT-ddPCR	Human RNase P	42.19479561	44831.97033	None				11/22/21	Manual	DQ	58477038	QX 200	CDC nCov-2 Triplex	K8	AP0021	C08	JL	SARS-CoV-2 N1	20.36045313	1109.141006	0	21632.98145	SARS-CoV-2 N2	23.2705307	1229.36615	0	24724.93887																																					0.005	Sample		11/17/21	10	NT04474	Halcyon	Ceres Nanotrap	0.425		CP0037	B04	JL	WWTP	Sample	11/17/21	0.4	2108255	Halcyon	Thermo Magmax Microbiome Ultra Nucleic Acid Isolation Kit	0.05	K8	EP0037	A08	JL	AthensWWTP-01	-	11/15/21 8:00	Composite	11/13/21 8:00	11/12/21 8:00			Pass	JL	11/16/21	6.37	Mercer	Processing	Complete
A02-0026	14246	OneStep RT-ddPCR	Human RNase P	116.9018555	124208.2214					8/23/21	CHECK	DQ	58477036	QX One	CDC nCov-2 Triplex	I2	AP0004	B01	JL	SARS-CoV-2 N1	8.188365698	-20	2835.271912	8700.138554	SARS-CoV-2 N2	8.188365698	-20	3151.898499	8700.138554																																				CDC N1/N2/RP Triplex	0.005	Sample		8/23/21	10	NT04155	Kookaburra	Ceres Nanotrap	0.425		CP000002	A02	JL	WVU Morgantown	Sample	8/23/21	0.4	2102028	Kookaburra	Thermo Magmax Microbiome Ultra Nucleic Acid Isolation Kit	0.05		EP000002	A02	JL	Evansdale-01	EL	8/23/21 9:13	Grab	8/23/21 9:13	8/23/21 9:13			Pass	JL	8/23/21	7.27	Monongalia	Processing	Complete
A1010	10115	OneStep RT-ddPCR	Human RNase P		33504					3/30/21	Manual	DQ		QX 200	CDC nCov-2 Triplex					SARS-CoV-2 N1				0	SARS-CoV-2 N2				11184																																				CDC N1/N2/RP Triplex	0.005	Sample		3/26/21	100			PEG Precipitation	8				MVS	WWTP	Sample	3/29/21	0.2			Qiagen QiaAMP Viral Mini-RNA Kit	0.06				MVS	StarCityWWTP-01	EL	3/26/21 12:00	Composite	3/21/21 12:00	3/21/21 12:00	9.905		Pass	MVS	3/26/21		Monongalia	Processing	Complete
E02-0011	18755	OneStep RT-ddPCR	Human RNase P	13.80429029	24588.89209	None				11/29/21	Manual	DQ	58477038	QX 200	CDC nCov-2 Triplex	D2	AP0022	D02	JL	SARS-CoV-2 N1	15.05962729	0	1092.976303	26824.96112	SARS-CoV-2 N2	33.89772654	0	1279.930573	60380.32539																																					0.005	Sample		2021-11-22	10	NT04474	Halcyon	Ceres Nanotrap	0.475		CP0039	C02	AJ	WWTP	Sample	2021-11-22	0.4	2108255	Halcyon	Ultra 2.0 Microbiome (Thermo)	0.075	D2	EP0039	B02	AJ	AthensWWTP-01	-	11/18/21 8:00	Composite	11/18/21 8:00	11/17/21 8:00			Pass	AJ	11/19/21	6.57	Mercer	Processing	Complete
A02-0024	17511	OneStep RT-ddPCR	Human RNase P	41.69140339	44297.1161					8/20/21	Manual	DQ	58477036	QX 200	CDC nCov-2 Triplex	H4	AP000000	A04	JL	SARS-CoV-2 N1	2.687540054	0	1047.2155	2855.51131	SARS-CoV-2 N2	20.16403675	0	1082.352142	21424.28803																																				CDC N1/N2/RP Triplex	0.005	Sample		8/20/21	10	NT04155	Kookaburra	Ceres Nanotrap	0.425	7.16	CP000000	A04	JL	WVU Morgantown	Sample	8/20/21	0.4	2102028	Kookaburra	Thermo Magmax Microbiome Ultra Nucleic Acid Isolation Kit	0.05	H4	EP000000	A04	JL	CollegePark-02	EL	8/20/21 10:10	Composite	8/20/21 10:10	8/18/21 10:10			Pass	Jl	8/20/21	7.16	Monongalia	Processing	Complete
A02-0099																																																																			Sample		9/13/21	10	NT04155	Halcyon	Ceres Nanotrap	0.425		CP0011	B04	JL	WVU Morgantown	Sample	9/13/21	0.4	2105033	Halcyon	Thermo Magmax Microbiome Ultra Nucleic Acid Isolation Kit	0.05	B2	EP0011	A10	JL	HonorsSummit-01 (MUB)	EL	9/13/21 9:50	Composite	9/13/21 9:00	9/11/21 9:00			Pass	JL	9/13/21	7.11	Monongalia	Processing	Confirming
G02-0006	15703	OneStep RT-ddPCR	Human RNase P	2.996995449	3184.307665	None				11/4/21	Manual	DQ	58477038	QX 200	CDC nCov-2 Triplex	I8	AP0016	D08	JL	SARS-CoV-2 N1	90.07633209	0	1040.980072	95706.10285	SARS-CoV-2 N2	102.112608	0	1205.935364	108494.646																																					0.005	Sample		11/3/21	10	NT04474	Halcyon	Ceres Nanotrap	0.425		CP0032	B02	JL	WVU Keyser	Sample	11/3/21	0.4	21108255	Kookaburra	Thermo Magmax Microbiome Ultra Nucleic Acid Isolation Kit	0.05	I8	EP0032	A08	JL	PotomacState-01	Z	10/22/21 10:30	Composite	10/22/21 10:30	10/21/21 11:00			Pass	JL	11/2/21	6.95	Mineral	Processing	Complete
A03-0169																																																																																											NorthES-01												Monongalia		
H01-0034	16263	OneStep RT-ddPCR	Human RNase P	20.2	21462.5					11/18/21	Manual	DQ	58477038	QX 200	CDC nCov-2 Triplex	G6	AP0020	D06	JL	SARS-CoV-2 N1	29	0	1193.4	30812.5	SARS-CoV-2 N2	40.6	0	1245	43137.5																																					0.005	Sample		11/12/21	10	NT04474	Kookaburra	Ceres Nanotrap	0.425		CP0035	B02	AJ	WWTP	Sample	11/12/21	0.4	2108255	Kookaburra	Thermo Magmax Microbiome Ultra Nucleic Acid Isolation Kit	0.05	G6	EP0035	A06	AJ	MoundsvilleWWTP-01	Q	11/8/21 8:15	Composite	11/8/21 8:00	11/7/21 8:00			Pass	AJ	11/11/21	6.87	Marshall	Processing	Complete
J01-0020																																																																															WWTP												AlpineLakeWWTP-01												Preston		
B01-0074	18967	OneStep RT-ddPCR	Human RNase P	6.20354116	6591.262482	None				11/22/21	Manual	DQ	58477038	QX 200	CDC nCov-2 Triplex	K1	AP0021	C01	JL	SARS-CoV-2 N1	19.8570919	1109.141006	0	21098.16015	SARS-CoV-2 N2	23.58216286	1229.36615	0	25056.04804																																				CDC N1/N2/RP Triplex	0.005	Sample		11/17/21	10	NT04474	Halcyon	Ceres Nanotrap	0.425		CP0037	A01	JL	WWTP	Sample	11/17/21	0.4	2108255	Halcyon	Thermo Magmax Microbiome Ultra Nucleic Acid Isolation Kit	0.05	K1	EP0037	A01	JL	CharlestonWWTP-01	-	11/11/21 7:25	Composite	11/11/21 7:00	11/10/21 7:00			Pass			7.01	Kanawha	Processing	Complete
A03-0155																																																																																											SuncrestES-01												Monongalia		
A02-0333																																																																																											WVU-Morgantown												Monongalia		
A01-0100	13740	OneStep RT-ddPCR	Human RNase P	29.1301035881042	51887.9970163106	None				2021-12-03	Manual	DQ	58477038	QX 200	CDC nCov-2 Triplex	H4	AP0023	D04	JL	SARS-CoV-2 N1	30.8447647094726	0	1030.21682739258	54942.2371387481	SARS-CoV-2 N2	15.4173290729523	0	1109.43168640137	27462.1174111963																																					0.005			2021-11-30	10	NT04474	Halcyon	Ceres Nanotrap	0.475		CP0041	B06	AJ	WWTP		2021-11-30	0.4	2108255	Halcyon	Thermo Magmax Microbiome Ultra Nucleic Acid Isolation Kit	0.075	H4	EP0041	B04	AJ	StarCityWWTP-01	-	11/28/2021 12:00 AM	Composite	11/28/2021 12:00 AM	11/27/2021 12:00 AM			Pass	AJ	11/30/2021	7.08	Monongalia	Processing	Complete
A1052	13896	OneStep RT-ddPCR		76.32		BRSV		181260		7/7/21	Manual	DQ			BRSV Triplex					SARS-CoV-2 N1	0			0	SARS-CoV-2 N2	1.69			4013.75																																				N1/N2/BRSV Triplex	0.005	Sample		7/7/21	10			Ceres Nanotrap	0.95	pH - 6.80				WWTP	Sample	7/7/21	0.4			Thermo Magmax Microbiome Ultra Nucleic Acid Isolation Kit	0.05				JL	StarCityWWTP-01	EL	5/19/21 23:55	Composite	5/19/21 23:55	5/19/21 0:00	7.301		Pass	JL	5/21/21	6.8	Monongalia	Processing	Complete
A03-0036																																																																			Sample		10/7/21	10	NT04474	Halcyon	Ceres Nanotrap	0.425		CP0021	D05	JL	K-12	Sample	10/7/21	0.4	2108052	Halcyon	Thermo Magmax Microbiome Ultra Nucleic Acid Isolation Kit	0.05	J1	EP0021	B09	JL	MountainviewES-01	BL	9/30/21 9:55	Composite	9/29/21 14:00	9/29/21 6:00			Pass	JL	10/6/21	7.44	Monongalia	Processing	Processing
A03-0101	52.1	OneStep RT-ddPCR	Human RNase P			None				11/1/21	OK	ABS	58477038	QX 200	CDC nCov-2 Triplex	B8	AP0015	F08	JL	SARS-CoV-2 N1					SARS-CoV-2 N2																																									0.005	Sample		10/28/21	10	NT04474	Halcyon	Ceres Nanotrap	0.425		CP0030	C04	JL	K-12	Sample	10/28/21	0.4	2108255	Halcyon	Thermo Magmax Microbiome Ultra Nucleic Acid Isolation Kit	0.05	B8	EP0030	B08	JL	MountainviewES-01	BL	10/26/21 9:55	Composite	10/25/21 14:00	10/25/21 6:00			Pass	JL	10/27/21		Monongalia	Processing	Confirming
A0206	15486	OneStep RT-ddPCR	Human RNase P		7296					2/22/21	Manual	DQ			CDC nCov-2 Triplex					SARS-CoV-2 N1				51072	SARS-CoV-2 N2				62016																																				CDC N1/N2/RP Triplex	0.005	Sample		1/4/21	100			PEG Precipitation	4				MS	WWTP	Sample	2/17/21	0.2			Qiagen QiaAMP Viral Mini-RNA Kit	0.06				MS	StarCityWWTP-01	GG	12/31/20 0:00	Composite	12/31/20 23:59	12/31/20 0:00	12.743		Pass	TD	1/7/21		Monongalia	Processing	Complete
A02-0352																																																																																											WVU-Morgantown												Monongalia		
A02-0068	19573	OneStep RT-ddPCR	Human RNase P	118.1052685	125486.8478					9/9/21	Manual	DQ	58477037	QX 200	CDC nCov-2 Triplex	H6	AP0007	B08	JL	SARS-CoV-2 N1	0	0	1303.838043	0	SARS-CoV-2 N2	1.2021669	0	1366.207123	1277.302331																																				CDC N1/N2/RP Triplex	0.005	Sample		9/2/21	10	 NT04155	Kookaburra	Ceres Nanotrap	0.425		CP0007	C02	JL	WVU Morgantown	Sample	9/2/21	0.4	2102028	Halcyon	Thermo Magmax Microbiome Ultra Nucleic Acid Isolation Kit	0.05	G6	EP0007	B02	JL	NorthHighSt-02 (MUB)	EL	9/1/21 10:00	Composite	9/1/21 10:00	8/30/21 10:00			Pass	JL	9/1/21	7.22	Monongalia	Processing	Complete
A03-0047	14793	OneStep RT-ddPCR	Human RNase P	1.590631157	1690.045604	None				11/8/21	Manual	DQ	58477038	QX 200	CDC nCov-2 Triplex	B3	AP0017	B03	AJ	SARS-CoV-2 N1	0	0	560.2787018	0	SARS-CoV-2 N2	0	0	653.7683868	0																																					0.005	Sample		11/5/21	10	NT04474	Kookaburra	Ceres Nanotrap	0.425		CP00033	B05	JL	K-12	Sample	11/5/21	0.4	21108255	Kookaburra	Thermo Magmax Microbiome Ultra Nucleic Acid Isolation Kit	0.05	B3	EP0033	B03	JL	SuncrestES-01	BL	10/28/21 11:05	Composite	10/27/21 14:00	10/27/21 6:00			Pass	JL	11/1/21	7.51	Monongalia	Processing	Complete
C01-0011	14723	OneStep RT-ddPCR	Human RNase P	15.66432714	16643.34759					10/5/21	Manual	DQ	58477037	QX One	CDC nCov-2 Triplex	E2	AP0011	B03	JL	SARS-CoV-2 N1	69.00279045	1355.395355	0	73315.46485	SARS-CoV-2 N2	87.85762787	1548.404388	0	93348.72961																																				CDC N1/N2/RP Triplex	0.005	Sample		10/1/21	10	NT04474	Halcyon	Ceres Nanotrap	0.425	E2	CP0019	C06	JL	WWTP	Sample	10/1/21	0.4	2108052	Halcyon	Thermo Magmax Microbiome Ultra Nucleic Acid Isolation Kit	0.05	E2	EP0019	C02	JL	WheelingWWTP-01	MVC	9/29/21 7:00	Composite	9/29/21 7:00	9/29/21 7:00			Pass	JL	10/1/21		Ohio	Processing	Complete
A02-0236	11326	OneStep RT-ddPCR	Human RNase P	14.5467782020569	25911.4486724138	None				2021-12-03	Manual	DQ	58477038	QX 200	CDC nCov-2 Triplex	F5	AP0023	B05	JL	SARS-CoV-2 N1	2.07756042480468	0	1030.21682739258	3700.65450668334	SARS-CoV-2 N2	0	0	1109.43168640137	0																																					0.005			2021-11-29	10	NT04474	Halcyon	Ceres Nanotrap	0.475		CP0040	D01	AJ	WVU Morgantown		2021-11-29	0.4	2108255	Halcyon	Thermo Magmax Microbiome Ultra Nucleic Acid Isolation Kit	0.075	F5	EP0040	B05	AJ	CollegePark-02	BL	11/29/21 10:55	Composite	11/29/21 9:00	11/27/21 9:00			Pass	JL	11/29/21	7.66	Monongalia	Processing	Complete
A02-0208	15375	OneStep RT-ddPCR	Human RNase P	35.22482157	37426.37292	None				11/8/21	Manual	DQ	58477038	QX 200	CDC nCov-2 Triplex	C1	AP0017	C01	AJ	SARS-CoV-2 N1	104.295845	0	560.2787018	110814.3353	SARS-CoV-2 N2	131.9811249	0	653.7683868	140229.9452																																					0.005	Sample		11/5/21	10	NT04474	Kookaburra	Ceres Nanotrap	0.425		CP00033	C05	JL	WVU Morgantown	Sample	11/5/21	0.4	21108255	Kookaburra	Thermo Magmax Microbiome Ultra Nucleic Acid Isolation Kit	0.05	C1	EP0033	C01	JL	OaklandE-02	EL	11/5/21 10:28	Composite	11/5/21 10:28	11/3/21 10:28			Pass	JL	11/5/21	7.1	Monongalia	Processing	Complete
A03-0110	11433	OneStep RT-ddPCR	Human RNase P	0	0	None				2021-12-03	Manual	DQ	58477038	QX 200	CDC nCov-2 Triplex	NAB14 D1	AP0023	H06	JL	SARS-CoV-2 N1	0	0	1030.21682739258	0	SARS-CoV-2 N2	0	0	1109.43168640137	0																																					0.005	Sample		2021-12-02	10	NT04474	Kookaburra	Ceres Nanotrap	0.475		CP0042	C04	LW	K-12	Sample	2021-12-02	0.4	2108255	Kookaburra	Thermo Magmax Microbiome Ultra Nucleic Acid Isolation Kit	0.075	F8	EP0042	B08	LW	SuncrestES-01	BL	11/9/21 12:40	Composite	11/8/21 14:00	11/8/21 6:00			Pass	JL	11/10/21		Monongalia	Processing	Complete
